
bin\Debug\RotaryEncoder.elf:     file format elf32-avr

Sections:
Idx Name          Size      VMA       LMA       File off  Algn
  0 .data         0000001c  00800200  00005182  00005216  2**0
                  CONTENTS, ALLOC, LOAD, DATA
  1 .text         00005182  00000000  00000000  00000094  2**1
                  CONTENTS, ALLOC, LOAD, READONLY, CODE
  2 .fuse         00000003  00820000  00820000  00005232  2**0
                  CONTENTS, ALLOC, LOAD, DATA
  3 .comment      00000012  00000000  00000000  00005235  2**0
                  CONTENTS, READONLY
  4 .note.gnu.avr.deviceinfo 00000040  00000000  00000000  00005248  2**2
                  CONTENTS, READONLY, OCTETS
  5 .debug_aranges 000001b8  00000000  00000000  00005288  2**3
                  CONTENTS, READONLY, DEBUGGING, OCTETS
  6 .debug_info   00001df0  00000000  00000000  00005440  2**0
                  CONTENTS, READONLY, DEBUGGING, OCTETS
  7 .debug_abbrev 00000f94  00000000  00000000  00007230  2**0
                  CONTENTS, READONLY, DEBUGGING, OCTETS
  8 .debug_line   00002883  00000000  00000000  000081c4  2**0
                  CONTENTS, READONLY, DEBUGGING, OCTETS
  9 .debug_frame  000003e8  00000000  00000000  0000aa48  2**2
                  CONTENTS, READONLY, DEBUGGING, OCTETS
 10 .debug_str    000006af  00000000  00000000  0000ae30  2**0
                  CONTENTS, READONLY, DEBUGGING, OCTETS
 11 .debug_line_str 000001a7  00000000  00000000  0000b4df  2**0
                  CONTENTS, READONLY, DEBUGGING, OCTETS

Disassembly of section .text:

00000000 <__vectors>:
       0:	0c 94 72 00 	jmp	0xe4	; 0xe4 <__ctors_end>
       4:	0c 94 8b 00 	jmp	0x116	; 0x116 <__bad_interrupt>
       8:	0c 94 8b 00 	jmp	0x116	; 0x116 <__bad_interrupt>
       c:	0c 94 8b 00 	jmp	0x116	; 0x116 <__bad_interrupt>
      10:	0c 94 8b 00 	jmp	0x116	; 0x116 <__bad_interrupt>
      14:	0c 94 8b 00 	jmp	0x116	; 0x116 <__bad_interrupt>
      18:	0c 94 8b 00 	jmp	0x116	; 0x116 <__bad_interrupt>
      1c:	0c 94 8b 00 	jmp	0x116	; 0x116 <__bad_interrupt>
      20:	0c 94 8b 00 	jmp	0x116	; 0x116 <__bad_interrupt>
      24:	0c 94 8b 00 	jmp	0x116	; 0x116 <__bad_interrupt>
      28:	0c 94 8b 00 	jmp	0x116	; 0x116 <__bad_interrupt>
      2c:	0c 94 8b 00 	jmp	0x116	; 0x116 <__bad_interrupt>
      30:	0c 94 8b 00 	jmp	0x116	; 0x116 <__bad_interrupt>
      34:	0c 94 54 02 	jmp	0x4a8	; 0x4a8 <__vector_13>
      38:	0c 94 82 02 	jmp	0x504	; 0x504 <__vector_14>
      3c:	0c 94 e5 01 	jmp	0x3ca	; 0x3ca <__vector_15>
      40:	0c 94 8b 00 	jmp	0x116	; 0x116 <__bad_interrupt>
      44:	0c 94 b0 03 	jmp	0x760	; 0x760 <__vector_17>
      48:	0c 94 e0 03 	jmp	0x7c0	; 0x7c0 <__vector_18>
      4c:	0c 94 8b 00 	jmp	0x116	; 0x116 <__bad_interrupt>
      50:	0c 94 3d 03 	jmp	0x67a	; 0x67a <__vector_20>
      54:	0c 94 fc 00 	jmp	0x1f8	; 0x1f8 <__vector_21>
      58:	0c 94 2a 01 	jmp	0x254	; 0x254 <__vector_22>
      5c:	0c 94 8d 00 	jmp	0x11a	; 0x11a <__vector_23>
      60:	0c 94 8b 00 	jmp	0x116	; 0x116 <__bad_interrupt>
      64:	0c 94 8b 00 	jmp	0x116	; 0x116 <__bad_interrupt>
      68:	0c 94 8b 00 	jmp	0x116	; 0x116 <__bad_interrupt>
      6c:	0c 94 8b 00 	jmp	0x116	; 0x116 <__bad_interrupt>
      70:	0c 94 8b 00 	jmp	0x116	; 0x116 <__bad_interrupt>
      74:	0c 94 8b 00 	jmp	0x116	; 0x116 <__bad_interrupt>
      78:	0c 94 8b 00 	jmp	0x116	; 0x116 <__bad_interrupt>
      7c:	0c 94 8b 00 	jmp	0x116	; 0x116 <__bad_interrupt>
      80:	0c 94 8b 00 	jmp	0x116	; 0x116 <__bad_interrupt>
      84:	0c 94 8b 00 	jmp	0x116	; 0x116 <__bad_interrupt>
      88:	0c 94 8b 00 	jmp	0x116	; 0x116 <__bad_interrupt>
      8c:	0c 94 8b 00 	jmp	0x116	; 0x116 <__bad_interrupt>
      90:	0c 94 8b 00 	jmp	0x116	; 0x116 <__bad_interrupt>
      94:	0c 94 8b 00 	jmp	0x116	; 0x116 <__bad_interrupt>
      98:	0c 94 8b 00 	jmp	0x116	; 0x116 <__bad_interrupt>
      9c:	0c 94 8b 00 	jmp	0x116	; 0x116 <__bad_interrupt>
      a0:	0c 94 8b 00 	jmp	0x116	; 0x116 <__bad_interrupt>
      a4:	0c 94 8b 00 	jmp	0x116	; 0x116 <__bad_interrupt>
      a8:	0c 94 8b 00 	jmp	0x116	; 0x116 <__bad_interrupt>
      ac:	0c 94 8b 00 	jmp	0x116	; 0x116 <__bad_interrupt>
      b0:	0c 94 8b 00 	jmp	0x116	; 0x116 <__bad_interrupt>
      b4:	0c 94 8b 00 	jmp	0x116	; 0x116 <__bad_interrupt>
      b8:	0c 94 8b 00 	jmp	0x116	; 0x116 <__bad_interrupt>
      bc:	0c 94 8b 00 	jmp	0x116	; 0x116 <__bad_interrupt>
      c0:	0c 94 8b 00 	jmp	0x116	; 0x116 <__bad_interrupt>
      c4:	0c 94 8b 00 	jmp	0x116	; 0x116 <__bad_interrupt>
      c8:	0c 94 8b 00 	jmp	0x116	; 0x116 <__bad_interrupt>
      cc:	0c 94 8b 00 	jmp	0x116	; 0x116 <__bad_interrupt>
      d0:	0c 94 8b 00 	jmp	0x116	; 0x116 <__bad_interrupt>
      d4:	0c 94 8b 00 	jmp	0x116	; 0x116 <__bad_interrupt>
      d8:	0c 94 8b 00 	jmp	0x116	; 0x116 <__bad_interrupt>
      dc:	0c 94 8b 00 	jmp	0x116	; 0x116 <__bad_interrupt>
      e0:	0c 94 8b 00 	jmp	0x116	; 0x116 <__bad_interrupt>

000000e4 <__ctors_end>:
      e4:	11 24       	eor	r1, r1
      e6:	1f be       	out	0x3f, r1	; 63
      e8:	cf ef       	ldi	r28, 0xFF	; 255
      ea:	d1 e2       	ldi	r29, 0x21	; 33
      ec:	de bf       	out	0x3e, r29	; 62
      ee:	cd bf       	out	0x3d, r28	; 61
      f0:	00 e0       	ldi	r16, 0x00	; 0
      f2:	0c bf       	out	0x3c, r16	; 60

000000f4 <__do_copy_data>:
      f4:	12 e0       	ldi	r17, 0x02	; 2

000000f6 <.Loc.1>:
      f6:	a0 e0       	ldi	r26, 0x00	; 0

000000f8 <.Loc.2>:
      f8:	b2 e0       	ldi	r27, 0x02	; 2

000000fa <.Loc.3>:
      fa:	e2 e8       	ldi	r30, 0x82	; 130

000000fc <.Loc.4>:
      fc:	f1 e5       	ldi	r31, 0x51	; 81

000000fe <.Loc.5>:
      fe:	00 e0       	ldi	r16, 0x00	; 0

00000100 <.Loc.6>:
     100:	0b bf       	out	0x3b, r16	; 59

00000102 <.Loc.7>:
     102:	02 c0       	rjmp	.+4      	; 0x108 <.L__do_copy_data_start>

00000104 <.L__do_copy_data_loop>:
     104:	07 90       	elpm	r0, Z+

00000106 <.Loc.9>:
     106:	0d 92       	st	X+, r0

00000108 <.L__do_copy_data_start>:
     108:	ac 31       	cpi	r26, 0x1C	; 28

0000010a <.Loc.11>:
     10a:	b1 07       	cpc	r27, r17

0000010c <.Loc.12>:
     10c:	d9 f7       	brne	.-10     	; 0x104 <.L__do_copy_data_loop>

0000010e <L0^A>:
     10e:	0e 94 a6 05 	call	0xb4c	; 0xb4c <main>
     112:	0c 94 bf 28 	jmp	0x517e	; 0x517e <_exit>

00000116 <__bad_interrupt>:
     116:	0c 94 00 00 	jmp	0	; 0x0 <__vectors>

0000011a <__vector_23>:
#include <avr/io.h>
#include <avr/interrupt.h>
#include "h_bridge.h"

ISR(TIMER0_OVF_vect)
{
     11a:	1f 92       	push	r1
     11c:	0f 92       	push	r0
     11e:	0f b6       	in	r0, 0x3f	; 63
     120:	0f 92       	push	r0
     122:	11 24       	eor	r1, r1
     124:	0b b6       	in	r0, 0x3b	; 59
     126:	0f 92       	push	r0
     128:	2f 93       	push	r18
     12a:	8f 93       	push	r24
     12c:	9f 93       	push	r25
     12e:	ef 93       	push	r30
     130:	ff 93       	push	r31
     132:	cf 93       	push	r28
     134:	df 93       	push	r29
     136:	cd b7       	in	r28, 0x3d	; 61
     138:	de b7       	in	r29, 0x3e	; 62

0000013a <.Loc.1>:
	if (OCR0A == 0 && OCR0B == 0)
     13a:	87 e4       	ldi	r24, 0x47	; 71
     13c:	90 e0       	ldi	r25, 0x00	; 0
     13e:	fc 01       	movw	r30, r24
     140:	80 81       	ld	r24, Z

00000142 <.Loc.2>:
     142:	88 23       	and	r24, r24
     144:	c9 f4       	brne	.+50     	; 0x178 <.L2>

00000146 <.Loc.3>:
     146:	88 e4       	ldi	r24, 0x48	; 72
     148:	90 e0       	ldi	r25, 0x00	; 0
     14a:	fc 01       	movw	r30, r24
     14c:	80 81       	ld	r24, Z

0000014e <.Loc.4>:
     14e:	88 23       	and	r24, r24
     150:	99 f4       	brne	.+38     	; 0x178 <.L2>

00000152 <.Loc.5>:
	{
		PORT_RPWM &= ~(1<<PIN_RPWM);
     152:	82 e0       	ldi	r24, 0x02	; 2
     154:	91 e0       	ldi	r25, 0x01	; 1
     156:	fc 01       	movw	r30, r24
     158:	20 81       	ld	r18, Z

0000015a <.Loc.6>:
     15a:	82 e0       	ldi	r24, 0x02	; 2
     15c:	91 e0       	ldi	r25, 0x01	; 1

0000015e <.Loc.7>:
     15e:	27 7f       	andi	r18, 0xF7	; 247
     160:	fc 01       	movw	r30, r24
     162:	20 83       	st	Z, r18

00000164 <.Loc.8>:
		PORT_LPWM &= ~(1<<PIN_LPWM);
     164:	82 e0       	ldi	r24, 0x02	; 2
     166:	91 e0       	ldi	r25, 0x01	; 1
     168:	fc 01       	movw	r30, r24
     16a:	20 81       	ld	r18, Z

0000016c <.Loc.9>:
     16c:	82 e0       	ldi	r24, 0x02	; 2
     16e:	91 e0       	ldi	r25, 0x01	; 1

00000170 <.Loc.10>:
     170:	2f 7e       	andi	r18, 0xEF	; 239
     172:	fc 01       	movw	r30, r24
     174:	20 83       	st	Z, r18

00000176 <.Loc.11>:
	else if (OCR0B != 0)
	{
		PORT_RPWM &= ~(1<<PIN_RPWM);
		PORT_LPWM |= (1<<PIN_LPWM);
	}
}
     176:	31 c0       	rjmp	.+98     	; 0x1da <.L5>

00000178 <.L2>:
	else if (OCR0A != 0)
     178:	87 e4       	ldi	r24, 0x47	; 71
     17a:	90 e0       	ldi	r25, 0x00	; 0
     17c:	fc 01       	movw	r30, r24
     17e:	80 81       	ld	r24, Z

00000180 <.Loc.13>:
     180:	88 23       	and	r24, r24
     182:	99 f0       	breq	.+38     	; 0x1aa <.L4>

00000184 <.Loc.14>:
		PORT_LPWM &= ~(1<<PIN_LPWM);
     184:	82 e0       	ldi	r24, 0x02	; 2
     186:	91 e0       	ldi	r25, 0x01	; 1
     188:	fc 01       	movw	r30, r24
     18a:	20 81       	ld	r18, Z

0000018c <.Loc.15>:
     18c:	82 e0       	ldi	r24, 0x02	; 2
     18e:	91 e0       	ldi	r25, 0x01	; 1

00000190 <.Loc.16>:
     190:	2f 7e       	andi	r18, 0xEF	; 239
     192:	fc 01       	movw	r30, r24
     194:	20 83       	st	Z, r18

00000196 <.Loc.17>:
		PORT_RPWM |= (1<<PIN_RPWM);
     196:	82 e0       	ldi	r24, 0x02	; 2
     198:	91 e0       	ldi	r25, 0x01	; 1
     19a:	fc 01       	movw	r30, r24
     19c:	20 81       	ld	r18, Z
     19e:	82 e0       	ldi	r24, 0x02	; 2
     1a0:	91 e0       	ldi	r25, 0x01	; 1

000001a2 <.Loc.18>:
     1a2:	28 60       	ori	r18, 0x08	; 8
     1a4:	fc 01       	movw	r30, r24
     1a6:	20 83       	st	Z, r18

000001a8 <.Loc.19>:
}
     1a8:	18 c0       	rjmp	.+48     	; 0x1da <.L5>

000001aa <.L4>:
	else if (OCR0B != 0)
     1aa:	88 e4       	ldi	r24, 0x48	; 72
     1ac:	90 e0       	ldi	r25, 0x00	; 0
     1ae:	fc 01       	movw	r30, r24
     1b0:	80 81       	ld	r24, Z

000001b2 <.Loc.21>:
     1b2:	88 23       	and	r24, r24
     1b4:	91 f0       	breq	.+36     	; 0x1da <.L5>

000001b6 <.Loc.22>:
		PORT_RPWM &= ~(1<<PIN_RPWM);
     1b6:	82 e0       	ldi	r24, 0x02	; 2
     1b8:	91 e0       	ldi	r25, 0x01	; 1
     1ba:	fc 01       	movw	r30, r24
     1bc:	20 81       	ld	r18, Z

000001be <.Loc.23>:
     1be:	82 e0       	ldi	r24, 0x02	; 2
     1c0:	91 e0       	ldi	r25, 0x01	; 1

000001c2 <.Loc.24>:
     1c2:	27 7f       	andi	r18, 0xF7	; 247
     1c4:	fc 01       	movw	r30, r24
     1c6:	20 83       	st	Z, r18

000001c8 <.Loc.25>:
		PORT_LPWM |= (1<<PIN_LPWM);
     1c8:	82 e0       	ldi	r24, 0x02	; 2
     1ca:	91 e0       	ldi	r25, 0x01	; 1
     1cc:	fc 01       	movw	r30, r24
     1ce:	20 81       	ld	r18, Z
     1d0:	82 e0       	ldi	r24, 0x02	; 2
     1d2:	91 e0       	ldi	r25, 0x01	; 1

000001d4 <.Loc.26>:
     1d4:	20 61       	ori	r18, 0x10	; 16
     1d6:	fc 01       	movw	r30, r24
     1d8:	20 83       	st	Z, r18

000001da <.L5>:
}
     1da:	00 00       	nop
     1dc:	df 91       	pop	r29
     1de:	cf 91       	pop	r28
     1e0:	ff 91       	pop	r31
     1e2:	ef 91       	pop	r30
     1e4:	9f 91       	pop	r25
     1e6:	8f 91       	pop	r24
     1e8:	2f 91       	pop	r18
     1ea:	0f 90       	pop	r0
     1ec:	0b be       	out	0x3b, r0	; 59
     1ee:	0f 90       	pop	r0
     1f0:	0f be       	out	0x3f, r0	; 63
     1f2:	0f 90       	pop	r0
     1f4:	1f 90       	pop	r1
     1f6:	18 95       	reti

000001f8 <__vector_21>:

ISR(TIMER0_COMPA_vect)
{
     1f8:	1f 92       	push	r1
     1fa:	0f 92       	push	r0
     1fc:	0f b6       	in	r0, 0x3f	; 63
     1fe:	0f 92       	push	r0
     200:	11 24       	eor	r1, r1
     202:	0b b6       	in	r0, 0x3b	; 59
     204:	0f 92       	push	r0
     206:	2f 93       	push	r18
     208:	8f 93       	push	r24
     20a:	9f 93       	push	r25
     20c:	ef 93       	push	r30
     20e:	ff 93       	push	r31
     210:	cf 93       	push	r28
     212:	df 93       	push	r29
     214:	cd b7       	in	r28, 0x3d	; 61
     216:	de b7       	in	r29, 0x3e	; 62

00000218 <.Loc.29>:
	if (OCR0A != 255)
     218:	87 e4       	ldi	r24, 0x47	; 71
     21a:	90 e0       	ldi	r25, 0x00	; 0
     21c:	fc 01       	movw	r30, r24
     21e:	80 81       	ld	r24, Z

00000220 <.Loc.30>:
     220:	8f 3f       	cpi	r24, 0xFF	; 255
     222:	49 f0       	breq	.+18     	; 0x236 <.L8>

00000224 <.Loc.31>:
	{
		PORT_RPWM &= ~(1<<PIN_RPWM);
     224:	82 e0       	ldi	r24, 0x02	; 2
     226:	91 e0       	ldi	r25, 0x01	; 1
     228:	fc 01       	movw	r30, r24
     22a:	20 81       	ld	r18, Z

0000022c <.Loc.32>:
     22c:	82 e0       	ldi	r24, 0x02	; 2
     22e:	91 e0       	ldi	r25, 0x01	; 1

00000230 <.Loc.33>:
     230:	27 7f       	andi	r18, 0xF7	; 247
     232:	fc 01       	movw	r30, r24
     234:	20 83       	st	Z, r18

00000236 <.L8>:
	}
}
     236:	00 00       	nop
     238:	df 91       	pop	r29
     23a:	cf 91       	pop	r28
     23c:	ff 91       	pop	r31
     23e:	ef 91       	pop	r30
     240:	9f 91       	pop	r25
     242:	8f 91       	pop	r24
     244:	2f 91       	pop	r18
     246:	0f 90       	pop	r0
     248:	0b be       	out	0x3b, r0	; 59
     24a:	0f 90       	pop	r0
     24c:	0f be       	out	0x3f, r0	; 63
     24e:	0f 90       	pop	r0
     250:	1f 90       	pop	r1
     252:	18 95       	reti

00000254 <__vector_22>:

ISR(TIMER0_COMPB_vect)
{
     254:	1f 92       	push	r1
     256:	0f 92       	push	r0
     258:	0f b6       	in	r0, 0x3f	; 63
     25a:	0f 92       	push	r0
     25c:	11 24       	eor	r1, r1
     25e:	0b b6       	in	r0, 0x3b	; 59
     260:	0f 92       	push	r0
     262:	2f 93       	push	r18
     264:	8f 93       	push	r24
     266:	9f 93       	push	r25
     268:	ef 93       	push	r30
     26a:	ff 93       	push	r31
     26c:	cf 93       	push	r28
     26e:	df 93       	push	r29
     270:	cd b7       	in	r28, 0x3d	; 61
     272:	de b7       	in	r29, 0x3e	; 62

00000274 <.Loc.36>:
	if (OCR0B != 255)
     274:	88 e4       	ldi	r24, 0x48	; 72
     276:	90 e0       	ldi	r25, 0x00	; 0
     278:	fc 01       	movw	r30, r24
     27a:	80 81       	ld	r24, Z

0000027c <.Loc.37>:
     27c:	8f 3f       	cpi	r24, 0xFF	; 255
     27e:	49 f0       	breq	.+18     	; 0x292 <.L11>

00000280 <.Loc.38>:
	{
		PORT_LPWM &= ~(1<<PIN_LPWM);
     280:	82 e0       	ldi	r24, 0x02	; 2
     282:	91 e0       	ldi	r25, 0x01	; 1
     284:	fc 01       	movw	r30, r24
     286:	20 81       	ld	r18, Z

00000288 <.Loc.39>:
     288:	82 e0       	ldi	r24, 0x02	; 2
     28a:	91 e0       	ldi	r25, 0x01	; 1

0000028c <.Loc.40>:
     28c:	2f 7e       	andi	r18, 0xEF	; 239
     28e:	fc 01       	movw	r30, r24
     290:	20 83       	st	Z, r18

00000292 <.L11>:
	}
}
     292:	00 00       	nop
     294:	df 91       	pop	r29
     296:	cf 91       	pop	r28
     298:	ff 91       	pop	r31
     29a:	ef 91       	pop	r30
     29c:	9f 91       	pop	r25
     29e:	8f 91       	pop	r24
     2a0:	2f 91       	pop	r18
     2a2:	0f 90       	pop	r0
     2a4:	0b be       	out	0x3b, r0	; 59
     2a6:	0f 90       	pop	r0
     2a8:	0f be       	out	0x3f, r0	; 63
     2aa:	0f 90       	pop	r0
     2ac:	1f 90       	pop	r1
     2ae:	18 95       	reti

000002b0 <init_h_bridge>:

void init_h_bridge(void)
{
     2b0:	cf 93       	push	r28
     2b2:	df 93       	push	r29
     2b4:	cd b7       	in	r28, 0x3d	; 61
     2b6:	de b7       	in	r29, 0x3e	; 62

000002b8 <.Loc.43>:
	// Config pins as output
	DDR_RPWM |= (1<<PIN_RPWM);
     2b8:	81 e0       	ldi	r24, 0x01	; 1
     2ba:	91 e0       	ldi	r25, 0x01	; 1
     2bc:	fc 01       	movw	r30, r24
     2be:	20 81       	ld	r18, Z
     2c0:	81 e0       	ldi	r24, 0x01	; 1
     2c2:	91 e0       	ldi	r25, 0x01	; 1

000002c4 <.Loc.44>:
     2c4:	28 60       	ori	r18, 0x08	; 8
     2c6:	fc 01       	movw	r30, r24
     2c8:	20 83       	st	Z, r18

000002ca <.Loc.45>:
	DDR_LPWM |= (1<<PIN_LPWM);
     2ca:	81 e0       	ldi	r24, 0x01	; 1
     2cc:	91 e0       	ldi	r25, 0x01	; 1
     2ce:	fc 01       	movw	r30, r24
     2d0:	20 81       	ld	r18, Z
     2d2:	81 e0       	ldi	r24, 0x01	; 1
     2d4:	91 e0       	ldi	r25, 0x01	; 1

000002d6 <.Loc.46>:
     2d6:	20 61       	ori	r18, 0x10	; 16
     2d8:	fc 01       	movw	r30, r24
     2da:	20 83       	st	Z, r18

000002dc <.Loc.47>:

	// Output low
	PORT_RPWM &= ~(1<<PIN_RPWM);
     2dc:	82 e0       	ldi	r24, 0x02	; 2
     2de:	91 e0       	ldi	r25, 0x01	; 1
     2e0:	fc 01       	movw	r30, r24
     2e2:	20 81       	ld	r18, Z

000002e4 <.Loc.48>:
     2e4:	82 e0       	ldi	r24, 0x02	; 2
     2e6:	91 e0       	ldi	r25, 0x01	; 1

000002e8 <.Loc.49>:
     2e8:	27 7f       	andi	r18, 0xF7	; 247
     2ea:	fc 01       	movw	r30, r24
     2ec:	20 83       	st	Z, r18

000002ee <.Loc.50>:
	PORT_LPWM &= ~(1<<PIN_LPWM);
     2ee:	82 e0       	ldi	r24, 0x02	; 2
     2f0:	91 e0       	ldi	r25, 0x01	; 1
     2f2:	fc 01       	movw	r30, r24
     2f4:	20 81       	ld	r18, Z

000002f6 <.Loc.51>:
     2f6:	82 e0       	ldi	r24, 0x02	; 2
     2f8:	91 e0       	ldi	r25, 0x01	; 1

000002fa <.Loc.52>:
     2fa:	2f 7e       	andi	r18, 0xEF	; 239
     2fc:	fc 01       	movw	r30, r24
     2fe:	20 83       	st	Z, r18

00000300 <.Loc.53>:

	// Use mode 0, clkdiv = 64
	TCCR0A = 0;
     300:	84 e4       	ldi	r24, 0x44	; 68
     302:	90 e0       	ldi	r25, 0x00	; 0

00000304 <.Loc.54>:
     304:	fc 01       	movw	r30, r24
     306:	10 82       	st	Z, r1

00000308 <.Loc.55>:
	TCCR0B = (0<<CS02) | (1<<CS01) | (1<<CS00);
     308:	85 e4       	ldi	r24, 0x45	; 69
     30a:	90 e0       	ldi	r25, 0x00	; 0

0000030c <.Loc.56>:
     30c:	23 e0       	ldi	r18, 0x03	; 3
     30e:	fc 01       	movw	r30, r24
     310:	20 83       	st	Z, r18

00000312 <.Loc.57>:

	// Disable PWM output
	OCR0A = 0;
     312:	87 e4       	ldi	r24, 0x47	; 71
     314:	90 e0       	ldi	r25, 0x00	; 0

00000316 <.Loc.58>:
     316:	fc 01       	movw	r30, r24
     318:	10 82       	st	Z, r1

0000031a <.Loc.59>:
	OCR0B = 0;
     31a:	88 e4       	ldi	r24, 0x48	; 72
     31c:	90 e0       	ldi	r25, 0x00	; 0

0000031e <.Loc.60>:
     31e:	fc 01       	movw	r30, r24
     320:	10 82       	st	Z, r1

00000322 <.Loc.61>:

	// Interrupts on OCA, OCB and OVF
	TIMSK0 = (1<<OCIE0B) | (1<<OCIE0A) | (1<<TOIE0);
     322:	8e e6       	ldi	r24, 0x6E	; 110
     324:	90 e0       	ldi	r25, 0x00	; 0

00000326 <.Loc.62>:
     326:	27 e0       	ldi	r18, 0x07	; 7
     328:	fc 01       	movw	r30, r24
     32a:	20 83       	st	Z, r18

0000032c <.Loc.63>:

	sei();
     32c:	78 94       	sei

0000032e <.Loc.64>:
}
     32e:	00 00       	nop
     330:	df 91       	pop	r29
     332:	cf 91       	pop	r28
     334:	08 95       	ret

00000336 <h_bridge_set_percentage>:

void h_bridge_set_percentage(signed char percentage)
{
     336:	cf 93       	push	r28
     338:	df 93       	push	r29
     33a:	0f 92       	push	r0
     33c:	cd b7       	in	r28, 0x3d	; 61
     33e:	de b7       	in	r29, 0x3e	; 62
     340:	89 83       	std	Y+1, r24	; 0x01

00000342 <.Loc.66>:
	if (percentage >= -100 && percentage <= 100)
     342:	89 81       	ldd	r24, Y+1	; 0x01
     344:	8c 39       	cpi	r24, 0x9C	; 156
     346:	e4 f1       	brlt	.+120    	; 0x3c0 <.L16>

00000348 <.Loc.67>:
     348:	89 81       	ldd	r24, Y+1	; 0x01
     34a:	84 36       	cpi	r24, 0x64	; 100
     34c:	09 f0       	breq	.+2      	; 0x350 <.Loc.68>

0000034e <L0^A>:
     34e:	c4 f5       	brge	.+112    	; 0x3c0 <.L16>

00000350 <.Loc.68>:
	{
		if (percentage >= 0)
     350:	89 81       	ldd	r24, Y+1	; 0x01
     352:	88 23       	and	r24, r24
     354:	dc f0       	brlt	.+54     	; 0x38c <.L15>

00000356 <.Loc.69>:
		{
			// Disable LPWM, calculate RPWM
			OCR0B = 0;
     356:	88 e4       	ldi	r24, 0x48	; 72
     358:	90 e0       	ldi	r25, 0x00	; 0

0000035a <.Loc.70>:
     35a:	fc 01       	movw	r30, r24
     35c:	10 82       	st	Z, r1

0000035e <.Loc.71>:
			OCR0A = (255*percentage)/100;
     35e:	89 81       	ldd	r24, Y+1	; 0x01
     360:	08 2e       	mov	r0, r24
     362:	00 0c       	add	r0, r0
     364:	99 0b       	sbc	r25, r25
     366:	2f ef       	ldi	r18, 0xFF	; 255
     368:	28 9f       	mul	r18, r24
     36a:	a0 01       	movw	r20, r0
     36c:	29 9f       	mul	r18, r25
     36e:	50 0d       	add	r21, r0
     370:	11 24       	eor	r1, r1

00000372 <.Loc.72>:
     372:	24 e6       	ldi	r18, 0x64	; 100
     374:	30 e0       	ldi	r19, 0x00	; 0
     376:	ca 01       	movw	r24, r20
     378:	b9 01       	movw	r22, r18
     37a:	0e 94 21 27 	call	0x4e42	; 0x4e42 <__divmodhi4>
     37e:	cb 01       	movw	r24, r22
     380:	9c 01       	movw	r18, r24

00000382 <.Loc.73>:
     382:	87 e4       	ldi	r24, 0x47	; 71
     384:	90 e0       	ldi	r25, 0x00	; 0

00000386 <.Loc.74>:
     386:	fc 01       	movw	r30, r24
     388:	20 83       	st	Z, r18

0000038a <.Loc.75>:
			// Disable RPWM, calculate LPWM
			OCR0A = 0;
			OCR0B = (255*percentage)/-100;
		}
	}
}
     38a:	1a c0       	rjmp	.+52     	; 0x3c0 <.L16>

0000038c <.L15>:
			OCR0A = 0;
     38c:	87 e4       	ldi	r24, 0x47	; 71
     38e:	90 e0       	ldi	r25, 0x00	; 0

00000390 <.Loc.77>:
     390:	fc 01       	movw	r30, r24
     392:	10 82       	st	Z, r1

00000394 <.Loc.78>:
			OCR0B = (255*percentage)/-100;
     394:	89 81       	ldd	r24, Y+1	; 0x01
     396:	08 2e       	mov	r0, r24
     398:	00 0c       	add	r0, r0
     39a:	99 0b       	sbc	r25, r25
     39c:	2f ef       	ldi	r18, 0xFF	; 255
     39e:	28 9f       	mul	r18, r24
     3a0:	a0 01       	movw	r20, r0
     3a2:	29 9f       	mul	r18, r25
     3a4:	50 0d       	add	r21, r0
     3a6:	11 24       	eor	r1, r1

000003a8 <.Loc.79>:
     3a8:	2c e9       	ldi	r18, 0x9C	; 156
     3aa:	3f ef       	ldi	r19, 0xFF	; 255
     3ac:	ca 01       	movw	r24, r20
     3ae:	b9 01       	movw	r22, r18
     3b0:	0e 94 21 27 	call	0x4e42	; 0x4e42 <__divmodhi4>
     3b4:	cb 01       	movw	r24, r22
     3b6:	9c 01       	movw	r18, r24

000003b8 <.Loc.80>:
     3b8:	88 e4       	ldi	r24, 0x48	; 72
     3ba:	90 e0       	ldi	r25, 0x00	; 0

000003bc <.Loc.81>:
     3bc:	fc 01       	movw	r30, r24
     3be:	20 83       	st	Z, r18

000003c0 <.L16>:
}
     3c0:	00 00       	nop
     3c2:	0f 90       	pop	r0
     3c4:	df 91       	pop	r29
     3c6:	cf 91       	pop	r28
     3c8:	08 95       	ret

000003ca <__vector_15>:
//#define PIN_LPWM2	PH3
//#define DDR_LPWM2	DDRH


ISR(TIMER2_OVF_vect)
{
     3ca:	1f 92       	push	r1
     3cc:	0f 92       	push	r0
     3ce:	0f b6       	in	r0, 0x3f	; 63
     3d0:	0f 92       	push	r0
     3d2:	11 24       	eor	r1, r1
     3d4:	0b b6       	in	r0, 0x3b	; 59
     3d6:	0f 92       	push	r0
     3d8:	2f 93       	push	r18
     3da:	8f 93       	push	r24
     3dc:	9f 93       	push	r25
     3de:	ef 93       	push	r30
     3e0:	ff 93       	push	r31
     3e2:	cf 93       	push	r28
     3e4:	df 93       	push	r29
     3e6:	cd b7       	in	r28, 0x3d	; 61
     3e8:	de b7       	in	r29, 0x3e	; 62

000003ea <.Loc.1>:
	if (OCR2A == 0 && OCR2B == 0)
     3ea:	83 eb       	ldi	r24, 0xB3	; 179
     3ec:	90 e0       	ldi	r25, 0x00	; 0
     3ee:	fc 01       	movw	r30, r24
     3f0:	80 81       	ld	r24, Z

000003f2 <.Loc.2>:
     3f2:	88 23       	and	r24, r24
     3f4:	c9 f4       	brne	.+50     	; 0x428 <.L2>

000003f6 <.Loc.3>:
     3f6:	84 eb       	ldi	r24, 0xB4	; 180
     3f8:	90 e0       	ldi	r25, 0x00	; 0
     3fa:	fc 01       	movw	r30, r24
     3fc:	80 81       	ld	r24, Z

000003fe <.Loc.4>:
     3fe:	88 23       	and	r24, r24
     400:	99 f4       	brne	.+38     	; 0x428 <.L2>

00000402 <.Loc.5>:
	{
		PORT_RPWM2 &= ~(1<<PIN_RPWM2);
     402:	8e e2       	ldi	r24, 0x2E	; 46
     404:	90 e0       	ldi	r25, 0x00	; 0
     406:	fc 01       	movw	r30, r24
     408:	20 81       	ld	r18, Z

0000040a <.Loc.6>:
     40a:	8e e2       	ldi	r24, 0x2E	; 46
     40c:	90 e0       	ldi	r25, 0x00	; 0

0000040e <.Loc.7>:
     40e:	27 7f       	andi	r18, 0xF7	; 247
     410:	fc 01       	movw	r30, r24
     412:	20 83       	st	Z, r18

00000414 <.Loc.8>:
		PORT_LPWM2 &= ~(1<<PIN_LPWM2);
     414:	84 e3       	ldi	r24, 0x34	; 52
     416:	90 e0       	ldi	r25, 0x00	; 0
     418:	fc 01       	movw	r30, r24
     41a:	20 81       	ld	r18, Z

0000041c <.Loc.9>:
     41c:	84 e3       	ldi	r24, 0x34	; 52
     41e:	90 e0       	ldi	r25, 0x00	; 0

00000420 <.Loc.10>:
     420:	2f 7d       	andi	r18, 0xDF	; 223
     422:	fc 01       	movw	r30, r24
     424:	20 83       	st	Z, r18

00000426 <.Loc.11>:
	else if (OCR2B != 0)
	{
		PORT_RPWM2 &= ~(1<<PIN_RPWM2);
		PORT_LPWM2 |= (1<<PIN_LPWM2);
	}
}
     426:	31 c0       	rjmp	.+98     	; 0x48a <.L5>

00000428 <.L2>:
	else if (OCR2A != 0)
     428:	83 eb       	ldi	r24, 0xB3	; 179
     42a:	90 e0       	ldi	r25, 0x00	; 0
     42c:	fc 01       	movw	r30, r24
     42e:	80 81       	ld	r24, Z

00000430 <.Loc.13>:
     430:	88 23       	and	r24, r24
     432:	99 f0       	breq	.+38     	; 0x45a <.L4>

00000434 <.Loc.14>:
		PORT_LPWM2 &= ~(1<<PIN_LPWM2);
     434:	84 e3       	ldi	r24, 0x34	; 52
     436:	90 e0       	ldi	r25, 0x00	; 0
     438:	fc 01       	movw	r30, r24
     43a:	20 81       	ld	r18, Z

0000043c <.Loc.15>:
     43c:	84 e3       	ldi	r24, 0x34	; 52
     43e:	90 e0       	ldi	r25, 0x00	; 0

00000440 <.Loc.16>:
     440:	2f 7d       	andi	r18, 0xDF	; 223
     442:	fc 01       	movw	r30, r24
     444:	20 83       	st	Z, r18

00000446 <.Loc.17>:
		PORT_RPWM2 |= (1<<PIN_RPWM2);
     446:	8e e2       	ldi	r24, 0x2E	; 46
     448:	90 e0       	ldi	r25, 0x00	; 0
     44a:	fc 01       	movw	r30, r24
     44c:	20 81       	ld	r18, Z
     44e:	8e e2       	ldi	r24, 0x2E	; 46
     450:	90 e0       	ldi	r25, 0x00	; 0

00000452 <.Loc.18>:
     452:	28 60       	ori	r18, 0x08	; 8
     454:	fc 01       	movw	r30, r24
     456:	20 83       	st	Z, r18

00000458 <.Loc.19>:
}
     458:	18 c0       	rjmp	.+48     	; 0x48a <.L5>

0000045a <.L4>:
	else if (OCR2B != 0)
     45a:	84 eb       	ldi	r24, 0xB4	; 180
     45c:	90 e0       	ldi	r25, 0x00	; 0
     45e:	fc 01       	movw	r30, r24
     460:	80 81       	ld	r24, Z

00000462 <.Loc.21>:
     462:	88 23       	and	r24, r24
     464:	91 f0       	breq	.+36     	; 0x48a <.L5>

00000466 <.Loc.22>:
		PORT_RPWM2 &= ~(1<<PIN_RPWM2);
     466:	8e e2       	ldi	r24, 0x2E	; 46
     468:	90 e0       	ldi	r25, 0x00	; 0
     46a:	fc 01       	movw	r30, r24
     46c:	20 81       	ld	r18, Z

0000046e <.Loc.23>:
     46e:	8e e2       	ldi	r24, 0x2E	; 46
     470:	90 e0       	ldi	r25, 0x00	; 0

00000472 <.Loc.24>:
     472:	27 7f       	andi	r18, 0xF7	; 247
     474:	fc 01       	movw	r30, r24
     476:	20 83       	st	Z, r18

00000478 <.Loc.25>:
		PORT_LPWM2 |= (1<<PIN_LPWM2);
     478:	84 e3       	ldi	r24, 0x34	; 52
     47a:	90 e0       	ldi	r25, 0x00	; 0
     47c:	fc 01       	movw	r30, r24
     47e:	20 81       	ld	r18, Z
     480:	84 e3       	ldi	r24, 0x34	; 52
     482:	90 e0       	ldi	r25, 0x00	; 0

00000484 <.Loc.26>:
     484:	20 62       	ori	r18, 0x20	; 32
     486:	fc 01       	movw	r30, r24
     488:	20 83       	st	Z, r18

0000048a <.L5>:
}
     48a:	00 00       	nop
     48c:	df 91       	pop	r29
     48e:	cf 91       	pop	r28
     490:	ff 91       	pop	r31
     492:	ef 91       	pop	r30
     494:	9f 91       	pop	r25
     496:	8f 91       	pop	r24
     498:	2f 91       	pop	r18
     49a:	0f 90       	pop	r0
     49c:	0b be       	out	0x3b, r0	; 59
     49e:	0f 90       	pop	r0
     4a0:	0f be       	out	0x3f, r0	; 63
     4a2:	0f 90       	pop	r0
     4a4:	1f 90       	pop	r1
     4a6:	18 95       	reti

000004a8 <__vector_13>:

ISR(TIMER2_COMPA_vect)
{
     4a8:	1f 92       	push	r1
     4aa:	0f 92       	push	r0
     4ac:	0f b6       	in	r0, 0x3f	; 63
     4ae:	0f 92       	push	r0
     4b0:	11 24       	eor	r1, r1
     4b2:	0b b6       	in	r0, 0x3b	; 59
     4b4:	0f 92       	push	r0
     4b6:	2f 93       	push	r18
     4b8:	8f 93       	push	r24
     4ba:	9f 93       	push	r25
     4bc:	ef 93       	push	r30
     4be:	ff 93       	push	r31
     4c0:	cf 93       	push	r28
     4c2:	df 93       	push	r29
     4c4:	cd b7       	in	r28, 0x3d	; 61
     4c6:	de b7       	in	r29, 0x3e	; 62

000004c8 <.Loc.29>:
	if (OCR2A != 255)
     4c8:	83 eb       	ldi	r24, 0xB3	; 179
     4ca:	90 e0       	ldi	r25, 0x00	; 0
     4cc:	fc 01       	movw	r30, r24
     4ce:	80 81       	ld	r24, Z

000004d0 <.Loc.30>:
     4d0:	8f 3f       	cpi	r24, 0xFF	; 255
     4d2:	49 f0       	breq	.+18     	; 0x4e6 <.L8>

000004d4 <.Loc.31>:
	{
		PORT_RPWM2 &= ~(1<<PIN_RPWM2);
     4d4:	8e e2       	ldi	r24, 0x2E	; 46
     4d6:	90 e0       	ldi	r25, 0x00	; 0
     4d8:	fc 01       	movw	r30, r24
     4da:	20 81       	ld	r18, Z

000004dc <.Loc.32>:
     4dc:	8e e2       	ldi	r24, 0x2E	; 46
     4de:	90 e0       	ldi	r25, 0x00	; 0

000004e0 <.Loc.33>:
     4e0:	27 7f       	andi	r18, 0xF7	; 247
     4e2:	fc 01       	movw	r30, r24
     4e4:	20 83       	st	Z, r18

000004e6 <.L8>:
	}
}
     4e6:	00 00       	nop
     4e8:	df 91       	pop	r29
     4ea:	cf 91       	pop	r28
     4ec:	ff 91       	pop	r31
     4ee:	ef 91       	pop	r30
     4f0:	9f 91       	pop	r25
     4f2:	8f 91       	pop	r24
     4f4:	2f 91       	pop	r18
     4f6:	0f 90       	pop	r0
     4f8:	0b be       	out	0x3b, r0	; 59
     4fa:	0f 90       	pop	r0
     4fc:	0f be       	out	0x3f, r0	; 63
     4fe:	0f 90       	pop	r0
     500:	1f 90       	pop	r1
     502:	18 95       	reti

00000504 <__vector_14>:

ISR(TIMER2_COMPB_vect)
{
     504:	1f 92       	push	r1
     506:	0f 92       	push	r0
     508:	0f b6       	in	r0, 0x3f	; 63
     50a:	0f 92       	push	r0
     50c:	11 24       	eor	r1, r1
     50e:	0b b6       	in	r0, 0x3b	; 59
     510:	0f 92       	push	r0
     512:	2f 93       	push	r18
     514:	8f 93       	push	r24
     516:	9f 93       	push	r25
     518:	ef 93       	push	r30
     51a:	ff 93       	push	r31
     51c:	cf 93       	push	r28
     51e:	df 93       	push	r29
     520:	cd b7       	in	r28, 0x3d	; 61
     522:	de b7       	in	r29, 0x3e	; 62

00000524 <.Loc.36>:
	if (OCR2B != 255)
     524:	84 eb       	ldi	r24, 0xB4	; 180
     526:	90 e0       	ldi	r25, 0x00	; 0
     528:	fc 01       	movw	r30, r24
     52a:	80 81       	ld	r24, Z

0000052c <.Loc.37>:
     52c:	8f 3f       	cpi	r24, 0xFF	; 255
     52e:	49 f0       	breq	.+18     	; 0x542 <.L11>

00000530 <.Loc.38>:
	{
		PORT_LPWM2 &= ~(1<<PIN_LPWM2);
     530:	84 e3       	ldi	r24, 0x34	; 52
     532:	90 e0       	ldi	r25, 0x00	; 0
     534:	fc 01       	movw	r30, r24
     536:	20 81       	ld	r18, Z

00000538 <.Loc.39>:
     538:	84 e3       	ldi	r24, 0x34	; 52
     53a:	90 e0       	ldi	r25, 0x00	; 0

0000053c <.Loc.40>:
     53c:	2f 7d       	andi	r18, 0xDF	; 223
     53e:	fc 01       	movw	r30, r24
     540:	20 83       	st	Z, r18

00000542 <.L11>:
	}
}
     542:	00 00       	nop
     544:	df 91       	pop	r29
     546:	cf 91       	pop	r28
     548:	ff 91       	pop	r31
     54a:	ef 91       	pop	r30
     54c:	9f 91       	pop	r25
     54e:	8f 91       	pop	r24
     550:	2f 91       	pop	r18
     552:	0f 90       	pop	r0
     554:	0b be       	out	0x3b, r0	; 59
     556:	0f 90       	pop	r0
     558:	0f be       	out	0x3f, r0	; 63
     55a:	0f 90       	pop	r0
     55c:	1f 90       	pop	r1
     55e:	18 95       	reti

00000560 <init_h_bridge2>:

void init_h_bridge2(void)
{
     560:	cf 93       	push	r28
     562:	df 93       	push	r29
     564:	cd b7       	in	r28, 0x3d	; 61
     566:	de b7       	in	r29, 0x3e	; 62

00000568 <.Loc.43>:
	// Config pins as output
	DDR_RPWM2 |= (1<<PIN_RPWM2);
     568:	8d e2       	ldi	r24, 0x2D	; 45
     56a:	90 e0       	ldi	r25, 0x00	; 0
     56c:	fc 01       	movw	r30, r24
     56e:	20 81       	ld	r18, Z
     570:	8d e2       	ldi	r24, 0x2D	; 45
     572:	90 e0       	ldi	r25, 0x00	; 0

00000574 <.Loc.44>:
     574:	28 60       	ori	r18, 0x08	; 8
     576:	fc 01       	movw	r30, r24
     578:	20 83       	st	Z, r18

0000057a <.Loc.45>:
	DDR_LPWM2 |= (1<<PIN_LPWM2);
     57a:	83 e3       	ldi	r24, 0x33	; 51
     57c:	90 e0       	ldi	r25, 0x00	; 0
     57e:	fc 01       	movw	r30, r24
     580:	20 81       	ld	r18, Z
     582:	83 e3       	ldi	r24, 0x33	; 51
     584:	90 e0       	ldi	r25, 0x00	; 0

00000586 <.Loc.46>:
     586:	20 62       	ori	r18, 0x20	; 32
     588:	fc 01       	movw	r30, r24
     58a:	20 83       	st	Z, r18

0000058c <.Loc.47>:

	// Output low
	PORT_RPWM2 &= ~(1<<PIN_RPWM2);
     58c:	8e e2       	ldi	r24, 0x2E	; 46
     58e:	90 e0       	ldi	r25, 0x00	; 0
     590:	fc 01       	movw	r30, r24
     592:	20 81       	ld	r18, Z

00000594 <.Loc.48>:
     594:	8e e2       	ldi	r24, 0x2E	; 46
     596:	90 e0       	ldi	r25, 0x00	; 0

00000598 <.Loc.49>:
     598:	27 7f       	andi	r18, 0xF7	; 247
     59a:	fc 01       	movw	r30, r24
     59c:	20 83       	st	Z, r18

0000059e <.Loc.50>:
	PORT_LPWM2 &= ~(1<<PIN_LPWM2);
     59e:	84 e3       	ldi	r24, 0x34	; 52
     5a0:	90 e0       	ldi	r25, 0x00	; 0
     5a2:	fc 01       	movw	r30, r24
     5a4:	20 81       	ld	r18, Z

000005a6 <.Loc.51>:
     5a6:	84 e3       	ldi	r24, 0x34	; 52
     5a8:	90 e0       	ldi	r25, 0x00	; 0

000005aa <.Loc.52>:
     5aa:	2f 7d       	andi	r18, 0xDF	; 223
     5ac:	fc 01       	movw	r30, r24
     5ae:	20 83       	st	Z, r18

000005b0 <.Loc.53>:

	// Use mode 0, clkdiv = 64
	TCCR2A = 0;
     5b0:	80 eb       	ldi	r24, 0xB0	; 176
     5b2:	90 e0       	ldi	r25, 0x00	; 0

000005b4 <.Loc.54>:
     5b4:	fc 01       	movw	r30, r24
     5b6:	10 82       	st	Z, r1

000005b8 <.Loc.55>:
	TCCR2B = (0<<CS22) | (1<<CS21) | (1<<CS20);
     5b8:	81 eb       	ldi	r24, 0xB1	; 177
     5ba:	90 e0       	ldi	r25, 0x00	; 0

000005bc <.Loc.56>:
     5bc:	23 e0       	ldi	r18, 0x03	; 3
     5be:	fc 01       	movw	r30, r24
     5c0:	20 83       	st	Z, r18

000005c2 <.Loc.57>:

	// Disable PWM output
	OCR2A = 0;
     5c2:	83 eb       	ldi	r24, 0xB3	; 179
     5c4:	90 e0       	ldi	r25, 0x00	; 0

000005c6 <.Loc.58>:
     5c6:	fc 01       	movw	r30, r24
     5c8:	10 82       	st	Z, r1

000005ca <.Loc.59>:
	OCR2B = 0;
     5ca:	84 eb       	ldi	r24, 0xB4	; 180
     5cc:	90 e0       	ldi	r25, 0x00	; 0

000005ce <.Loc.60>:
     5ce:	fc 01       	movw	r30, r24
     5d0:	10 82       	st	Z, r1

000005d2 <.Loc.61>:

	// Interrupts on OCA, OCB and OVF
	TIMSK2 = (1<<OCIE2B) | (1<<OCIE2A) | (1<<TOIE2);
     5d2:	80 e7       	ldi	r24, 0x70	; 112
     5d4:	90 e0       	ldi	r25, 0x00	; 0

000005d6 <.Loc.62>:
     5d6:	27 e0       	ldi	r18, 0x07	; 7
     5d8:	fc 01       	movw	r30, r24
     5da:	20 83       	st	Z, r18

000005dc <.Loc.63>:

	sei();
     5dc:	78 94       	sei

000005de <.Loc.64>:
}
     5de:	00 00       	nop
     5e0:	df 91       	pop	r29
     5e2:	cf 91       	pop	r28
     5e4:	08 95       	ret

000005e6 <h_bridge_set_percentage2>:

void h_bridge_set_percentage2(signed char percentage)
{
     5e6:	cf 93       	push	r28
     5e8:	df 93       	push	r29
     5ea:	0f 92       	push	r0
     5ec:	cd b7       	in	r28, 0x3d	; 61
     5ee:	de b7       	in	r29, 0x3e	; 62
     5f0:	89 83       	std	Y+1, r24	; 0x01

000005f2 <.Loc.66>:
	if (percentage >= -100 && percentage <= 100)
     5f2:	89 81       	ldd	r24, Y+1	; 0x01
     5f4:	8c 39       	cpi	r24, 0x9C	; 156
     5f6:	e4 f1       	brlt	.+120    	; 0x670 <.L16>

000005f8 <.Loc.67>:
     5f8:	89 81       	ldd	r24, Y+1	; 0x01
     5fa:	84 36       	cpi	r24, 0x64	; 100
     5fc:	09 f0       	breq	.+2      	; 0x600 <.Loc.68>

000005fe <L0^A>:
     5fe:	c4 f5       	brge	.+112    	; 0x670 <.L16>

00000600 <.Loc.68>:
	{
		if (percentage >= 0)
     600:	89 81       	ldd	r24, Y+1	; 0x01
     602:	88 23       	and	r24, r24
     604:	dc f0       	brlt	.+54     	; 0x63c <.L15>

00000606 <.Loc.69>:
		{
			// Disable LPWM, calculate RPWM
			OCR2B = 0;
     606:	84 eb       	ldi	r24, 0xB4	; 180
     608:	90 e0       	ldi	r25, 0x00	; 0

0000060a <.Loc.70>:
     60a:	fc 01       	movw	r30, r24
     60c:	10 82       	st	Z, r1

0000060e <.Loc.71>:
			OCR2A = (255*percentage)/100;
     60e:	89 81       	ldd	r24, Y+1	; 0x01
     610:	08 2e       	mov	r0, r24
     612:	00 0c       	add	r0, r0
     614:	99 0b       	sbc	r25, r25
     616:	2f ef       	ldi	r18, 0xFF	; 255
     618:	28 9f       	mul	r18, r24
     61a:	a0 01       	movw	r20, r0
     61c:	29 9f       	mul	r18, r25
     61e:	50 0d       	add	r21, r0
     620:	11 24       	eor	r1, r1

00000622 <.Loc.72>:
     622:	24 e6       	ldi	r18, 0x64	; 100
     624:	30 e0       	ldi	r19, 0x00	; 0
     626:	ca 01       	movw	r24, r20
     628:	b9 01       	movw	r22, r18
     62a:	0e 94 21 27 	call	0x4e42	; 0x4e42 <__divmodhi4>
     62e:	cb 01       	movw	r24, r22
     630:	9c 01       	movw	r18, r24

00000632 <.Loc.73>:
     632:	83 eb       	ldi	r24, 0xB3	; 179
     634:	90 e0       	ldi	r25, 0x00	; 0

00000636 <.Loc.74>:
     636:	fc 01       	movw	r30, r24
     638:	20 83       	st	Z, r18

0000063a <.Loc.75>:
			// Disable RPWM, calculate LPWM
			OCR2A = 0;
			OCR2B = (255*percentage)/-100;
		}
	}
}
     63a:	1a c0       	rjmp	.+52     	; 0x670 <.L16>

0000063c <.L15>:
			OCR2A = 0;
     63c:	83 eb       	ldi	r24, 0xB3	; 179
     63e:	90 e0       	ldi	r25, 0x00	; 0

00000640 <.Loc.77>:
     640:	fc 01       	movw	r30, r24
     642:	10 82       	st	Z, r1

00000644 <.Loc.78>:
			OCR2B = (255*percentage)/-100;
     644:	89 81       	ldd	r24, Y+1	; 0x01
     646:	08 2e       	mov	r0, r24
     648:	00 0c       	add	r0, r0
     64a:	99 0b       	sbc	r25, r25
     64c:	2f ef       	ldi	r18, 0xFF	; 255
     64e:	28 9f       	mul	r18, r24
     650:	a0 01       	movw	r20, r0
     652:	29 9f       	mul	r18, r25
     654:	50 0d       	add	r21, r0
     656:	11 24       	eor	r1, r1

00000658 <.Loc.79>:
     658:	2c e9       	ldi	r18, 0x9C	; 156
     65a:	3f ef       	ldi	r19, 0xFF	; 255
     65c:	ca 01       	movw	r24, r20
     65e:	b9 01       	movw	r22, r18
     660:	0e 94 21 27 	call	0x4e42	; 0x4e42 <__divmodhi4>
     664:	cb 01       	movw	r24, r22
     666:	9c 01       	movw	r18, r24

00000668 <.Loc.80>:
     668:	84 eb       	ldi	r24, 0xB4	; 180
     66a:	90 e0       	ldi	r25, 0x00	; 0

0000066c <.Loc.81>:
     66c:	fc 01       	movw	r30, r24
     66e:	20 83       	st	Z, r18

00000670 <.L16>:
}
     670:	00 00       	nop
     672:	0f 90       	pop	r0
     674:	df 91       	pop	r29
     676:	cf 91       	pop	r28
     678:	08 95       	ret

0000067a <__vector_20>:
#include <avr/io.h>
#include <avr/interrupt.h>
#include "h_bridge3.h"

ISR(TIMER1_OVF_vect)
{
     67a:	1f 92       	push	r1
     67c:	0f 92       	push	r0
     67e:	0f b6       	in	r0, 0x3f	; 63
     680:	0f 92       	push	r0
     682:	11 24       	eor	r1, r1
     684:	0b b6       	in	r0, 0x3b	; 59
     686:	0f 92       	push	r0
     688:	2f 93       	push	r18
     68a:	8f 93       	push	r24
     68c:	9f 93       	push	r25
     68e:	ef 93       	push	r30
     690:	ff 93       	push	r31
     692:	cf 93       	push	r28
     694:	df 93       	push	r29
     696:	cd b7       	in	r28, 0x3d	; 61
     698:	de b7       	in	r29, 0x3e	; 62

0000069a <.Loc.1>:
	if (OCR1A == 0 && OCR1B == 0)
     69a:	88 e8       	ldi	r24, 0x88	; 136
     69c:	90 e0       	ldi	r25, 0x00	; 0
     69e:	fc 01       	movw	r30, r24
     6a0:	80 81       	ld	r24, Z
     6a2:	91 81       	ldd	r25, Z+1	; 0x01

000006a4 <.Loc.2>:
     6a4:	00 97       	sbiw	r24, 0x00	; 0
     6a6:	d1 f4       	brne	.+52     	; 0x6dc <.L2>

000006a8 <.Loc.3>:
     6a8:	8a e8       	ldi	r24, 0x8A	; 138
     6aa:	90 e0       	ldi	r25, 0x00	; 0
     6ac:	fc 01       	movw	r30, r24
     6ae:	80 81       	ld	r24, Z
     6b0:	91 81       	ldd	r25, Z+1	; 0x01

000006b2 <.Loc.4>:
     6b2:	00 97       	sbiw	r24, 0x00	; 0
     6b4:	99 f4       	brne	.+38     	; 0x6dc <.L2>

000006b6 <.Loc.5>:
	{
		PORT_RPWM3 &= ~(1<<PIN_RPWM3);
     6b6:	8e e2       	ldi	r24, 0x2E	; 46
     6b8:	90 e0       	ldi	r25, 0x00	; 0
     6ba:	fc 01       	movw	r30, r24
     6bc:	20 81       	ld	r18, Z

000006be <.Loc.6>:
     6be:	8e e2       	ldi	r24, 0x2E	; 46
     6c0:	90 e0       	ldi	r25, 0x00	; 0

000006c2 <.Loc.7>:
     6c2:	2f 7d       	andi	r18, 0xDF	; 223
     6c4:	fc 01       	movw	r30, r24
     6c6:	20 83       	st	Z, r18

000006c8 <.Loc.8>:
		PORT_LPWM3 &= ~(1<<PIN_LPWM3);
     6c8:	8e e2       	ldi	r24, 0x2E	; 46
     6ca:	90 e0       	ldi	r25, 0x00	; 0
     6cc:	fc 01       	movw	r30, r24
     6ce:	20 81       	ld	r18, Z

000006d0 <.Loc.9>:
     6d0:	8e e2       	ldi	r24, 0x2E	; 46
     6d2:	90 e0       	ldi	r25, 0x00	; 0

000006d4 <.Loc.10>:
     6d4:	2f 7e       	andi	r18, 0xEF	; 239
     6d6:	fc 01       	movw	r30, r24
     6d8:	20 83       	st	Z, r18

000006da <.Loc.11>:
	else if (OCR1B != 0)
	{
		PORT_RPWM3 &= ~(1<<PIN_RPWM3);
		PORT_LPWM3 |= (1<<PIN_LPWM3);
	}
}
     6da:	33 c0       	rjmp	.+102    	; 0x742 <.L5>

000006dc <.L2>:
	else if (OCR1A != 0)
     6dc:	88 e8       	ldi	r24, 0x88	; 136
     6de:	90 e0       	ldi	r25, 0x00	; 0
     6e0:	fc 01       	movw	r30, r24
     6e2:	80 81       	ld	r24, Z
     6e4:	91 81       	ldd	r25, Z+1	; 0x01

000006e6 <.Loc.13>:
     6e6:	00 97       	sbiw	r24, 0x00	; 0
     6e8:	99 f0       	breq	.+38     	; 0x710 <.L4>

000006ea <.Loc.14>:
		PORT_LPWM3 &= ~(1<<PIN_LPWM3);
     6ea:	8e e2       	ldi	r24, 0x2E	; 46
     6ec:	90 e0       	ldi	r25, 0x00	; 0
     6ee:	fc 01       	movw	r30, r24
     6f0:	20 81       	ld	r18, Z

000006f2 <.Loc.15>:
     6f2:	8e e2       	ldi	r24, 0x2E	; 46
     6f4:	90 e0       	ldi	r25, 0x00	; 0

000006f6 <.Loc.16>:
     6f6:	2f 7e       	andi	r18, 0xEF	; 239
     6f8:	fc 01       	movw	r30, r24
     6fa:	20 83       	st	Z, r18

000006fc <.Loc.17>:
		PORT_RPWM3 |= (1<<PIN_RPWM3);
     6fc:	8e e2       	ldi	r24, 0x2E	; 46
     6fe:	90 e0       	ldi	r25, 0x00	; 0
     700:	fc 01       	movw	r30, r24
     702:	20 81       	ld	r18, Z
     704:	8e e2       	ldi	r24, 0x2E	; 46
     706:	90 e0       	ldi	r25, 0x00	; 0

00000708 <.Loc.18>:
     708:	20 62       	ori	r18, 0x20	; 32
     70a:	fc 01       	movw	r30, r24
     70c:	20 83       	st	Z, r18

0000070e <.Loc.19>:
}
     70e:	19 c0       	rjmp	.+50     	; 0x742 <.L5>

00000710 <.L4>:
	else if (OCR1B != 0)
     710:	8a e8       	ldi	r24, 0x8A	; 138
     712:	90 e0       	ldi	r25, 0x00	; 0
     714:	fc 01       	movw	r30, r24
     716:	80 81       	ld	r24, Z
     718:	91 81       	ldd	r25, Z+1	; 0x01

0000071a <.Loc.21>:
     71a:	00 97       	sbiw	r24, 0x00	; 0
     71c:	91 f0       	breq	.+36     	; 0x742 <.L5>

0000071e <.Loc.22>:
		PORT_RPWM3 &= ~(1<<PIN_RPWM3);
     71e:	8e e2       	ldi	r24, 0x2E	; 46
     720:	90 e0       	ldi	r25, 0x00	; 0
     722:	fc 01       	movw	r30, r24
     724:	20 81       	ld	r18, Z

00000726 <.Loc.23>:
     726:	8e e2       	ldi	r24, 0x2E	; 46
     728:	90 e0       	ldi	r25, 0x00	; 0

0000072a <.Loc.24>:
     72a:	2f 7d       	andi	r18, 0xDF	; 223
     72c:	fc 01       	movw	r30, r24
     72e:	20 83       	st	Z, r18

00000730 <.Loc.25>:
		PORT_LPWM3 |= (1<<PIN_LPWM3);
     730:	8e e2       	ldi	r24, 0x2E	; 46
     732:	90 e0       	ldi	r25, 0x00	; 0
     734:	fc 01       	movw	r30, r24
     736:	20 81       	ld	r18, Z
     738:	8e e2       	ldi	r24, 0x2E	; 46
     73a:	90 e0       	ldi	r25, 0x00	; 0

0000073c <.Loc.26>:
     73c:	20 61       	ori	r18, 0x10	; 16
     73e:	fc 01       	movw	r30, r24
     740:	20 83       	st	Z, r18

00000742 <.L5>:
}
     742:	00 00       	nop
     744:	df 91       	pop	r29
     746:	cf 91       	pop	r28
     748:	ff 91       	pop	r31
     74a:	ef 91       	pop	r30
     74c:	9f 91       	pop	r25
     74e:	8f 91       	pop	r24
     750:	2f 91       	pop	r18
     752:	0f 90       	pop	r0
     754:	0b be       	out	0x3b, r0	; 59
     756:	0f 90       	pop	r0
     758:	0f be       	out	0x3f, r0	; 63
     75a:	0f 90       	pop	r0
     75c:	1f 90       	pop	r1
     75e:	18 95       	reti

00000760 <__vector_17>:

ISR(TIMER1_COMPA_vect)
{
     760:	1f 92       	push	r1
     762:	0f 92       	push	r0
     764:	0f b6       	in	r0, 0x3f	; 63
     766:	0f 92       	push	r0
     768:	11 24       	eor	r1, r1
     76a:	0b b6       	in	r0, 0x3b	; 59
     76c:	0f 92       	push	r0
     76e:	2f 93       	push	r18
     770:	8f 93       	push	r24
     772:	9f 93       	push	r25
     774:	ef 93       	push	r30
     776:	ff 93       	push	r31
     778:	cf 93       	push	r28
     77a:	df 93       	push	r29
     77c:	cd b7       	in	r28, 0x3d	; 61
     77e:	de b7       	in	r29, 0x3e	; 62

00000780 <.Loc.29>:
	if (OCR1A != 65535)
     780:	88 e8       	ldi	r24, 0x88	; 136
     782:	90 e0       	ldi	r25, 0x00	; 0
     784:	fc 01       	movw	r30, r24
     786:	80 81       	ld	r24, Z
     788:	91 81       	ldd	r25, Z+1	; 0x01

0000078a <.Loc.30>:
     78a:	8f 3f       	cpi	r24, 0xFF	; 255
     78c:	98 07       	cpc	r25, r24
     78e:	49 f0       	breq	.+18     	; 0x7a2 <.L8>

00000790 <.Loc.31>:
	{
		PORT_RPWM3 &= ~(1<<PIN_RPWM3);
     790:	8e e2       	ldi	r24, 0x2E	; 46
     792:	90 e0       	ldi	r25, 0x00	; 0
     794:	fc 01       	movw	r30, r24
     796:	20 81       	ld	r18, Z

00000798 <.Loc.32>:
     798:	8e e2       	ldi	r24, 0x2E	; 46
     79a:	90 e0       	ldi	r25, 0x00	; 0

0000079c <.Loc.33>:
     79c:	2f 7d       	andi	r18, 0xDF	; 223
     79e:	fc 01       	movw	r30, r24
     7a0:	20 83       	st	Z, r18

000007a2 <.L8>:
	}
}
     7a2:	00 00       	nop
     7a4:	df 91       	pop	r29
     7a6:	cf 91       	pop	r28
     7a8:	ff 91       	pop	r31
     7aa:	ef 91       	pop	r30
     7ac:	9f 91       	pop	r25
     7ae:	8f 91       	pop	r24
     7b0:	2f 91       	pop	r18
     7b2:	0f 90       	pop	r0
     7b4:	0b be       	out	0x3b, r0	; 59
     7b6:	0f 90       	pop	r0
     7b8:	0f be       	out	0x3f, r0	; 63
     7ba:	0f 90       	pop	r0
     7bc:	1f 90       	pop	r1
     7be:	18 95       	reti

000007c0 <__vector_18>:

ISR(TIMER1_COMPB_vect)
{
     7c0:	1f 92       	push	r1
     7c2:	0f 92       	push	r0
     7c4:	0f b6       	in	r0, 0x3f	; 63
     7c6:	0f 92       	push	r0
     7c8:	11 24       	eor	r1, r1
     7ca:	0b b6       	in	r0, 0x3b	; 59
     7cc:	0f 92       	push	r0
     7ce:	2f 93       	push	r18
     7d0:	8f 93       	push	r24
     7d2:	9f 93       	push	r25
     7d4:	ef 93       	push	r30
     7d6:	ff 93       	push	r31
     7d8:	cf 93       	push	r28
     7da:	df 93       	push	r29
     7dc:	cd b7       	in	r28, 0x3d	; 61
     7de:	de b7       	in	r29, 0x3e	; 62

000007e0 <.Loc.36>:
	if (OCR1B != 65535)
     7e0:	8a e8       	ldi	r24, 0x8A	; 138
     7e2:	90 e0       	ldi	r25, 0x00	; 0
     7e4:	fc 01       	movw	r30, r24
     7e6:	80 81       	ld	r24, Z
     7e8:	91 81       	ldd	r25, Z+1	; 0x01

000007ea <.Loc.37>:
     7ea:	8f 3f       	cpi	r24, 0xFF	; 255
     7ec:	98 07       	cpc	r25, r24
     7ee:	49 f0       	breq	.+18     	; 0x802 <.L11>

000007f0 <.Loc.38>:
	{
		PORT_LPWM3 &= ~(1<<PIN_LPWM3);
     7f0:	8e e2       	ldi	r24, 0x2E	; 46
     7f2:	90 e0       	ldi	r25, 0x00	; 0
     7f4:	fc 01       	movw	r30, r24
     7f6:	20 81       	ld	r18, Z

000007f8 <.Loc.39>:
     7f8:	8e e2       	ldi	r24, 0x2E	; 46
     7fa:	90 e0       	ldi	r25, 0x00	; 0

000007fc <.Loc.40>:
     7fc:	2f 7e       	andi	r18, 0xEF	; 239
     7fe:	fc 01       	movw	r30, r24
     800:	20 83       	st	Z, r18

00000802 <.L11>:
	}
}
     802:	00 00       	nop
     804:	df 91       	pop	r29
     806:	cf 91       	pop	r28
     808:	ff 91       	pop	r31
     80a:	ef 91       	pop	r30
     80c:	9f 91       	pop	r25
     80e:	8f 91       	pop	r24
     810:	2f 91       	pop	r18
     812:	0f 90       	pop	r0
     814:	0b be       	out	0x3b, r0	; 59
     816:	0f 90       	pop	r0
     818:	0f be       	out	0x3f, r0	; 63
     81a:	0f 90       	pop	r0
     81c:	1f 90       	pop	r1
     81e:	18 95       	reti

00000820 <init_h_bridge3>:

void init_h_bridge3(void)
{
     820:	cf 93       	push	r28
     822:	df 93       	push	r29
     824:	cd b7       	in	r28, 0x3d	; 61
     826:	de b7       	in	r29, 0x3e	; 62

00000828 <.Loc.43>:
	// Config pins as output
	DDR_RPWM3 |= (1<<PIN_RPWM3);
     828:	8d e2       	ldi	r24, 0x2D	; 45
     82a:	90 e0       	ldi	r25, 0x00	; 0
     82c:	fc 01       	movw	r30, r24
     82e:	20 81       	ld	r18, Z
     830:	8d e2       	ldi	r24, 0x2D	; 45
     832:	90 e0       	ldi	r25, 0x00	; 0

00000834 <.Loc.44>:
     834:	20 62       	ori	r18, 0x20	; 32
     836:	fc 01       	movw	r30, r24
     838:	20 83       	st	Z, r18

0000083a <.Loc.45>:
	DDR_LPWM3 |= (1<<PIN_LPWM3);
     83a:	8d e2       	ldi	r24, 0x2D	; 45
     83c:	90 e0       	ldi	r25, 0x00	; 0
     83e:	fc 01       	movw	r30, r24
     840:	20 81       	ld	r18, Z
     842:	8d e2       	ldi	r24, 0x2D	; 45
     844:	90 e0       	ldi	r25, 0x00	; 0

00000846 <.Loc.46>:
     846:	20 61       	ori	r18, 0x10	; 16
     848:	fc 01       	movw	r30, r24
     84a:	20 83       	st	Z, r18

0000084c <.Loc.47>:

	// Output low
	PORT_RPWM3 &= ~(1<<PIN_RPWM3);
     84c:	8e e2       	ldi	r24, 0x2E	; 46
     84e:	90 e0       	ldi	r25, 0x00	; 0
     850:	fc 01       	movw	r30, r24
     852:	20 81       	ld	r18, Z

00000854 <.Loc.48>:
     854:	8e e2       	ldi	r24, 0x2E	; 46
     856:	90 e0       	ldi	r25, 0x00	; 0

00000858 <.Loc.49>:
     858:	2f 7d       	andi	r18, 0xDF	; 223
     85a:	fc 01       	movw	r30, r24
     85c:	20 83       	st	Z, r18

0000085e <.Loc.50>:
	PORT_LPWM3 &= ~(1<<PIN_LPWM3);
     85e:	8e e2       	ldi	r24, 0x2E	; 46
     860:	90 e0       	ldi	r25, 0x00	; 0
     862:	fc 01       	movw	r30, r24
     864:	20 81       	ld	r18, Z

00000866 <.Loc.51>:
     866:	8e e2       	ldi	r24, 0x2E	; 46
     868:	90 e0       	ldi	r25, 0x00	; 0

0000086a <.Loc.52>:
     86a:	2f 7e       	andi	r18, 0xEF	; 239
     86c:	fc 01       	movw	r30, r24
     86e:	20 83       	st	Z, r18

00000870 <.Loc.53>:

	// Use mode 0, clkdiv = 64
	TCCR1A = 0;
     870:	80 e8       	ldi	r24, 0x80	; 128
     872:	90 e0       	ldi	r25, 0x00	; 0

00000874 <.Loc.54>:
     874:	fc 01       	movw	r30, r24
     876:	10 82       	st	Z, r1

00000878 <.Loc.55>:
	TCCR1B = (0<<CS12) | (0<<CS11) | (1<<CS10);
     878:	81 e8       	ldi	r24, 0x81	; 129
     87a:	90 e0       	ldi	r25, 0x00	; 0

0000087c <.Loc.56>:
     87c:	21 e0       	ldi	r18, 0x01	; 1
     87e:	fc 01       	movw	r30, r24
     880:	20 83       	st	Z, r18

00000882 <.Loc.57>:

	// Disable PWM output
	OCR1A = 0;
     882:	88 e8       	ldi	r24, 0x88	; 136
     884:	90 e0       	ldi	r25, 0x00	; 0

00000886 <.Loc.58>:
     886:	fc 01       	movw	r30, r24
     888:	11 82       	std	Z+1, r1	; 0x01
     88a:	10 82       	st	Z, r1

0000088c <.Loc.59>:
	OCR1B = 0;
     88c:	8a e8       	ldi	r24, 0x8A	; 138
     88e:	90 e0       	ldi	r25, 0x00	; 0

00000890 <.Loc.60>:
     890:	fc 01       	movw	r30, r24
     892:	11 82       	std	Z+1, r1	; 0x01
     894:	10 82       	st	Z, r1

00000896 <.Loc.61>:

	// Interrupts on OCA, OCB and OVF
	TIMSK1 = (1<<OCIE1B) | (1<<OCIE1A) | (1<<TOIE1);
     896:	8f e6       	ldi	r24, 0x6F	; 111
     898:	90 e0       	ldi	r25, 0x00	; 0

0000089a <.Loc.62>:
     89a:	27 e0       	ldi	r18, 0x07	; 7
     89c:	fc 01       	movw	r30, r24
     89e:	20 83       	st	Z, r18

000008a0 <.Loc.63>:

	sei();
     8a0:	78 94       	sei

000008a2 <.Loc.64>:
}
     8a2:	00 00       	nop
     8a4:	df 91       	pop	r29
     8a6:	cf 91       	pop	r28
     8a8:	08 95       	ret

000008aa <h_bridge_set_percentage3>:

void h_bridge_set_percentage3(signed char percentage)
{
     8aa:	0f 93       	push	r16
     8ac:	1f 93       	push	r17
     8ae:	cf 93       	push	r28
     8b0:	df 93       	push	r29
     8b2:	00 d0       	rcall	.+0      	; 0x8b4 <L0^A>

000008b4 <L0^A>:
     8b4:	00 d0       	rcall	.+0      	; 0x8b6 <L0^A>

000008b6 <L0^A>:
     8b6:	00 d0       	rcall	.+0      	; 0x8b8 <L0^A>

000008b8 <L0^A>:
     8b8:	cd b7       	in	r28, 0x3d	; 61
     8ba:	de b7       	in	r29, 0x3e	; 62
     8bc:	89 83       	std	Y+1, r24	; 0x01

000008be <.Loc.66>:
	if (percentage >= -100 && percentage <= 100)
     8be:	89 81       	ldd	r24, Y+1	; 0x01
     8c0:	8c 39       	cpi	r24, 0x9C	; 156
     8c2:	0c f4       	brge	.+2      	; 0x8c6 <.Loc.67>

000008c4 <L0^A>:
     8c4:	61 c0       	rjmp	.+194    	; 0x988 <.L16>

000008c6 <.Loc.67>:
     8c6:	89 81       	ldd	r24, Y+1	; 0x01
     8c8:	84 36       	cpi	r24, 0x64	; 100
     8ca:	11 f0       	breq	.+4      	; 0x8d0 <.Loc.68>

000008cc <L0^A>:
     8cc:	0c f0       	brlt	.+2      	; 0x8d0 <.Loc.68>

000008ce <L0^A>:
     8ce:	5c c0       	rjmp	.+184    	; 0x988 <.L16>

000008d0 <.Loc.68>:
	{
		if (percentage >= 0)
     8d0:	89 81       	ldd	r24, Y+1	; 0x01
     8d2:	88 23       	and	r24, r24
     8d4:	6c f1       	brlt	.+90     	; 0x930 <.L15>

000008d6 <.Loc.69>:
		{
			// Disable LPWM, calculate RPWM
			OCR1B = 0;
     8d6:	8a e8       	ldi	r24, 0x8A	; 138
     8d8:	90 e0       	ldi	r25, 0x00	; 0

000008da <.Loc.70>:
     8da:	fc 01       	movw	r30, r24
     8dc:	11 82       	std	Z+1, r1	; 0x01
     8de:	10 82       	st	Z, r1

000008e0 <.Loc.71>:
			OCR1A = (65535*percentage)/100;   // 65535
     8e0:	89 81       	ldd	r24, Y+1	; 0x01
     8e2:	48 2f       	mov	r20, r24
     8e4:	88 0f       	add	r24, r24
     8e6:	55 0b       	sbc	r21, r21
     8e8:	66 0b       	sbc	r22, r22
     8ea:	77 0b       	sbc	r23, r23
     8ec:	8f ef       	ldi	r24, 0xFF	; 255
     8ee:	9f ef       	ldi	r25, 0xFF	; 255
     8f0:	dc 01       	movw	r26, r24
     8f2:	9a 01       	movw	r18, r20
     8f4:	ab 01       	movw	r20, r22
     8f6:	0e 94 54 27 	call	0x4ea8	; 0x4ea8 <__muluhisi3>
     8fa:	6a 83       	std	Y+2, r22	; 0x02
     8fc:	7b 83       	std	Y+3, r23	; 0x03
     8fe:	8c 83       	std	Y+4, r24	; 0x04
     900:	9d 83       	std	Y+5, r25	; 0x05

00000902 <.Loc.72>:
     902:	04 e6       	ldi	r16, 0x64	; 100
     904:	10 e0       	ldi	r17, 0x00	; 0
     906:	20 e0       	ldi	r18, 0x00	; 0
     908:	30 e0       	ldi	r19, 0x00	; 0
     90a:	6a 81       	ldd	r22, Y+2	; 0x02
     90c:	7b 81       	ldd	r23, Y+3	; 0x03
     90e:	8c 81       	ldd	r24, Y+4	; 0x04
     910:	9d 81       	ldd	r25, Y+5	; 0x05
     912:	a9 01       	movw	r20, r18
     914:	98 01       	movw	r18, r16
     916:	0e 94 35 27 	call	0x4e6a	; 0x4e6a <__divmodsi4>
     91a:	da 01       	movw	r26, r20
     91c:	c9 01       	movw	r24, r18
     91e:	ac 01       	movw	r20, r24
     920:	bd 01       	movw	r22, r26

00000922 <.Loc.73>:
     922:	88 e8       	ldi	r24, 0x88	; 136
     924:	90 e0       	ldi	r25, 0x00	; 0

00000926 <.Loc.74>:
     926:	9a 01       	movw	r18, r20
     928:	fc 01       	movw	r30, r24
     92a:	31 83       	std	Z+1, r19	; 0x01
     92c:	20 83       	st	Z, r18

0000092e <.Loc.75>:
			// Disable RPWM, calculate LPWM
			OCR1A = 0;
			OCR1B = (65535*percentage)/-100;  // 65535
		}
	}
}
     92e:	2c c0       	rjmp	.+88     	; 0x988 <.L16>

00000930 <.L15>:
			OCR1A = 0;
     930:	88 e8       	ldi	r24, 0x88	; 136
     932:	90 e0       	ldi	r25, 0x00	; 0

00000934 <.Loc.77>:
     934:	fc 01       	movw	r30, r24
     936:	11 82       	std	Z+1, r1	; 0x01
     938:	10 82       	st	Z, r1

0000093a <.Loc.78>:
			OCR1B = (65535*percentage)/-100;  // 65535
     93a:	89 81       	ldd	r24, Y+1	; 0x01
     93c:	48 2f       	mov	r20, r24
     93e:	88 0f       	add	r24, r24
     940:	55 0b       	sbc	r21, r21
     942:	66 0b       	sbc	r22, r22
     944:	77 0b       	sbc	r23, r23
     946:	8f ef       	ldi	r24, 0xFF	; 255
     948:	9f ef       	ldi	r25, 0xFF	; 255
     94a:	dc 01       	movw	r26, r24
     94c:	9a 01       	movw	r18, r20
     94e:	ab 01       	movw	r20, r22
     950:	0e 94 54 27 	call	0x4ea8	; 0x4ea8 <__muluhisi3>
     954:	6e 83       	std	Y+6, r22	; 0x06
     956:	7f 83       	std	Y+7, r23	; 0x07
     958:	88 87       	std	Y+8, r24	; 0x08
     95a:	99 87       	std	Y+9, r25	; 0x09

0000095c <.Loc.79>:
     95c:	0c e9       	ldi	r16, 0x9C	; 156
     95e:	1f ef       	ldi	r17, 0xFF	; 255
     960:	2f ef       	ldi	r18, 0xFF	; 255
     962:	3f ef       	ldi	r19, 0xFF	; 255
     964:	6e 81       	ldd	r22, Y+6	; 0x06
     966:	7f 81       	ldd	r23, Y+7	; 0x07
     968:	88 85       	ldd	r24, Y+8	; 0x08
     96a:	99 85       	ldd	r25, Y+9	; 0x09
     96c:	a9 01       	movw	r20, r18
     96e:	98 01       	movw	r18, r16
     970:	0e 94 35 27 	call	0x4e6a	; 0x4e6a <__divmodsi4>
     974:	da 01       	movw	r26, r20
     976:	c9 01       	movw	r24, r18
     978:	ac 01       	movw	r20, r24
     97a:	bd 01       	movw	r22, r26

0000097c <.Loc.80>:
     97c:	8a e8       	ldi	r24, 0x8A	; 138
     97e:	90 e0       	ldi	r25, 0x00	; 0

00000980 <.Loc.81>:
     980:	9a 01       	movw	r18, r20
     982:	fc 01       	movw	r30, r24
     984:	31 83       	std	Z+1, r19	; 0x01
     986:	20 83       	st	Z, r18

00000988 <.L16>:
}
     988:	00 00       	nop
     98a:	29 96       	adiw	r28, 0x09	; 9
     98c:	0f b6       	in	r0, 0x3f	; 63
     98e:	f8 94       	cli
     990:	de bf       	out	0x3e, r29	; 62
     992:	0f be       	out	0x3f, r0	; 63
     994:	cd bf       	out	0x3d, r28	; 61
     996:	df 91       	pop	r29
     998:	cf 91       	pop	r28
     99a:	1f 91       	pop	r17
     99c:	0f 91       	pop	r16
     99e:	08 95       	ret

000009a0 <init_LED>:
#include "h_bridge3.h"

#define DEBOUNCE    _delay_ms(30)

void init_LED(void)
{
     9a0:	cf 93       	push	r28
     9a2:	df 93       	push	r29
     9a4:	cd b7       	in	r28, 0x3d	; 61
     9a6:	de b7       	in	r29, 0x3e	; 62

000009a8 <.Loc.1>:
    DDRB = (1<<PB7) | (1<<PB6) | (1<<PB5);
     9a8:	84 e2       	ldi	r24, 0x24	; 36
     9aa:	90 e0       	ldi	r25, 0x00	; 0

000009ac <.Loc.2>:
     9ac:	20 ee       	ldi	r18, 0xE0	; 224
     9ae:	fc 01       	movw	r30, r24
     9b0:	20 83       	st	Z, r18

000009b2 <.Loc.3>:
    PORTB = (1<<PB7) | (1<<PB6) | (1<<PB5);
     9b2:	85 e2       	ldi	r24, 0x25	; 37
     9b4:	90 e0       	ldi	r25, 0x00	; 0

000009b6 <.Loc.4>:
     9b6:	20 ee       	ldi	r18, 0xE0	; 224
     9b8:	fc 01       	movw	r30, r24
     9ba:	20 83       	st	Z, r18

000009bc <.Loc.5>:
    DDRH |= (1<<PH5);       // D pin 8  //  relay
     9bc:	81 e0       	ldi	r24, 0x01	; 1
     9be:	91 e0       	ldi	r25, 0x01	; 1
     9c0:	fc 01       	movw	r30, r24
     9c2:	20 81       	ld	r18, Z
     9c4:	81 e0       	ldi	r24, 0x01	; 1
     9c6:	91 e0       	ldi	r25, 0x01	; 1

000009c8 <.Loc.6>:
     9c8:	20 62       	ori	r18, 0x20	; 32
     9ca:	fc 01       	movw	r30, r24
     9cc:	20 83       	st	Z, r18

000009ce <.Loc.7>:
    PORTH &= ~(1<<PH5);
     9ce:	82 e0       	ldi	r24, 0x02	; 2
     9d0:	91 e0       	ldi	r25, 0x01	; 1
     9d2:	fc 01       	movw	r30, r24
     9d4:	20 81       	ld	r18, Z

000009d6 <.Loc.8>:
     9d6:	82 e0       	ldi	r24, 0x02	; 2
     9d8:	91 e0       	ldi	r25, 0x01	; 1

000009da <.Loc.9>:
     9da:	2f 7d       	andi	r18, 0xDF	; 223
     9dc:	fc 01       	movw	r30, r24
     9de:	20 83       	st	Z, r18

000009e0 <.Loc.10>:

    // ---- bestuurings ledjes ---- //
    DDRB |= (1<<PB3) | (1<<PB2) | (1<<PB1) | (1<<PB0);                                                  // D pin 50 51 52 53 //
     9e0:	84 e2       	ldi	r24, 0x24	; 36
     9e2:	90 e0       	ldi	r25, 0x00	; 0
     9e4:	fc 01       	movw	r30, r24
     9e6:	20 81       	ld	r18, Z
     9e8:	84 e2       	ldi	r24, 0x24	; 36
     9ea:	90 e0       	ldi	r25, 0x00	; 0

000009ec <.Loc.11>:
     9ec:	2f 60       	ori	r18, 0x0F	; 15
     9ee:	fc 01       	movw	r30, r24
     9f0:	20 83       	st	Z, r18

000009f2 <.Loc.12>:
    DDRL |= (1<<PL0) | (1<<PL1) | (1<<PL2) | (1<<PL3) | (1<<PL4) | (1<<PL5) | (1<<PL6) | (1<<PL7);      // D pin 42 43 44 45 46 47 48 49 //
     9f2:	8a e0       	ldi	r24, 0x0A	; 10
     9f4:	91 e0       	ldi	r25, 0x01	; 1
     9f6:	fc 01       	movw	r30, r24
     9f8:	80 81       	ld	r24, Z
     9fa:	8a e0       	ldi	r24, 0x0A	; 10
     9fc:	91 e0       	ldi	r25, 0x01	; 1

000009fe <.Loc.13>:
     9fe:	2f ef       	ldi	r18, 0xFF	; 255
     a00:	fc 01       	movw	r30, r24
     a02:	20 83       	st	Z, r18

00000a04 <.Loc.14>:
    DDRG |= (1<<PG1) | (1<<PG0);
     a04:	83 e3       	ldi	r24, 0x33	; 51
     a06:	90 e0       	ldi	r25, 0x00	; 0
     a08:	fc 01       	movw	r30, r24
     a0a:	20 81       	ld	r18, Z
     a0c:	83 e3       	ldi	r24, 0x33	; 51
     a0e:	90 e0       	ldi	r25, 0x00	; 0

00000a10 <.Loc.15>:
     a10:	23 60       	ori	r18, 0x03	; 3
     a12:	fc 01       	movw	r30, r24
     a14:	20 83       	st	Z, r18

00000a16 <.Loc.16>:

    PORTB &= ~(1<<PB0) & ~(1<<PB1) & ~(1<<PB2) & ~(1<<PB3);
     a16:	85 e2       	ldi	r24, 0x25	; 37
     a18:	90 e0       	ldi	r25, 0x00	; 0
     a1a:	fc 01       	movw	r30, r24
     a1c:	20 81       	ld	r18, Z

00000a1e <.Loc.17>:
     a1e:	85 e2       	ldi	r24, 0x25	; 37
     a20:	90 e0       	ldi	r25, 0x00	; 0

00000a22 <.Loc.18>:
     a22:	20 7f       	andi	r18, 0xF0	; 240
     a24:	fc 01       	movw	r30, r24
     a26:	20 83       	st	Z, r18

00000a28 <.Loc.19>:
    PORTL &= ~(1<<PL0) & ~(1<<PL1) & ~(1<<PL2) & ~(1<<PL3) & ~(1<<PL4) & ~(1<<PL5) & ~(1<<PL6) & ~(1<<PL7);
     a28:	8b e0       	ldi	r24, 0x0B	; 11
     a2a:	91 e0       	ldi	r25, 0x01	; 1
     a2c:	fc 01       	movw	r30, r24
     a2e:	80 81       	ld	r24, Z
     a30:	8b e0       	ldi	r24, 0x0B	; 11
     a32:	91 e0       	ldi	r25, 0x01	; 1

00000a34 <.Loc.20>:
     a34:	fc 01       	movw	r30, r24
     a36:	10 82       	st	Z, r1

00000a38 <.Loc.21>:
    PORTG &= ~(1<<PG0) & ~(1<<PG1);
     a38:	84 e3       	ldi	r24, 0x34	; 52
     a3a:	90 e0       	ldi	r25, 0x00	; 0
     a3c:	fc 01       	movw	r30, r24
     a3e:	20 81       	ld	r18, Z

00000a40 <.Loc.22>:
     a40:	84 e3       	ldi	r24, 0x34	; 52
     a42:	90 e0       	ldi	r25, 0x00	; 0

00000a44 <.Loc.23>:
     a44:	2c 7f       	andi	r18, 0xFC	; 252
     a46:	fc 01       	movw	r30, r24
     a48:	20 83       	st	Z, r18

00000a4a <.Loc.24>:
}
     a4a:	00 00       	nop
     a4c:	df 91       	pop	r29
     a4e:	cf 91       	pop	r28
     a50:	08 95       	ret

00000a52 <init_knoppen>:

void init_knoppen(void)
{
     a52:	cf 93       	push	r28
     a54:	df 93       	push	r29
     a56:	cd b7       	in	r28, 0x3d	; 61
     a58:	de b7       	in	r29, 0x3e	; 62

00000a5a <.Loc.26>:
    /**< PH3 t/m PH6, PG5 en PE3 bezet voor de H bruggen */
    DDRF &= ~(1<<PF1);      // A pin 1  //  start knop
     a5a:	80 e3       	ldi	r24, 0x30	; 48
     a5c:	90 e0       	ldi	r25, 0x00	; 0
     a5e:	fc 01       	movw	r30, r24
     a60:	20 81       	ld	r18, Z

00000a62 <.Loc.27>:
     a62:	80 e3       	ldi	r24, 0x30	; 48
     a64:	90 e0       	ldi	r25, 0x00	; 0

00000a66 <.Loc.28>:
     a66:	2d 7f       	andi	r18, 0xFD	; 253
     a68:	fc 01       	movw	r30, r24
     a6a:	20 83       	st	Z, r18

00000a6c <.Loc.29>:
    DDRF &= ~(1<<PF2);      // A pin 2  //  reset
     a6c:	80 e3       	ldi	r24, 0x30	; 48
     a6e:	90 e0       	ldi	r25, 0x00	; 0
     a70:	fc 01       	movw	r30, r24
     a72:	20 81       	ld	r18, Z

00000a74 <.Loc.30>:
     a74:	80 e3       	ldi	r24, 0x30	; 48
     a76:	90 e0       	ldi	r25, 0x00	; 0

00000a78 <.Loc.31>:
     a78:	2b 7f       	andi	r18, 0xFB	; 251
     a7a:	fc 01       	movw	r30, r24
     a7c:	20 83       	st	Z, r18

00000a7e <.Loc.32>:
    DDRF &= ~(1<<PF3);      // A pin 3  //  noodstop
     a7e:	80 e3       	ldi	r24, 0x30	; 48
     a80:	90 e0       	ldi	r25, 0x00	; 0
     a82:	fc 01       	movw	r30, r24
     a84:	20 81       	ld	r18, Z

00000a86 <.Loc.33>:
     a86:	80 e3       	ldi	r24, 0x30	; 48
     a88:	90 e0       	ldi	r25, 0x00	; 0

00000a8a <.Loc.34>:
     a8a:	27 7f       	andi	r18, 0xF7	; 247
     a8c:	fc 01       	movw	r30, r24
     a8e:	20 83       	st	Z, r18

00000a90 <.Loc.35>:
    DDRF &= ~(1<<PF4);      // A pin 4  //  rotarie encoder rechts
     a90:	80 e3       	ldi	r24, 0x30	; 48
     a92:	90 e0       	ldi	r25, 0x00	; 0
     a94:	fc 01       	movw	r30, r24
     a96:	20 81       	ld	r18, Z

00000a98 <.Loc.36>:
     a98:	80 e3       	ldi	r24, 0x30	; 48
     a9a:	90 e0       	ldi	r25, 0x00	; 0

00000a9c <.Loc.37>:
     a9c:	2f 7e       	andi	r18, 0xEF	; 239
     a9e:	fc 01       	movw	r30, r24
     aa0:	20 83       	st	Z, r18

00000aa2 <.Loc.38>:
    DDRF &= ~(1<<PF5);      // A pin 5  //  rotarie encoder links
     aa2:	80 e3       	ldi	r24, 0x30	; 48
     aa4:	90 e0       	ldi	r25, 0x00	; 0
     aa6:	fc 01       	movw	r30, r24
     aa8:	20 81       	ld	r18, Z

00000aaa <.Loc.39>:
     aaa:	80 e3       	ldi	r24, 0x30	; 48
     aac:	90 e0       	ldi	r25, 0x00	; 0

00000aae <.Loc.40>:
     aae:	2f 7d       	andi	r18, 0xDF	; 223
     ab0:	fc 01       	movw	r30, r24
     ab2:	20 83       	st	Z, r18

00000ab4 <.Loc.41>:
    DDRK &= ~(1<<PK0);      // A pin 8  //  limit switches x-as
     ab4:	87 e0       	ldi	r24, 0x07	; 7
     ab6:	91 e0       	ldi	r25, 0x01	; 1
     ab8:	fc 01       	movw	r30, r24
     aba:	20 81       	ld	r18, Z

00000abc <.Loc.42>:
     abc:	87 e0       	ldi	r24, 0x07	; 7
     abe:	91 e0       	ldi	r25, 0x01	; 1

00000ac0 <.Loc.43>:
     ac0:	2e 7f       	andi	r18, 0xFE	; 254
     ac2:	fc 01       	movw	r30, r24
     ac4:	20 83       	st	Z, r18

00000ac6 <.Loc.44>:
    DDRK &= ~(1<<PK1);      // A pin 9  //  limit switches y-as
     ac6:	87 e0       	ldi	r24, 0x07	; 7
     ac8:	91 e0       	ldi	r25, 0x01	; 1
     aca:	fc 01       	movw	r30, r24
     acc:	20 81       	ld	r18, Z

00000ace <.Loc.45>:
     ace:	87 e0       	ldi	r24, 0x07	; 7
     ad0:	91 e0       	ldi	r25, 0x01	; 1

00000ad2 <.Loc.46>:
     ad2:	2d 7f       	andi	r18, 0xFD	; 253
     ad4:	fc 01       	movw	r30, r24
     ad6:	20 83       	st	Z, r18

00000ad8 <.Loc.47>:
    DDRK &= ~(1<<PK2);      // A pin 10 //  limit switches z-as
     ad8:	87 e0       	ldi	r24, 0x07	; 7
     ada:	91 e0       	ldi	r25, 0x01	; 1
     adc:	fc 01       	movw	r30, r24
     ade:	20 81       	ld	r18, Z

00000ae0 <.Loc.48>:
     ae0:	87 e0       	ldi	r24, 0x07	; 7
     ae2:	91 e0       	ldi	r25, 0x01	; 1

00000ae4 <.Loc.49>:
     ae4:	2b 7f       	andi	r18, 0xFB	; 251
     ae6:	fc 01       	movw	r30, r24
     ae8:	20 83       	st	Z, r18

00000aea <.Loc.50>:
    DDRK &= ~(1<<PK3);      // A pin 11 //  rotaties tellen x-as
     aea:	87 e0       	ldi	r24, 0x07	; 7
     aec:	91 e0       	ldi	r25, 0x01	; 1
     aee:	fc 01       	movw	r30, r24
     af0:	20 81       	ld	r18, Z

00000af2 <.Loc.51>:
     af2:	87 e0       	ldi	r24, 0x07	; 7
     af4:	91 e0       	ldi	r25, 0x01	; 1

00000af6 <.Loc.52>:
     af6:	27 7f       	andi	r18, 0xF7	; 247
     af8:	fc 01       	movw	r30, r24
     afa:	20 83       	st	Z, r18

00000afc <.Loc.53>:
    DDRK &= ~(1<<PK4);      // A pin 12 //  rotaties tellen y-as
     afc:	87 e0       	ldi	r24, 0x07	; 7
     afe:	91 e0       	ldi	r25, 0x01	; 1
     b00:	fc 01       	movw	r30, r24
     b02:	20 81       	ld	r18, Z

00000b04 <.Loc.54>:
     b04:	87 e0       	ldi	r24, 0x07	; 7
     b06:	91 e0       	ldi	r25, 0x01	; 1

00000b08 <.Loc.55>:
     b08:	2f 7e       	andi	r18, 0xEF	; 239
     b0a:	fc 01       	movw	r30, r24
     b0c:	20 83       	st	Z, r18

00000b0e <.Loc.56>:
    DDRK &= ~(1<<PK5);      // A pin 13 //  rotaties tellen z-as
     b0e:	87 e0       	ldi	r24, 0x07	; 7
     b10:	91 e0       	ldi	r25, 0x01	; 1
     b12:	fc 01       	movw	r30, r24
     b14:	20 81       	ld	r18, Z

00000b16 <.Loc.57>:
     b16:	87 e0       	ldi	r24, 0x07	; 7
     b18:	91 e0       	ldi	r25, 0x01	; 1

00000b1a <.Loc.58>:
     b1a:	2f 7d       	andi	r18, 0xDF	; 223
     b1c:	fc 01       	movw	r30, r24
     b1e:	20 83       	st	Z, r18

00000b20 <.Loc.59>:
}
     b20:	00 00       	nop
     b22:	df 91       	pop	r29
     b24:	cf 91       	pop	r28
     b26:	08 95       	ret

00000b28 <init>:

void init(void)
{
     b28:	cf 93       	push	r28
     b2a:	df 93       	push	r29
     b2c:	cd b7       	in	r28, 0x3d	; 61
     b2e:	de b7       	in	r29, 0x3e	; 62

00000b30 <.Loc.61>:
    init_h_bridge();        // h brug 1
     b30:	0e 94 58 01 	call	0x2b0	; 0x2b0 <init_h_bridge>

00000b34 <.Loc.62>:
    init_h_bridge2();       // h brug 2
     b34:	0e 94 b0 02 	call	0x560	; 0x560 <init_h_bridge2>

00000b38 <.Loc.63>:
    init_h_bridge3();       // h brug 3
     b38:	0e 94 10 04 	call	0x820	; 0x820 <init_h_bridge3>

00000b3c <.Loc.64>:
    init_LED();             // LEDjes
     b3c:	0e 94 d0 04 	call	0x9a0	; 0x9a0 <init_LED>

00000b40 <.Loc.65>:
    init_knoppen();         // knoppen
     b40:	0e 94 29 05 	call	0xa52	; 0xa52 <init_knoppen>

00000b44 <.Loc.66>:
}
     b44:	00 00       	nop
     b46:	df 91       	pop	r29
     b48:	cf 91       	pop	r28
     b4a:	08 95       	ret

00000b4c <main>:

int main(void)
{
     b4c:	0f 93       	push	r16
     b4e:	1f 93       	push	r17
     b50:	cf 93       	push	r28
     b52:	df 93       	push	r29
     b54:	cd b7       	in	r28, 0x3d	; 61
     b56:	de b7       	in	r29, 0x3e	; 62
     b58:	ca 5e       	subi	r28, 0xEA	; 234
     b5a:	d3 40       	sbci	r29, 0x03	; 3
     b5c:	0f b6       	in	r0, 0x3f	; 63
     b5e:	f8 94       	cli
     b60:	de bf       	out	0x3e, r29	; 62
     b62:	0f be       	out	0x3f, r0	; 63
     b64:	cd bf       	out	0x3d, r28	; 61

00000b66 <.Loc.68>:
    init();                                         // pinnen initialiseren //
     b66:	0e 94 94 05 	call	0xb28	; 0xb28 <init>

00000b6a <.Loc.69>:
    int besturingx[7] = {PB0, PB1, PB2, PB3, PL0, PL1, PL2};        // array voor de x-as ledjes
     b6a:	ce 01       	movw	r24, r28
     b6c:	81 56       	subi	r24, 0x61	; 97
     b6e:	9e 4f       	sbci	r25, 0xFE	; 254
     b70:	2e e0       	ldi	r18, 0x0E	; 14
     b72:	e0 e0       	ldi	r30, 0x00	; 0
     b74:	f2 e0       	ldi	r31, 0x02	; 2
     b76:	dc 01       	movw	r26, r24

00000b78 <.L^B1>:
     b78:	01 90       	ld	r0, Z+
     b7a:	0d 92       	st	X+, r0
     b7c:	2a 95       	dec	r18
     b7e:	e1 f7       	brne	.-8      	; 0xb78 <.L^B1>

00000b80 <.Loc.70>:
    int besturingy[7] = {PG1, PG0, PL7, PL6, PL5, PL4, PL3};        // array voor de y-as ledjes
     b80:	ce 01       	movw	r24, r28
     b82:	83 55       	subi	r24, 0x53	; 83
     b84:	9e 4f       	sbci	r25, 0xFE	; 254
     b86:	2e e0       	ldi	r18, 0x0E	; 14
     b88:	ee e0       	ldi	r30, 0x0E	; 14
     b8a:	f2 e0       	ldi	r31, 0x02	; 2
     b8c:	dc 01       	movw	r26, r24

00000b8e <.L^B2>:
     b8e:	01 90       	ld	r0, Z+
     b90:	0d 92       	st	X+, r0
     b92:	2a 95       	dec	r18
     b94:	e1 f7       	brne	.-8      	; 0xb8e <.L^B2>

00000b96 <.Loc.71>:
    int rotatiex = 0;                        // rotaties van de motor x-as //
     b96:	1a 82       	std	Y+2, r1	; 0x02
     b98:	19 82       	std	Y+1, r1	; 0x01

00000b9a <.Loc.72>:
    int rotatiey = 0;                        // rotaties van de motor y-as //
     b9a:	1c 82       	std	Y+4, r1	; 0x04
     b9c:	1b 82       	std	Y+3, r1	; 0x03

00000b9e <.Loc.73>:
    int rotariez = 0;                        // rotaties van de motor z-as //
     b9e:	1e 8a       	std	Y+22, r1	; 0x16
     ba0:	1d 8a       	std	Y+21, r1	; 0x15

00000ba2 <.Loc.74>:
    int x = 0;                               // int voor besturing x-as //
     ba2:	1e 82       	std	Y+6, r1	; 0x06
     ba4:	1d 82       	std	Y+5, r1	; 0x05

00000ba6 <.Loc.75>:
    int y = 0;                               // int voor besturing y-as //
     ba6:	18 86       	std	Y+8, r1	; 0x08
     ba8:	1f 82       	std	Y+7, r1	; 0x07

00000baa <.Loc.76>:
    int knop_ingedruktx = 1;                        // limit switch niet eerder ingedrukt x-as //
     baa:	81 e0       	ldi	r24, 0x01	; 1
     bac:	90 e0       	ldi	r25, 0x00	; 0
     bae:	9a 87       	std	Y+10, r25	; 0x0a
     bb0:	89 87       	std	Y+9, r24	; 0x09

00000bb2 <.Loc.77>:
    int knop_ingedrukty = 1;                        // limit switch niet eerder ingedrukt y-as //
     bb2:	81 e0       	ldi	r24, 0x01	; 1
     bb4:	90 e0       	ldi	r25, 0x00	; 0
     bb6:	9c 87       	std	Y+12, r25	; 0x0c
     bb8:	8b 87       	std	Y+11, r24	; 0x0b

00000bba <.Loc.78>:
    int knop_ingedruktz = 1;                        // limit switch niet eerder ingedrukt z-as //
     bba:	81 e0       	ldi	r24, 0x01	; 1
     bbc:	90 e0       	ldi	r25, 0x00	; 0
     bbe:	9e 87       	std	Y+14, r25	; 0x0e
     bc0:	8d 87       	std	Y+13, r24	; 0x0d

00000bc2 <.Loc.79>:
    int xKlaar = 0;                                 // x-as is op de juiste plek //
     bc2:	18 8a       	std	Y+16, r1	; 0x10
     bc4:	1f 86       	std	Y+15, r1	; 0x0f

00000bc6 <.Loc.80>:
    int yKlaar = 0;                                 // y-as is op de juiste plek //
     bc6:	1a 8a       	std	Y+18, r1	; 0x12
     bc8:	19 8a       	std	Y+17, r1	; 0x11

00000bca <.Loc.81>:
    int stand = 1;                                  // stand voor de switch case statement //
     bca:	81 e0       	ldi	r24, 0x01	; 1
     bcc:	90 e0       	ldi	r25, 0x00	; 0
     bce:	9c 8b       	std	Y+20, r25	; 0x14
     bd0:	8b 8b       	std	Y+19, r24	; 0x13

00000bd2 <.L276>:

    while(1)
    {
        if ((PINF & (1<<PF3)) != 0)                 // noodstop //
     bd2:	8f e2       	ldi	r24, 0x2F	; 47
     bd4:	90 e0       	ldi	r25, 0x00	; 0
     bd6:	dc 01       	movw	r26, r24
     bd8:	8c 91       	ld	r24, X

00000bda <.Loc.83>:
     bda:	88 2f       	mov	r24, r24
     bdc:	90 e0       	ldi	r25, 0x00	; 0
     bde:	88 70       	andi	r24, 0x08	; 8
     be0:	99 27       	eor	r25, r25

00000be2 <.Loc.84>:
     be2:	00 97       	sbiw	r24, 0x00	; 0
     be4:	09 f4       	brne	.+2      	; 0xbe8 <L0^A+0x2>

00000be6 <L0^A>:
     be6:	bc c0       	rjmp	.+376    	; 0xd60 <.L5>
     be8:	80 e0       	ldi	r24, 0x00	; 0
     bea:	90 e0       	ldi	r25, 0x00	; 0
     bec:	a0 ef       	ldi	r26, 0xF0	; 240
     bee:	b1 e4       	ldi	r27, 0x41	; 65
     bf0:	8f 8b       	std	Y+23, r24	; 0x17
     bf2:	98 8f       	std	Y+24, r25	; 0x18
     bf4:	a9 8f       	std	Y+25, r26	; 0x19
     bf6:	ba 8f       	std	Y+26, r27	; 0x1a

00000bf8 <.LBB175>:

	__builtin_avr_delay_cycles(__ticks_dc);

#else
	uint16_t __ticks;
	__tmp = ((F_CPU) / 4e3) * __ms;
     bf8:	20 e0       	ldi	r18, 0x00	; 0
     bfa:	30 e0       	ldi	r19, 0x00	; 0
     bfc:	4a e7       	ldi	r20, 0x7A	; 122
     bfe:	55 e4       	ldi	r21, 0x45	; 69
     c00:	6f 89       	ldd	r22, Y+23	; 0x17
     c02:	78 8d       	ldd	r23, Y+24	; 0x18
     c04:	89 8d       	ldd	r24, Y+25	; 0x19
     c06:	9a 8d       	ldd	r25, Y+26	; 0x1a
     c08:	0e 94 2a 28 	call	0x5054	; 0x5054 <__mulsf3>
     c0c:	c5 5d       	subi	r28, 0xD5	; 213
     c0e:	dd 4f       	sbci	r29, 0xFD	; 253
     c10:	68 83       	st	Y, r22
     c12:	79 83       	std	Y+1, r23	; 0x01
     c14:	8a 83       	std	Y+2, r24	; 0x02
     c16:	9b 83       	std	Y+3, r25	; 0x03
     c18:	cb 52       	subi	r28, 0x2B	; 43
     c1a:	d2 40       	sbci	r29, 0x02	; 2
     c1c:	c5 5d       	subi	r28, 0xD5	; 213
     c1e:	dd 4f       	sbci	r29, 0xFD	; 253
     c20:	88 81       	ld	r24, Y
     c22:	99 81       	ldd	r25, Y+1	; 0x01
     c24:	aa 81       	ldd	r26, Y+2	; 0x02
     c26:	bb 81       	ldd	r27, Y+3	; 0x03
     c28:	cb 52       	subi	r28, 0x2B	; 43
     c2a:	d2 40       	sbci	r29, 0x02	; 2
     c2c:	8b 8f       	std	Y+27, r24	; 0x1b
     c2e:	9c 8f       	std	Y+28, r25	; 0x1c
     c30:	ad 8f       	std	Y+29, r26	; 0x1d
     c32:	be 8f       	std	Y+30, r27	; 0x1e

00000c34 <.Loc.86>:
	if (__tmp < 1.0)
     c34:	20 e0       	ldi	r18, 0x00	; 0
     c36:	30 e0       	ldi	r19, 0x00	; 0
     c38:	40 e8       	ldi	r20, 0x80	; 128
     c3a:	5f e3       	ldi	r21, 0x3F	; 63
     c3c:	6b 8d       	ldd	r22, Y+27	; 0x1b
     c3e:	7c 8d       	ldd	r23, Y+28	; 0x1c
     c40:	8d 8d       	ldd	r24, Y+29	; 0x1d
     c42:	9e 8d       	ldd	r25, Y+30	; 0x1e
     c44:	0e 94 a4 27 	call	0x4f48	; 0x4f48 <__cmpsf2>
     c48:	88 23       	and	r24, r24
     c4a:	2c f4       	brge	.+10     	; 0xc56 <.L333>

00000c4c <.Loc.87>:
		__ticks = 1;
     c4c:	81 e0       	ldi	r24, 0x01	; 1
     c4e:	90 e0       	ldi	r25, 0x00	; 0
     c50:	98 a3       	std	Y+32, r25	; 0x20
     c52:	8f 8f       	std	Y+31, r24	; 0x1f
     c54:	76 c0       	rjmp	.+236    	; 0xd42 <.L8>

00000c56 <.L333>:
	else if (__tmp > 65535)
     c56:	20 e0       	ldi	r18, 0x00	; 0
     c58:	3f ef       	ldi	r19, 0xFF	; 255
     c5a:	4f e7       	ldi	r20, 0x7F	; 127
     c5c:	57 e4       	ldi	r21, 0x47	; 71
     c5e:	6b 8d       	ldd	r22, Y+27	; 0x1b
     c60:	7c 8d       	ldd	r23, Y+28	; 0x1c
     c62:	8d 8d       	ldd	r24, Y+29	; 0x1d
     c64:	9e 8d       	ldd	r25, Y+30	; 0x1e
     c66:	0e 94 25 28 	call	0x504a	; 0x504a <__gesf2>
     c6a:	88 23       	and	r24, r24
     c6c:	09 f0       	breq	.+2      	; 0xc70 <L0^A>

00000c6e <L0^A>:
     c6e:	0c f4       	brge	.+2      	; 0xc72 <.Loc.89>

00000c70 <L0^A>:
     c70:	52 c0       	rjmp	.+164    	; 0xd16 <.L334>

00000c72 <.Loc.89>:
	{
		//	__ticks = requested delay in 1/10 ms
		__ticks = (uint16_t) (__ms * 10.0);
     c72:	20 e0       	ldi	r18, 0x00	; 0
     c74:	30 e0       	ldi	r19, 0x00	; 0
     c76:	40 e2       	ldi	r20, 0x20	; 32
     c78:	51 e4       	ldi	r21, 0x41	; 65
     c7a:	6f 89       	ldd	r22, Y+23	; 0x17
     c7c:	78 8d       	ldd	r23, Y+24	; 0x18
     c7e:	89 8d       	ldd	r24, Y+25	; 0x19
     c80:	9a 8d       	ldd	r25, Y+26	; 0x1a
     c82:	0e 94 2a 28 	call	0x5054	; 0x5054 <__mulsf3>
     c86:	c1 5d       	subi	r28, 0xD1	; 209
     c88:	dd 4f       	sbci	r29, 0xFD	; 253
     c8a:	68 83       	st	Y, r22
     c8c:	79 83       	std	Y+1, r23	; 0x01
     c8e:	8a 83       	std	Y+2, r24	; 0x02
     c90:	9b 83       	std	Y+3, r25	; 0x03
     c92:	cf 52       	subi	r28, 0x2F	; 47
     c94:	d2 40       	sbci	r29, 0x02	; 2
     c96:	c1 5d       	subi	r28, 0xD1	; 209
     c98:	dd 4f       	sbci	r29, 0xFD	; 253
     c9a:	88 81       	ld	r24, Y
     c9c:	99 81       	ldd	r25, Y+1	; 0x01
     c9e:	aa 81       	ldd	r26, Y+2	; 0x02
     ca0:	bb 81       	ldd	r27, Y+3	; 0x03
     ca2:	cf 52       	subi	r28, 0x2F	; 47
     ca4:	d2 40       	sbci	r29, 0x02	; 2
     ca6:	c5 54       	subi	r28, 0x45	; 69
     ca8:	de 4f       	sbci	r29, 0xFE	; 254
     caa:	88 83       	st	Y, r24
     cac:	99 83       	std	Y+1, r25	; 0x01
     cae:	aa 83       	std	Y+2, r26	; 0x02
     cb0:	bb 83       	std	Y+3, r27	; 0x03
     cb2:	cb 5b       	subi	r28, 0xBB	; 187
     cb4:	d1 40       	sbci	r29, 0x01	; 1

00000cb6 <.Loc.90>:
     cb6:	c5 54       	subi	r28, 0x45	; 69
     cb8:	de 4f       	sbci	r29, 0xFE	; 254
     cba:	68 81       	ld	r22, Y
     cbc:	79 81       	ldd	r23, Y+1	; 0x01
     cbe:	8a 81       	ldd	r24, Y+2	; 0x02
     cc0:	9b 81       	ldd	r25, Y+3	; 0x03
     cc2:	cb 5b       	subi	r28, 0xBB	; 187
     cc4:	d1 40       	sbci	r29, 0x01	; 1
     cc6:	0e 94 a9 27 	call	0x4f52	; 0x4f52 <__fixunssfsi>
     cca:	cd 5c       	subi	r28, 0xCD	; 205
     ccc:	dd 4f       	sbci	r29, 0xFD	; 253
     cce:	68 83       	st	Y, r22
     cd0:	79 83       	std	Y+1, r23	; 0x01
     cd2:	8a 83       	std	Y+2, r24	; 0x02
     cd4:	9b 83       	std	Y+3, r25	; 0x03
     cd6:	c3 53       	subi	r28, 0x33	; 51
     cd8:	d2 40       	sbci	r29, 0x02	; 2
     cda:	cd 5c       	subi	r28, 0xCD	; 205
     cdc:	dd 4f       	sbci	r29, 0xFD	; 253
     cde:	a8 81       	ld	r26, Y
     ce0:	b9 81       	ldd	r27, Y+1	; 0x01
     ce2:	c3 53       	subi	r28, 0x33	; 51
     ce4:	d2 40       	sbci	r29, 0x02	; 2
     ce6:	b8 a3       	std	Y+32, r27	; 0x20
     ce8:	af 8f       	std	Y+31, r26	; 0x1f

00000cea <.Loc.91>:
		while(__ticks)
     cea:	10 c0       	rjmp	.+32     	; 0xd0c <.L11>

00000cec <.L12>:
     cec:	80 e9       	ldi	r24, 0x90	; 144
     cee:	91 e0       	ldi	r25, 0x01	; 1
     cf0:	9a a3       	std	Y+34, r25	; 0x22
     cf2:	89 a3       	std	Y+33, r24	; 0x21

00000cf4 <.LBB177>:
		"sbc %B0,__zero_reg__"    "\n\t"
		"brne 1b"
		: "+d" (__count)
	);
#else
	__asm__ volatile (
     cf4:	89 a1       	ldd	r24, Y+33	; 0x21
     cf6:	9a a1       	ldd	r25, Y+34	; 0x22

00000cf8 <.L1^B1>:
     cf8:	01 97       	sbiw	r24, 0x01	; 1
     cfa:	f1 f7       	brne	.-4      	; 0xcf8 <.L1^B1>
     cfc:	9a a3       	std	Y+34, r25	; 0x22
     cfe:	89 a3       	std	Y+33, r24	; 0x21

00000d00 <.Loc.93>:
	...

00000d02 <.LBE177>:
		{
			// wait 1/10 ms
			_delay_loop_2(((F_CPU) / 4e3) / 10);
			__ticks --;
     d02:	8f 8d       	ldd	r24, Y+31	; 0x1f
     d04:	98 a1       	ldd	r25, Y+32	; 0x20
     d06:	01 97       	sbiw	r24, 0x01	; 1
     d08:	98 a3       	std	Y+32, r25	; 0x20
     d0a:	8f 8f       	std	Y+31, r24	; 0x1f

00000d0c <.L11>:
		while(__ticks)
     d0c:	8f 8d       	ldd	r24, Y+31	; 0x1f
     d0e:	98 a1       	ldd	r25, Y+32	; 0x20
     d10:	00 97       	sbiw	r24, 0x00	; 0
     d12:	61 f7       	brne	.-40     	; 0xcec <.L12>

00000d14 <.Loc.96>:
		}
		return;
     d14:	21 c0       	rjmp	.+66     	; 0xd58 <.L13>

00000d16 <.L334>:
	}
	else
		__ticks = (uint16_t)__tmp;
     d16:	6b 8d       	ldd	r22, Y+27	; 0x1b
     d18:	7c 8d       	ldd	r23, Y+28	; 0x1c
     d1a:	8d 8d       	ldd	r24, Y+29	; 0x1d
     d1c:	9e 8d       	ldd	r25, Y+30	; 0x1e
     d1e:	0e 94 a9 27 	call	0x4f52	; 0x4f52 <__fixunssfsi>
     d22:	c9 5c       	subi	r28, 0xC9	; 201
     d24:	dd 4f       	sbci	r29, 0xFD	; 253
     d26:	68 83       	st	Y, r22
     d28:	79 83       	std	Y+1, r23	; 0x01
     d2a:	8a 83       	std	Y+2, r24	; 0x02
     d2c:	9b 83       	std	Y+3, r25	; 0x03
     d2e:	c7 53       	subi	r28, 0x37	; 55
     d30:	d2 40       	sbci	r29, 0x02	; 2
     d32:	c9 5c       	subi	r28, 0xC9	; 201
     d34:	dd 4f       	sbci	r29, 0xFD	; 253
     d36:	e8 81       	ld	r30, Y
     d38:	f9 81       	ldd	r31, Y+1	; 0x01
     d3a:	c7 53       	subi	r28, 0x37	; 55
     d3c:	d2 40       	sbci	r29, 0x02	; 2
     d3e:	f8 a3       	std	Y+32, r31	; 0x20
     d40:	ef 8f       	std	Y+31, r30	; 0x1f

00000d42 <.L8>:
     d42:	8f 8d       	ldd	r24, Y+31	; 0x1f
     d44:	98 a1       	ldd	r25, Y+32	; 0x20
     d46:	9c a3       	std	Y+36, r25	; 0x24
     d48:	8b a3       	std	Y+35, r24	; 0x23

00000d4a <.LBB179>:
     d4a:	8b a1       	ldd	r24, Y+35	; 0x23
     d4c:	9c a1       	ldd	r25, Y+36	; 0x24

00000d4e <.L1^B2>:
     d4e:	01 97       	sbiw	r24, 0x01	; 1
     d50:	f1 f7       	brne	.-4      	; 0xd4e <.L1^B2>
     d52:	9c a3       	std	Y+36, r25	; 0x24
     d54:	8b a3       	std	Y+35, r24	; 0x23

00000d56 <.Loc.99>:
	...

00000d58 <.L13>:
        {
            DEBOUNCE;
            stand = 6;                              // stand 6 is de nood toestand //
     d58:	86 e0       	ldi	r24, 0x06	; 6
     d5a:	90 e0       	ldi	r25, 0x00	; 0
     d5c:	9c 8b       	std	Y+20, r25	; 0x14
     d5e:	8b 8b       	std	Y+19, r24	; 0x13

00000d60 <.L5>:
        }

        switch(stand)
     d60:	8b 89       	ldd	r24, Y+19	; 0x13
     d62:	9c 89       	ldd	r25, Y+20	; 0x14
     d64:	86 30       	cpi	r24, 0x06	; 6
     d66:	91 05       	cpc	r25, r1
     d68:	11 f4       	brne	.+4      	; 0xd6e <L0^A+0x4>

00000d6a <L0^A>:
     d6a:	0c 94 e2 25 	jmp	0x4bc4	; 0x4bc4 <.L14>
     d6e:	8b 89       	ldd	r24, Y+19	; 0x13
     d70:	9c 89       	ldd	r25, Y+20	; 0x14
     d72:	86 30       	cpi	r24, 0x06	; 6
     d74:	91 05       	cpc	r25, r1
     d76:	11 f0       	breq	.+4      	; 0xd7c <L0^A+0x2>

00000d78 <L0^A>:
     d78:	0c f0       	brlt	.+2      	; 0xd7c <L0^A+0x2>

00000d7a <L0^A>:
     d7a:	2b cf       	rjmp	.-426    	; 0xbd2 <.L276>
     d7c:	8b 89       	ldd	r24, Y+19	; 0x13
     d7e:	9c 89       	ldd	r25, Y+20	; 0x14
     d80:	85 30       	cpi	r24, 0x05	; 5
     d82:	91 05       	cpc	r25, r1
     d84:	11 f4       	brne	.+4      	; 0xd8a <L0^A+0x4>

00000d86 <L0^A>:
     d86:	0c 94 94 23 	jmp	0x4728	; 0x4728 <.L16>
     d8a:	8b 89       	ldd	r24, Y+19	; 0x13
     d8c:	9c 89       	ldd	r25, Y+20	; 0x14
     d8e:	85 30       	cpi	r24, 0x05	; 5
     d90:	91 05       	cpc	r25, r1
     d92:	11 f0       	breq	.+4      	; 0xd98 <L0^A+0x2>

00000d94 <L0^A>:
     d94:	0c f0       	brlt	.+2      	; 0xd98 <L0^A+0x2>

00000d96 <L0^A>:
     d96:	1d cf       	rjmp	.-454    	; 0xbd2 <.L276>
     d98:	8b 89       	ldd	r24, Y+19	; 0x13
     d9a:	9c 89       	ldd	r25, Y+20	; 0x14
     d9c:	84 30       	cpi	r24, 0x04	; 4
     d9e:	91 05       	cpc	r25, r1
     da0:	11 f4       	brne	.+4      	; 0xda6 <L0^A+0x4>

00000da2 <L0^A>:
     da2:	0c 94 49 21 	jmp	0x4292	; 0x4292 <.L17>
     da6:	8b 89       	ldd	r24, Y+19	; 0x13
     da8:	9c 89       	ldd	r25, Y+20	; 0x14
     daa:	84 30       	cpi	r24, 0x04	; 4
     dac:	91 05       	cpc	r25, r1
     dae:	11 f0       	breq	.+4      	; 0xdb4 <L0^A+0x2>

00000db0 <L0^A>:
     db0:	0c f0       	brlt	.+2      	; 0xdb4 <L0^A+0x2>

00000db2 <L0^A>:
     db2:	0f cf       	rjmp	.-482    	; 0xbd2 <.L276>
     db4:	8b 89       	ldd	r24, Y+19	; 0x13
     db6:	9c 89       	ldd	r25, Y+20	; 0x14
     db8:	83 30       	cpi	r24, 0x03	; 3
     dba:	91 05       	cpc	r25, r1
     dbc:	11 f4       	brne	.+4      	; 0xdc2 <L0^A+0x4>

00000dbe <L0^A>:
     dbe:	0c 94 2a 18 	jmp	0x3054	; 0x3054 <.L18>
     dc2:	8b 89       	ldd	r24, Y+19	; 0x13
     dc4:	9c 89       	ldd	r25, Y+20	; 0x14
     dc6:	83 30       	cpi	r24, 0x03	; 3
     dc8:	91 05       	cpc	r25, r1
     dca:	11 f0       	breq	.+4      	; 0xdd0 <L0^A+0x2>

00000dcc <L0^A>:
     dcc:	0c f0       	brlt	.+2      	; 0xdd0 <L0^A+0x2>

00000dce <L0^A>:
     dce:	01 cf       	rjmp	.-510    	; 0xbd2 <.L276>
     dd0:	8b 89       	ldd	r24, Y+19	; 0x13
     dd2:	9c 89       	ldd	r25, Y+20	; 0x14
     dd4:	81 30       	cpi	r24, 0x01	; 1
     dd6:	91 05       	cpc	r25, r1
     dd8:	41 f0       	breq	.+16     	; 0xdea <.L19>
     dda:	8b 89       	ldd	r24, Y+19	; 0x13
     ddc:	9c 89       	ldd	r25, Y+20	; 0x14
     dde:	82 30       	cpi	r24, 0x02	; 2
     de0:	91 05       	cpc	r25, r1
     de2:	09 f4       	brne	.+2      	; 0xde6 <L0^A+0x2>

00000de4 <L0^A>:
     de4:	39 c7       	rjmp	.+3698   	; 0x1c58 <.L20>
     de6:	0c 94 1f 27 	jmp	0x4e3e	; 0x4e3e <.L15>

00000dea <.L19>:
        {
        case 1: // besturing x-as //
            h_bridge_set_percentage(0);
     dea:	80 e0       	ldi	r24, 0x00	; 0
     dec:	0e 94 9b 01 	call	0x336	; 0x336 <h_bridge_set_percentage>

00000df0 <.Loc.103>:
            h_bridge_set_percentage2(0);
     df0:	80 e0       	ldi	r24, 0x00	; 0
     df2:	90 e0       	ldi	r25, 0x00	; 0
     df4:	0e 94 f3 02 	call	0x5e6	; 0x5e6 <h_bridge_set_percentage2>

00000df8 <.Loc.104>:
            h_bridge_set_percentage3(0);
     df8:	80 e0       	ldi	r24, 0x00	; 0
     dfa:	90 e0       	ldi	r25, 0x00	; 0
     dfc:	0e 94 55 04 	call	0x8aa	; 0x8aa <h_bridge_set_percentage3>

00000e00 <.Loc.105>:

            if ((PINF & (1<<PF4)) != 0)
     e00:	8f e2       	ldi	r24, 0x2F	; 47
     e02:	90 e0       	ldi	r25, 0x00	; 0
     e04:	dc 01       	movw	r26, r24
     e06:	8c 91       	ld	r24, X

00000e08 <.Loc.106>:
     e08:	88 2f       	mov	r24, r24
     e0a:	90 e0       	ldi	r25, 0x00	; 0
     e0c:	80 71       	andi	r24, 0x10	; 16
     e0e:	99 27       	eor	r25, r25

00000e10 <.Loc.107>:
     e10:	00 97       	sbiw	r24, 0x00	; 0
     e12:	09 f4       	brne	.+2      	; 0xe16 <L0^A+0x2>

00000e14 <L0^A>:
     e14:	d7 c1       	rjmp	.+942    	; 0x11c4 <.L21>
     e16:	80 e0       	ldi	r24, 0x00	; 0
     e18:	90 e0       	ldi	r25, 0x00	; 0
     e1a:	a0 ef       	ldi	r26, 0xF0	; 240
     e1c:	b1 e4       	ldi	r27, 0x41	; 65
     e1e:	8d a3       	std	Y+37, r24	; 0x25
     e20:	9e a3       	std	Y+38, r25	; 0x26
     e22:	af a3       	std	Y+39, r26	; 0x27
     e24:	b8 a7       	std	Y+40, r27	; 0x28

00000e26 <.LBB182>:
	__tmp = ((F_CPU) / 4e3) * __ms;
     e26:	20 e0       	ldi	r18, 0x00	; 0
     e28:	30 e0       	ldi	r19, 0x00	; 0
     e2a:	4a e7       	ldi	r20, 0x7A	; 122
     e2c:	55 e4       	ldi	r21, 0x45	; 69
     e2e:	6d a1       	ldd	r22, Y+37	; 0x25
     e30:	7e a1       	ldd	r23, Y+38	; 0x26
     e32:	8f a1       	ldd	r24, Y+39	; 0x27
     e34:	98 a5       	ldd	r25, Y+40	; 0x28
     e36:	0e 94 2a 28 	call	0x5054	; 0x5054 <__mulsf3>
     e3a:	c5 5c       	subi	r28, 0xC5	; 197
     e3c:	dd 4f       	sbci	r29, 0xFD	; 253
     e3e:	68 83       	st	Y, r22
     e40:	79 83       	std	Y+1, r23	; 0x01
     e42:	8a 83       	std	Y+2, r24	; 0x02
     e44:	9b 83       	std	Y+3, r25	; 0x03
     e46:	cb 53       	subi	r28, 0x3B	; 59
     e48:	d2 40       	sbci	r29, 0x02	; 2
     e4a:	c5 5c       	subi	r28, 0xC5	; 197
     e4c:	dd 4f       	sbci	r29, 0xFD	; 253
     e4e:	88 81       	ld	r24, Y
     e50:	99 81       	ldd	r25, Y+1	; 0x01
     e52:	aa 81       	ldd	r26, Y+2	; 0x02
     e54:	bb 81       	ldd	r27, Y+3	; 0x03
     e56:	cb 53       	subi	r28, 0x3B	; 59
     e58:	d2 40       	sbci	r29, 0x02	; 2
     e5a:	89 a7       	std	Y+41, r24	; 0x29
     e5c:	9a a7       	std	Y+42, r25	; 0x2a
     e5e:	ab a7       	std	Y+43, r26	; 0x2b
     e60:	bc a7       	std	Y+44, r27	; 0x2c

00000e62 <.Loc.109>:
	if (__tmp < 1.0)
     e62:	20 e0       	ldi	r18, 0x00	; 0
     e64:	30 e0       	ldi	r19, 0x00	; 0
     e66:	40 e8       	ldi	r20, 0x80	; 128
     e68:	5f e3       	ldi	r21, 0x3F	; 63
     e6a:	69 a5       	ldd	r22, Y+41	; 0x29
     e6c:	7a a5       	ldd	r23, Y+42	; 0x2a
     e6e:	8b a5       	ldd	r24, Y+43	; 0x2b
     e70:	9c a5       	ldd	r25, Y+44	; 0x2c
     e72:	0e 94 a4 27 	call	0x4f48	; 0x4f48 <__cmpsf2>
     e76:	88 23       	and	r24, r24
     e78:	2c f4       	brge	.+10     	; 0xe84 <.L335>

00000e7a <.Loc.110>:
		__ticks = 1;
     e7a:	81 e0       	ldi	r24, 0x01	; 1
     e7c:	90 e0       	ldi	r25, 0x00	; 0
     e7e:	9e a7       	std	Y+46, r25	; 0x2e
     e80:	8d a7       	std	Y+45, r24	; 0x2d
     e82:	76 c0       	rjmp	.+236    	; 0xf70 <.L24>

00000e84 <.L335>:
	else if (__tmp > 65535)
     e84:	20 e0       	ldi	r18, 0x00	; 0
     e86:	3f ef       	ldi	r19, 0xFF	; 255
     e88:	4f e7       	ldi	r20, 0x7F	; 127
     e8a:	57 e4       	ldi	r21, 0x47	; 71
     e8c:	69 a5       	ldd	r22, Y+41	; 0x29
     e8e:	7a a5       	ldd	r23, Y+42	; 0x2a
     e90:	8b a5       	ldd	r24, Y+43	; 0x2b
     e92:	9c a5       	ldd	r25, Y+44	; 0x2c
     e94:	0e 94 25 28 	call	0x504a	; 0x504a <__gesf2>
     e98:	88 23       	and	r24, r24
     e9a:	09 f0       	breq	.+2      	; 0xe9e <L0^A>

00000e9c <L0^A>:
     e9c:	0c f4       	brge	.+2      	; 0xea0 <.Loc.112>

00000e9e <L0^A>:
     e9e:	52 c0       	rjmp	.+164    	; 0xf44 <.L336>

00000ea0 <.Loc.112>:
		__ticks = (uint16_t) (__ms * 10.0);
     ea0:	20 e0       	ldi	r18, 0x00	; 0
     ea2:	30 e0       	ldi	r19, 0x00	; 0
     ea4:	40 e2       	ldi	r20, 0x20	; 32
     ea6:	51 e4       	ldi	r21, 0x41	; 65
     ea8:	6d a1       	ldd	r22, Y+37	; 0x25
     eaa:	7e a1       	ldd	r23, Y+38	; 0x26
     eac:	8f a1       	ldd	r24, Y+39	; 0x27
     eae:	98 a5       	ldd	r25, Y+40	; 0x28
     eb0:	0e 94 2a 28 	call	0x5054	; 0x5054 <__mulsf3>
     eb4:	c1 5c       	subi	r28, 0xC1	; 193
     eb6:	dd 4f       	sbci	r29, 0xFD	; 253
     eb8:	68 83       	st	Y, r22
     eba:	79 83       	std	Y+1, r23	; 0x01
     ebc:	8a 83       	std	Y+2, r24	; 0x02
     ebe:	9b 83       	std	Y+3, r25	; 0x03
     ec0:	cf 53       	subi	r28, 0x3F	; 63
     ec2:	d2 40       	sbci	r29, 0x02	; 2
     ec4:	c1 5c       	subi	r28, 0xC1	; 193
     ec6:	dd 4f       	sbci	r29, 0xFD	; 253
     ec8:	88 81       	ld	r24, Y
     eca:	99 81       	ldd	r25, Y+1	; 0x01
     ecc:	aa 81       	ldd	r26, Y+2	; 0x02
     ece:	bb 81       	ldd	r27, Y+3	; 0x03
     ed0:	cf 53       	subi	r28, 0x3F	; 63
     ed2:	d2 40       	sbci	r29, 0x02	; 2
     ed4:	c1 54       	subi	r28, 0x41	; 65
     ed6:	de 4f       	sbci	r29, 0xFE	; 254
     ed8:	88 83       	st	Y, r24
     eda:	99 83       	std	Y+1, r25	; 0x01
     edc:	aa 83       	std	Y+2, r26	; 0x02
     ede:	bb 83       	std	Y+3, r27	; 0x03
     ee0:	cf 5b       	subi	r28, 0xBF	; 191
     ee2:	d1 40       	sbci	r29, 0x01	; 1

00000ee4 <.Loc.113>:
     ee4:	c1 54       	subi	r28, 0x41	; 65
     ee6:	de 4f       	sbci	r29, 0xFE	; 254
     ee8:	68 81       	ld	r22, Y
     eea:	79 81       	ldd	r23, Y+1	; 0x01
     eec:	8a 81       	ldd	r24, Y+2	; 0x02
     eee:	9b 81       	ldd	r25, Y+3	; 0x03
     ef0:	cf 5b       	subi	r28, 0xBF	; 191
     ef2:	d1 40       	sbci	r29, 0x01	; 1
     ef4:	0e 94 a9 27 	call	0x4f52	; 0x4f52 <__fixunssfsi>
     ef8:	cd 5b       	subi	r28, 0xBD	; 189
     efa:	dd 4f       	sbci	r29, 0xFD	; 253
     efc:	68 83       	st	Y, r22
     efe:	79 83       	std	Y+1, r23	; 0x01
     f00:	8a 83       	std	Y+2, r24	; 0x02
     f02:	9b 83       	std	Y+3, r25	; 0x03
     f04:	c3 54       	subi	r28, 0x43	; 67
     f06:	d2 40       	sbci	r29, 0x02	; 2
     f08:	cd 5b       	subi	r28, 0xBD	; 189
     f0a:	dd 4f       	sbci	r29, 0xFD	; 253
     f0c:	a8 81       	ld	r26, Y
     f0e:	b9 81       	ldd	r27, Y+1	; 0x01
     f10:	c3 54       	subi	r28, 0x43	; 67
     f12:	d2 40       	sbci	r29, 0x02	; 2
     f14:	be a7       	std	Y+46, r27	; 0x2e
     f16:	ad a7       	std	Y+45, r26	; 0x2d

00000f18 <.Loc.114>:
		while(__ticks)
     f18:	10 c0       	rjmp	.+32     	; 0xf3a <.L27>

00000f1a <.L28>:
     f1a:	80 e9       	ldi	r24, 0x90	; 144
     f1c:	91 e0       	ldi	r25, 0x01	; 1
     f1e:	98 ab       	std	Y+48, r25	; 0x30
     f20:	8f a7       	std	Y+47, r24	; 0x2f

00000f22 <.LBB184>:
     f22:	8f a5       	ldd	r24, Y+47	; 0x2f
     f24:	98 a9       	ldd	r25, Y+48	; 0x30

00000f26 <.L1^B3>:
     f26:	01 97       	sbiw	r24, 0x01	; 1
     f28:	f1 f7       	brne	.-4      	; 0xf26 <.L1^B3>
     f2a:	98 ab       	std	Y+48, r25	; 0x30
     f2c:	8f a7       	std	Y+47, r24	; 0x2f

00000f2e <.Loc.116>:
	...

00000f30 <.LBE184>:
			__ticks --;
     f30:	8d a5       	ldd	r24, Y+45	; 0x2d
     f32:	9e a5       	ldd	r25, Y+46	; 0x2e
     f34:	01 97       	sbiw	r24, 0x01	; 1
     f36:	9e a7       	std	Y+46, r25	; 0x2e
     f38:	8d a7       	std	Y+45, r24	; 0x2d

00000f3a <.L27>:
		while(__ticks)
     f3a:	8d a5       	ldd	r24, Y+45	; 0x2d
     f3c:	9e a5       	ldd	r25, Y+46	; 0x2e
     f3e:	00 97       	sbiw	r24, 0x00	; 0
     f40:	61 f7       	brne	.-40     	; 0xf1a <.L28>

00000f42 <.Loc.119>:
		return;
     f42:	21 c0       	rjmp	.+66     	; 0xf86 <.L29>

00000f44 <.L336>:
		__ticks = (uint16_t)__tmp;
     f44:	69 a5       	ldd	r22, Y+41	; 0x29
     f46:	7a a5       	ldd	r23, Y+42	; 0x2a
     f48:	8b a5       	ldd	r24, Y+43	; 0x2b
     f4a:	9c a5       	ldd	r25, Y+44	; 0x2c
     f4c:	0e 94 a9 27 	call	0x4f52	; 0x4f52 <__fixunssfsi>
     f50:	c9 5b       	subi	r28, 0xB9	; 185
     f52:	dd 4f       	sbci	r29, 0xFD	; 253
     f54:	68 83       	st	Y, r22
     f56:	79 83       	std	Y+1, r23	; 0x01
     f58:	8a 83       	std	Y+2, r24	; 0x02
     f5a:	9b 83       	std	Y+3, r25	; 0x03
     f5c:	c7 54       	subi	r28, 0x47	; 71
     f5e:	d2 40       	sbci	r29, 0x02	; 2
     f60:	c9 5b       	subi	r28, 0xB9	; 185
     f62:	dd 4f       	sbci	r29, 0xFD	; 253
     f64:	e8 81       	ld	r30, Y
     f66:	f9 81       	ldd	r31, Y+1	; 0x01
     f68:	c7 54       	subi	r28, 0x47	; 71
     f6a:	d2 40       	sbci	r29, 0x02	; 2
     f6c:	fe a7       	std	Y+46, r31	; 0x2e
     f6e:	ed a7       	std	Y+45, r30	; 0x2d

00000f70 <.L24>:
     f70:	8d a5       	ldd	r24, Y+45	; 0x2d
     f72:	9e a5       	ldd	r25, Y+46	; 0x2e
     f74:	9a ab       	std	Y+50, r25	; 0x32
     f76:	89 ab       	std	Y+49, r24	; 0x31

00000f78 <.LBB186>:
     f78:	89 a9       	ldd	r24, Y+49	; 0x31
     f7a:	9a a9       	ldd	r25, Y+50	; 0x32

00000f7c <.L1^B4>:
     f7c:	01 97       	sbiw	r24, 0x01	; 1
     f7e:	f1 f7       	brne	.-4      	; 0xf7c <.L1^B4>
     f80:	9a ab       	std	Y+50, r25	; 0x32
     f82:	89 ab       	std	Y+49, r24	; 0x31

00000f84 <.Loc.122>:
	...

00000f86 <.L29>:
            {
                DEBOUNCE;
                if ((PINF & (1<<PF4)) == 0)
     f86:	8f e2       	ldi	r24, 0x2F	; 47
     f88:	90 e0       	ldi	r25, 0x00	; 0
     f8a:	dc 01       	movw	r26, r24
     f8c:	8c 91       	ld	r24, X

00000f8e <.Loc.124>:
     f8e:	88 2f       	mov	r24, r24
     f90:	90 e0       	ldi	r25, 0x00	; 0
     f92:	80 71       	andi	r24, 0x10	; 16
     f94:	99 27       	eor	r25, r25

00000f96 <.Loc.125>:
     f96:	00 97       	sbiw	r24, 0x00	; 0
     f98:	09 f0       	breq	.+2      	; 0xf9c <L0^A+0x2>

00000f9a <L0^A>:
     f9a:	14 c1       	rjmp	.+552    	; 0x11c4 <.L21>
     f9c:	80 e0       	ldi	r24, 0x00	; 0
     f9e:	90 e0       	ldi	r25, 0x00	; 0
     fa0:	a0 ef       	ldi	r26, 0xF0	; 240
     fa2:	b1 e4       	ldi	r27, 0x41	; 65
     fa4:	8b ab       	std	Y+51, r24	; 0x33
     fa6:	9c ab       	std	Y+52, r25	; 0x34
     fa8:	ad ab       	std	Y+53, r26	; 0x35
     faa:	be ab       	std	Y+54, r27	; 0x36

00000fac <.LBB188>:
	__tmp = ((F_CPU) / 4e3) * __ms;
     fac:	20 e0       	ldi	r18, 0x00	; 0
     fae:	30 e0       	ldi	r19, 0x00	; 0
     fb0:	4a e7       	ldi	r20, 0x7A	; 122
     fb2:	55 e4       	ldi	r21, 0x45	; 69
     fb4:	6b a9       	ldd	r22, Y+51	; 0x33
     fb6:	7c a9       	ldd	r23, Y+52	; 0x34
     fb8:	8d a9       	ldd	r24, Y+53	; 0x35
     fba:	9e a9       	ldd	r25, Y+54	; 0x36
     fbc:	0e 94 2a 28 	call	0x5054	; 0x5054 <__mulsf3>
     fc0:	c5 5b       	subi	r28, 0xB5	; 181
     fc2:	dd 4f       	sbci	r29, 0xFD	; 253
     fc4:	68 83       	st	Y, r22
     fc6:	79 83       	std	Y+1, r23	; 0x01
     fc8:	8a 83       	std	Y+2, r24	; 0x02
     fca:	9b 83       	std	Y+3, r25	; 0x03
     fcc:	cb 54       	subi	r28, 0x4B	; 75
     fce:	d2 40       	sbci	r29, 0x02	; 2
     fd0:	c5 5b       	subi	r28, 0xB5	; 181
     fd2:	dd 4f       	sbci	r29, 0xFD	; 253
     fd4:	88 81       	ld	r24, Y
     fd6:	99 81       	ldd	r25, Y+1	; 0x01
     fd8:	aa 81       	ldd	r26, Y+2	; 0x02
     fda:	bb 81       	ldd	r27, Y+3	; 0x03
     fdc:	cb 54       	subi	r28, 0x4B	; 75
     fde:	d2 40       	sbci	r29, 0x02	; 2
     fe0:	8f ab       	std	Y+55, r24	; 0x37
     fe2:	98 af       	std	Y+56, r25	; 0x38
     fe4:	a9 af       	std	Y+57, r26	; 0x39
     fe6:	ba af       	std	Y+58, r27	; 0x3a

00000fe8 <.Loc.127>:
	if (__tmp < 1.0)
     fe8:	20 e0       	ldi	r18, 0x00	; 0
     fea:	30 e0       	ldi	r19, 0x00	; 0
     fec:	40 e8       	ldi	r20, 0x80	; 128
     fee:	5f e3       	ldi	r21, 0x3F	; 63
     ff0:	6f a9       	ldd	r22, Y+55	; 0x37
     ff2:	78 ad       	ldd	r23, Y+56	; 0x38
     ff4:	89 ad       	ldd	r24, Y+57	; 0x39
     ff6:	9a ad       	ldd	r25, Y+58	; 0x3a
     ff8:	0e 94 a4 27 	call	0x4f48	; 0x4f48 <__cmpsf2>
     ffc:	88 23       	and	r24, r24
     ffe:	2c f4       	brge	.+10     	; 0x100a <.L337>

00001000 <.Loc.128>:
		__ticks = 1;
    1000:	81 e0       	ldi	r24, 0x01	; 1
    1002:	90 e0       	ldi	r25, 0x00	; 0
    1004:	9c af       	std	Y+60, r25	; 0x3c
    1006:	8b af       	std	Y+59, r24	; 0x3b
    1008:	76 c0       	rjmp	.+236    	; 0x10f6 <.L32>

0000100a <.L337>:
	else if (__tmp > 65535)
    100a:	20 e0       	ldi	r18, 0x00	; 0
    100c:	3f ef       	ldi	r19, 0xFF	; 255
    100e:	4f e7       	ldi	r20, 0x7F	; 127
    1010:	57 e4       	ldi	r21, 0x47	; 71
    1012:	6f a9       	ldd	r22, Y+55	; 0x37
    1014:	78 ad       	ldd	r23, Y+56	; 0x38
    1016:	89 ad       	ldd	r24, Y+57	; 0x39
    1018:	9a ad       	ldd	r25, Y+58	; 0x3a
    101a:	0e 94 25 28 	call	0x504a	; 0x504a <__gesf2>
    101e:	88 23       	and	r24, r24
    1020:	09 f0       	breq	.+2      	; 0x1024 <L0^A>

00001022 <L0^A>:
    1022:	0c f4       	brge	.+2      	; 0x1026 <.Loc.130>

00001024 <L0^A>:
    1024:	52 c0       	rjmp	.+164    	; 0x10ca <.L338>

00001026 <.Loc.130>:
		__ticks = (uint16_t) (__ms * 10.0);
    1026:	20 e0       	ldi	r18, 0x00	; 0
    1028:	30 e0       	ldi	r19, 0x00	; 0
    102a:	40 e2       	ldi	r20, 0x20	; 32
    102c:	51 e4       	ldi	r21, 0x41	; 65
    102e:	6b a9       	ldd	r22, Y+51	; 0x33
    1030:	7c a9       	ldd	r23, Y+52	; 0x34
    1032:	8d a9       	ldd	r24, Y+53	; 0x35
    1034:	9e a9       	ldd	r25, Y+54	; 0x36
    1036:	0e 94 2a 28 	call	0x5054	; 0x5054 <__mulsf3>
    103a:	c1 5b       	subi	r28, 0xB1	; 177
    103c:	dd 4f       	sbci	r29, 0xFD	; 253
    103e:	68 83       	st	Y, r22
    1040:	79 83       	std	Y+1, r23	; 0x01
    1042:	8a 83       	std	Y+2, r24	; 0x02
    1044:	9b 83       	std	Y+3, r25	; 0x03
    1046:	cf 54       	subi	r28, 0x4F	; 79
    1048:	d2 40       	sbci	r29, 0x02	; 2
    104a:	c1 5b       	subi	r28, 0xB1	; 177
    104c:	dd 4f       	sbci	r29, 0xFD	; 253
    104e:	88 81       	ld	r24, Y
    1050:	99 81       	ldd	r25, Y+1	; 0x01
    1052:	aa 81       	ldd	r26, Y+2	; 0x02
    1054:	bb 81       	ldd	r27, Y+3	; 0x03
    1056:	cf 54       	subi	r28, 0x4F	; 79
    1058:	d2 40       	sbci	r29, 0x02	; 2
    105a:	cd 53       	subi	r28, 0x3D	; 61
    105c:	de 4f       	sbci	r29, 0xFE	; 254
    105e:	88 83       	st	Y, r24
    1060:	99 83       	std	Y+1, r25	; 0x01
    1062:	aa 83       	std	Y+2, r26	; 0x02
    1064:	bb 83       	std	Y+3, r27	; 0x03
    1066:	c3 5c       	subi	r28, 0xC3	; 195
    1068:	d1 40       	sbci	r29, 0x01	; 1

0000106a <.Loc.131>:
    106a:	cd 53       	subi	r28, 0x3D	; 61
    106c:	de 4f       	sbci	r29, 0xFE	; 254
    106e:	68 81       	ld	r22, Y
    1070:	79 81       	ldd	r23, Y+1	; 0x01
    1072:	8a 81       	ldd	r24, Y+2	; 0x02
    1074:	9b 81       	ldd	r25, Y+3	; 0x03
    1076:	c3 5c       	subi	r28, 0xC3	; 195
    1078:	d1 40       	sbci	r29, 0x01	; 1
    107a:	0e 94 a9 27 	call	0x4f52	; 0x4f52 <__fixunssfsi>
    107e:	cd 5a       	subi	r28, 0xAD	; 173
    1080:	dd 4f       	sbci	r29, 0xFD	; 253
    1082:	68 83       	st	Y, r22
    1084:	79 83       	std	Y+1, r23	; 0x01
    1086:	8a 83       	std	Y+2, r24	; 0x02
    1088:	9b 83       	std	Y+3, r25	; 0x03
    108a:	c3 55       	subi	r28, 0x53	; 83
    108c:	d2 40       	sbci	r29, 0x02	; 2
    108e:	cd 5a       	subi	r28, 0xAD	; 173
    1090:	dd 4f       	sbci	r29, 0xFD	; 253
    1092:	a8 81       	ld	r26, Y
    1094:	b9 81       	ldd	r27, Y+1	; 0x01
    1096:	c3 55       	subi	r28, 0x53	; 83
    1098:	d2 40       	sbci	r29, 0x02	; 2
    109a:	bc af       	std	Y+60, r27	; 0x3c
    109c:	ab af       	std	Y+59, r26	; 0x3b

0000109e <.Loc.132>:
		while(__ticks)
    109e:	10 c0       	rjmp	.+32     	; 0x10c0 <.L35>

000010a0 <.L36>:
    10a0:	80 e9       	ldi	r24, 0x90	; 144
    10a2:	91 e0       	ldi	r25, 0x01	; 1
    10a4:	9e af       	std	Y+62, r25	; 0x3e
    10a6:	8d af       	std	Y+61, r24	; 0x3d

000010a8 <.LBB190>:
    10a8:	8d ad       	ldd	r24, Y+61	; 0x3d
    10aa:	9e ad       	ldd	r25, Y+62	; 0x3e

000010ac <.L1^B5>:
    10ac:	01 97       	sbiw	r24, 0x01	; 1
    10ae:	f1 f7       	brne	.-4      	; 0x10ac <.L1^B5>
    10b0:	9e af       	std	Y+62, r25	; 0x3e
    10b2:	8d af       	std	Y+61, r24	; 0x3d

000010b4 <.Loc.134>:
	...

000010b6 <.LBE190>:
			__ticks --;
    10b6:	8b ad       	ldd	r24, Y+59	; 0x3b
    10b8:	9c ad       	ldd	r25, Y+60	; 0x3c
    10ba:	01 97       	sbiw	r24, 0x01	; 1
    10bc:	9c af       	std	Y+60, r25	; 0x3c
    10be:	8b af       	std	Y+59, r24	; 0x3b

000010c0 <.L35>:
		while(__ticks)
    10c0:	8b ad       	ldd	r24, Y+59	; 0x3b
    10c2:	9c ad       	ldd	r25, Y+60	; 0x3c
    10c4:	00 97       	sbiw	r24, 0x00	; 0
    10c6:	61 f7       	brne	.-40     	; 0x10a0 <.L36>

000010c8 <.Loc.137>:
		return;
    10c8:	2c c0       	rjmp	.+88     	; 0x1122 <.L37>

000010ca <.L338>:
		__ticks = (uint16_t)__tmp;
    10ca:	6f a9       	ldd	r22, Y+55	; 0x37
    10cc:	78 ad       	ldd	r23, Y+56	; 0x38
    10ce:	89 ad       	ldd	r24, Y+57	; 0x39
    10d0:	9a ad       	ldd	r25, Y+58	; 0x3a
    10d2:	0e 94 a9 27 	call	0x4f52	; 0x4f52 <__fixunssfsi>
    10d6:	c9 5a       	subi	r28, 0xA9	; 169
    10d8:	dd 4f       	sbci	r29, 0xFD	; 253
    10da:	68 83       	st	Y, r22
    10dc:	79 83       	std	Y+1, r23	; 0x01
    10de:	8a 83       	std	Y+2, r24	; 0x02
    10e0:	9b 83       	std	Y+3, r25	; 0x03
    10e2:	c7 55       	subi	r28, 0x57	; 87
    10e4:	d2 40       	sbci	r29, 0x02	; 2
    10e6:	c9 5a       	subi	r28, 0xA9	; 169
    10e8:	dd 4f       	sbci	r29, 0xFD	; 253
    10ea:	e8 81       	ld	r30, Y
    10ec:	f9 81       	ldd	r31, Y+1	; 0x01
    10ee:	c7 55       	subi	r28, 0x57	; 87
    10f0:	d2 40       	sbci	r29, 0x02	; 2
    10f2:	fc af       	std	Y+60, r31	; 0x3c
    10f4:	eb af       	std	Y+59, r30	; 0x3b

000010f6 <.L32>:
    10f6:	2b ad       	ldd	r18, Y+59	; 0x3b
    10f8:	3c ad       	ldd	r19, Y+60	; 0x3c
    10fa:	ce 01       	movw	r24, r28
    10fc:	cf 96       	adiw	r24, 0x3f	; 63
    10fe:	dc 01       	movw	r26, r24
    1100:	2d 93       	st	X+, r18
    1102:	3c 93       	st	X, r19

00001104 <.LBB192>:
    1104:	ce 01       	movw	r24, r28
    1106:	cf 96       	adiw	r24, 0x3f	; 63
    1108:	fc 01       	movw	r30, r24
    110a:	80 81       	ld	r24, Z
    110c:	91 81       	ldd	r25, Z+1	; 0x01

0000110e <.L1^B6>:
    110e:	01 97       	sbiw	r24, 0x01	; 1
    1110:	f1 f7       	brne	.-4      	; 0x110e <.L1^B6>
    1112:	9e 01       	movw	r18, r28
    1114:	21 5c       	subi	r18, 0xC1	; 193
    1116:	3f 4f       	sbci	r19, 0xFF	; 255
    1118:	d9 01       	movw	r26, r18
    111a:	11 96       	adiw	r26, 0x01	; 1
    111c:	9c 93       	st	X, r25
    111e:	8e 93       	st	-X, r24

00001120 <.Loc.140>:
	...

00001122 <.L37>:
                {
                    DEBOUNCE;
                    if (x <= 3)
    1122:	8d 81       	ldd	r24, Y+5	; 0x05
    1124:	9e 81       	ldd	r25, Y+6	; 0x06
    1126:	83 30       	cpi	r24, 0x03	; 3
    1128:	91 05       	cpc	r25, r1
    112a:	09 f0       	breq	.+2      	; 0x112e <.Loc.142>

0000112c <L0^A>:
    112c:	0c f5       	brge	.+66     	; 0x1170 <.L38>

0000112e <.Loc.142>:
                    {
                        PORTB &= ~(1<<besturingx[x]);
    112e:	85 e2       	ldi	r24, 0x25	; 37
    1130:	90 e0       	ldi	r25, 0x00	; 0
    1132:	fc 01       	movw	r30, r24
    1134:	80 81       	ld	r24, Z
    1136:	48 2f       	mov	r20, r24

00001138 <.Loc.143>:
    1138:	9e 01       	movw	r18, r28
    113a:	21 56       	subi	r18, 0x61	; 97
    113c:	3e 4f       	sbci	r19, 0xFE	; 254
    113e:	8d 81       	ldd	r24, Y+5	; 0x05
    1140:	9e 81       	ldd	r25, Y+6	; 0x06
    1142:	88 0f       	add	r24, r24
    1144:	99 1f       	adc	r25, r25
    1146:	82 0f       	add	r24, r18
    1148:	93 1f       	adc	r25, r19
    114a:	dc 01       	movw	r26, r24
    114c:	2d 91       	ld	r18, X+
    114e:	3c 91       	ld	r19, X
    1150:	11 97       	sbiw	r26, 0x01	; 1

00001152 <.Loc.144>:
    1152:	81 e0       	ldi	r24, 0x01	; 1
    1154:	90 e0       	ldi	r25, 0x00	; 0
    1156:	02 c0       	rjmp	.+4      	; 0x115c <.L2^B1>

00001158 <.L1^B7>:
    1158:	88 0f       	add	r24, r24
    115a:	99 1f       	adc	r25, r25

0000115c <.L2^B1>:
    115c:	2a 95       	dec	r18
    115e:	e2 f7       	brpl	.-8      	; 0x1158 <.L1^B7>

00001160 <.Loc.145>:
    1160:	80 95       	com	r24
    1162:	24 2f       	mov	r18, r20
    1164:	28 23       	and	r18, r24

00001166 <.Loc.146>:
    1166:	85 e2       	ldi	r24, 0x25	; 37
    1168:	90 e0       	ldi	r25, 0x00	; 0

0000116a <.Loc.147>:
    116a:	fc 01       	movw	r30, r24
    116c:	20 83       	st	Z, r18
    116e:	25 c0       	rjmp	.+74     	; 0x11ba <.L39>

00001170 <.L38>:
                    }
                    else if (x > 3)
    1170:	8d 81       	ldd	r24, Y+5	; 0x05
    1172:	9e 81       	ldd	r25, Y+6	; 0x06
    1174:	83 30       	cpi	r24, 0x03	; 3
    1176:	91 05       	cpc	r25, r1
    1178:	01 f1       	breq	.+64     	; 0x11ba <.L39>
    117a:	fc f0       	brlt	.+62     	; 0x11ba <.L39>

0000117c <.Loc.149>:
                    {
                        PORTL &= ~(1<<besturingx[x]);
    117c:	8b e0       	ldi	r24, 0x0B	; 11
    117e:	91 e0       	ldi	r25, 0x01	; 1
    1180:	dc 01       	movw	r26, r24
    1182:	8c 91       	ld	r24, X
    1184:	48 2f       	mov	r20, r24

00001186 <.Loc.150>:
    1186:	9e 01       	movw	r18, r28
    1188:	21 56       	subi	r18, 0x61	; 97
    118a:	3e 4f       	sbci	r19, 0xFE	; 254
    118c:	8d 81       	ldd	r24, Y+5	; 0x05
    118e:	9e 81       	ldd	r25, Y+6	; 0x06
    1190:	88 0f       	add	r24, r24
    1192:	99 1f       	adc	r25, r25
    1194:	82 0f       	add	r24, r18
    1196:	93 1f       	adc	r25, r19
    1198:	fc 01       	movw	r30, r24
    119a:	20 81       	ld	r18, Z
    119c:	31 81       	ldd	r19, Z+1	; 0x01

0000119e <.Loc.151>:
    119e:	81 e0       	ldi	r24, 0x01	; 1
    11a0:	90 e0       	ldi	r25, 0x00	; 0
    11a2:	02 c0       	rjmp	.+4      	; 0x11a8 <.L2^B2>

000011a4 <.L1^B8>:
    11a4:	88 0f       	add	r24, r24
    11a6:	99 1f       	adc	r25, r25

000011a8 <.L2^B2>:
    11a8:	2a 95       	dec	r18
    11aa:	e2 f7       	brpl	.-8      	; 0x11a4 <.L1^B8>

000011ac <.Loc.152>:
    11ac:	80 95       	com	r24
    11ae:	24 2f       	mov	r18, r20
    11b0:	28 23       	and	r18, r24

000011b2 <.Loc.153>:
    11b2:	8b e0       	ldi	r24, 0x0B	; 11
    11b4:	91 e0       	ldi	r25, 0x01	; 1

000011b6 <.Loc.154>:
    11b6:	dc 01       	movw	r26, r24
    11b8:	2c 93       	st	X, r18

000011ba <.L39>:
                    }
                    x++;
    11ba:	8d 81       	ldd	r24, Y+5	; 0x05
    11bc:	9e 81       	ldd	r25, Y+6	; 0x06
    11be:	01 96       	adiw	r24, 0x01	; 1
    11c0:	9e 83       	std	Y+6, r25	; 0x06
    11c2:	8d 83       	std	Y+5, r24	; 0x05

000011c4 <.L21>:
                }
            }
            if ((PINF & (1<<PF5)) != 0)
    11c4:	8f e2       	ldi	r24, 0x2F	; 47
    11c6:	90 e0       	ldi	r25, 0x00	; 0
    11c8:	fc 01       	movw	r30, r24
    11ca:	80 81       	ld	r24, Z

000011cc <.Loc.157>:
    11cc:	88 2f       	mov	r24, r24
    11ce:	90 e0       	ldi	r25, 0x00	; 0
    11d0:	80 72       	andi	r24, 0x20	; 32
    11d2:	99 27       	eor	r25, r25

000011d4 <.Loc.158>:
    11d4:	00 97       	sbiw	r24, 0x00	; 0
    11d6:	09 f4       	brne	.+2      	; 0x11da <L0^A+0x2>

000011d8 <L0^A>:
    11d8:	73 c2       	rjmp	.+1254   	; 0x16c0 <.L40>
    11da:	9e 01       	movw	r18, r28
    11dc:	2f 5b       	subi	r18, 0xBF	; 191
    11de:	3f 4f       	sbci	r19, 0xFF	; 255
    11e0:	80 e0       	ldi	r24, 0x00	; 0
    11e2:	90 e0       	ldi	r25, 0x00	; 0
    11e4:	a0 ef       	ldi	r26, 0xF0	; 240
    11e6:	b1 e4       	ldi	r27, 0x41	; 65
    11e8:	f9 01       	movw	r30, r18
    11ea:	80 83       	st	Z, r24
    11ec:	91 83       	std	Z+1, r25	; 0x01
    11ee:	a2 83       	std	Z+2, r26	; 0x02
    11f0:	b3 83       	std	Z+3, r27	; 0x03

000011f2 <.LBB194>:
	__tmp = ((F_CPU) / 4e3) * __ms;
    11f2:	8e 01       	movw	r16, r28
    11f4:	0b 5b       	subi	r16, 0xBB	; 187
    11f6:	1f 4f       	sbci	r17, 0xFF	; 255
    11f8:	ce 01       	movw	r24, r28
    11fa:	8f 5b       	subi	r24, 0xBF	; 191
    11fc:	9f 4f       	sbci	r25, 0xFF	; 255
    11fe:	20 e0       	ldi	r18, 0x00	; 0
    1200:	30 e0       	ldi	r19, 0x00	; 0
    1202:	4a e7       	ldi	r20, 0x7A	; 122
    1204:	55 e4       	ldi	r21, 0x45	; 69
    1206:	dc 01       	movw	r26, r24
    1208:	6d 91       	ld	r22, X+
    120a:	7d 91       	ld	r23, X+
    120c:	8d 91       	ld	r24, X+
    120e:	9c 91       	ld	r25, X
    1210:	0e 94 2a 28 	call	0x5054	; 0x5054 <__mulsf3>
    1214:	c5 5a       	subi	r28, 0xA5	; 165
    1216:	dd 4f       	sbci	r29, 0xFD	; 253
    1218:	68 83       	st	Y, r22
    121a:	79 83       	std	Y+1, r23	; 0x01
    121c:	8a 83       	std	Y+2, r24	; 0x02
    121e:	9b 83       	std	Y+3, r25	; 0x03
    1220:	cb 55       	subi	r28, 0x5B	; 91
    1222:	d2 40       	sbci	r29, 0x02	; 2
    1224:	c5 5a       	subi	r28, 0xA5	; 165
    1226:	dd 4f       	sbci	r29, 0xFD	; 253
    1228:	88 81       	ld	r24, Y
    122a:	99 81       	ldd	r25, Y+1	; 0x01
    122c:	aa 81       	ldd	r26, Y+2	; 0x02
    122e:	bb 81       	ldd	r27, Y+3	; 0x03
    1230:	cb 55       	subi	r28, 0x5B	; 91
    1232:	d2 40       	sbci	r29, 0x02	; 2
    1234:	f8 01       	movw	r30, r16
    1236:	80 83       	st	Z, r24
    1238:	91 83       	std	Z+1, r25	; 0x01
    123a:	a2 83       	std	Z+2, r26	; 0x02
    123c:	b3 83       	std	Z+3, r27	; 0x03

0000123e <.Loc.160>:
	if (__tmp < 1.0)
    123e:	ce 01       	movw	r24, r28
    1240:	8b 5b       	subi	r24, 0xBB	; 187
    1242:	9f 4f       	sbci	r25, 0xFF	; 255
    1244:	20 e0       	ldi	r18, 0x00	; 0
    1246:	30 e0       	ldi	r19, 0x00	; 0
    1248:	40 e8       	ldi	r20, 0x80	; 128
    124a:	5f e3       	ldi	r21, 0x3F	; 63
    124c:	dc 01       	movw	r26, r24
    124e:	6d 91       	ld	r22, X+
    1250:	7d 91       	ld	r23, X+
    1252:	8d 91       	ld	r24, X+
    1254:	9c 91       	ld	r25, X
    1256:	0e 94 a4 27 	call	0x4f48	; 0x4f48 <__cmpsf2>
    125a:	88 23       	and	r24, r24
    125c:	4c f4       	brge	.+18     	; 0x1270 <.L339>

0000125e <.Loc.161>:
		__ticks = 1;
    125e:	ce 01       	movw	r24, r28
    1260:	87 5b       	subi	r24, 0xB7	; 183
    1262:	9f 4f       	sbci	r25, 0xFF	; 255
    1264:	21 e0       	ldi	r18, 0x01	; 1
    1266:	30 e0       	ldi	r19, 0x00	; 0
    1268:	fc 01       	movw	r30, r24
    126a:	31 83       	std	Z+1, r19	; 0x01
    126c:	20 83       	st	Z, r18
    126e:	a5 c0       	rjmp	.+330    	; 0x13ba <.L43>

00001270 <.L339>:
	else if (__tmp > 65535)
    1270:	ce 01       	movw	r24, r28
    1272:	8b 5b       	subi	r24, 0xBB	; 187
    1274:	9f 4f       	sbci	r25, 0xFF	; 255
    1276:	20 e0       	ldi	r18, 0x00	; 0
    1278:	3f ef       	ldi	r19, 0xFF	; 255
    127a:	4f e7       	ldi	r20, 0x7F	; 127
    127c:	57 e4       	ldi	r21, 0x47	; 71
    127e:	dc 01       	movw	r26, r24
    1280:	6d 91       	ld	r22, X+
    1282:	7d 91       	ld	r23, X+
    1284:	8d 91       	ld	r24, X+
    1286:	9c 91       	ld	r25, X
    1288:	0e 94 25 28 	call	0x504a	; 0x504a <__gesf2>
    128c:	88 23       	and	r24, r24
    128e:	09 f0       	breq	.+2      	; 0x1292 <L0^A>

00001290 <L0^A>:
    1290:	0c f4       	brge	.+2      	; 0x1294 <.Loc.163>

00001292 <L0^A>:
    1292:	75 c0       	rjmp	.+234    	; 0x137e <.L340>

00001294 <.Loc.163>:
		__ticks = (uint16_t) (__ms * 10.0);
    1294:	ce 01       	movw	r24, r28
    1296:	8f 5b       	subi	r24, 0xBF	; 191
    1298:	9f 4f       	sbci	r25, 0xFF	; 255
    129a:	20 e0       	ldi	r18, 0x00	; 0
    129c:	30 e0       	ldi	r19, 0x00	; 0
    129e:	40 e2       	ldi	r20, 0x20	; 32
    12a0:	51 e4       	ldi	r21, 0x41	; 65
    12a2:	fc 01       	movw	r30, r24
    12a4:	60 81       	ld	r22, Z
    12a6:	71 81       	ldd	r23, Z+1	; 0x01
    12a8:	82 81       	ldd	r24, Z+2	; 0x02
    12aa:	93 81       	ldd	r25, Z+3	; 0x03
    12ac:	0e 94 2a 28 	call	0x5054	; 0x5054 <__mulsf3>
    12b0:	c1 5a       	subi	r28, 0xA1	; 161
    12b2:	dd 4f       	sbci	r29, 0xFD	; 253
    12b4:	68 83       	st	Y, r22
    12b6:	79 83       	std	Y+1, r23	; 0x01
    12b8:	8a 83       	std	Y+2, r24	; 0x02
    12ba:	9b 83       	std	Y+3, r25	; 0x03
    12bc:	cf 55       	subi	r28, 0x5F	; 95
    12be:	d2 40       	sbci	r29, 0x02	; 2
    12c0:	c1 5a       	subi	r28, 0xA1	; 161
    12c2:	dd 4f       	sbci	r29, 0xFD	; 253
    12c4:	88 81       	ld	r24, Y
    12c6:	99 81       	ldd	r25, Y+1	; 0x01
    12c8:	aa 81       	ldd	r26, Y+2	; 0x02
    12ca:	bb 81       	ldd	r27, Y+3	; 0x03
    12cc:	cf 55       	subi	r28, 0x5F	; 95
    12ce:	d2 40       	sbci	r29, 0x02	; 2
    12d0:	c9 53       	subi	r28, 0x39	; 57
    12d2:	de 4f       	sbci	r29, 0xFE	; 254
    12d4:	88 83       	st	Y, r24
    12d6:	99 83       	std	Y+1, r25	; 0x01
    12d8:	aa 83       	std	Y+2, r26	; 0x02
    12da:	bb 83       	std	Y+3, r27	; 0x03
    12dc:	c7 5c       	subi	r28, 0xC7	; 199
    12de:	d1 40       	sbci	r29, 0x01	; 1

000012e0 <.Loc.164>:
    12e0:	8e 01       	movw	r16, r28
    12e2:	07 5b       	subi	r16, 0xB7	; 183
    12e4:	1f 4f       	sbci	r17, 0xFF	; 255
    12e6:	c9 53       	subi	r28, 0x39	; 57
    12e8:	de 4f       	sbci	r29, 0xFE	; 254
    12ea:	68 81       	ld	r22, Y
    12ec:	79 81       	ldd	r23, Y+1	; 0x01
    12ee:	8a 81       	ldd	r24, Y+2	; 0x02
    12f0:	9b 81       	ldd	r25, Y+3	; 0x03
    12f2:	c7 5c       	subi	r28, 0xC7	; 199
    12f4:	d1 40       	sbci	r29, 0x01	; 1
    12f6:	0e 94 a9 27 	call	0x4f52	; 0x4f52 <__fixunssfsi>
    12fa:	cd 59       	subi	r28, 0x9D	; 157
    12fc:	dd 4f       	sbci	r29, 0xFD	; 253
    12fe:	68 83       	st	Y, r22
    1300:	79 83       	std	Y+1, r23	; 0x01
    1302:	8a 83       	std	Y+2, r24	; 0x02
    1304:	9b 83       	std	Y+3, r25	; 0x03
    1306:	c3 56       	subi	r28, 0x63	; 99
    1308:	d2 40       	sbci	r29, 0x02	; 2
    130a:	cd 59       	subi	r28, 0x9D	; 157
    130c:	dd 4f       	sbci	r29, 0xFD	; 253
    130e:	e8 81       	ld	r30, Y
    1310:	f9 81       	ldd	r31, Y+1	; 0x01
    1312:	c3 56       	subi	r28, 0x63	; 99
    1314:	d2 40       	sbci	r29, 0x02	; 2
    1316:	d8 01       	movw	r26, r16
    1318:	11 96       	adiw	r26, 0x01	; 1
    131a:	fc 93       	st	X, r31
    131c:	ee 93       	st	-X, r30

0000131e <.Loc.165>:
		while(__ticks)
    131e:	26 c0       	rjmp	.+76     	; 0x136c <.L46>

00001320 <.L47>:
    1320:	ce 01       	movw	r24, r28
    1322:	85 5b       	subi	r24, 0xB5	; 181
    1324:	9f 4f       	sbci	r25, 0xFF	; 255
    1326:	20 e9       	ldi	r18, 0x90	; 144
    1328:	31 e0       	ldi	r19, 0x01	; 1
    132a:	dc 01       	movw	r26, r24
    132c:	2d 93       	st	X+, r18
    132e:	3c 93       	st	X, r19

00001330 <.LBB196>:
    1330:	ce 01       	movw	r24, r28
    1332:	85 5b       	subi	r24, 0xB5	; 181
    1334:	9f 4f       	sbci	r25, 0xFF	; 255
    1336:	fc 01       	movw	r30, r24
    1338:	80 81       	ld	r24, Z
    133a:	91 81       	ldd	r25, Z+1	; 0x01

0000133c <.L1^B9>:
    133c:	01 97       	sbiw	r24, 0x01	; 1
    133e:	f1 f7       	brne	.-4      	; 0x133c <.L1^B9>
    1340:	9e 01       	movw	r18, r28
    1342:	25 5b       	subi	r18, 0xB5	; 181
    1344:	3f 4f       	sbci	r19, 0xFF	; 255
    1346:	d9 01       	movw	r26, r18
    1348:	8d 93       	st	X+, r24
    134a:	9c 93       	st	X, r25

0000134c <.Loc.167>:
	...

0000134e <.LBE196>:
			__ticks --;
    134e:	ce 01       	movw	r24, r28
    1350:	87 5b       	subi	r24, 0xB7	; 183
    1352:	9f 4f       	sbci	r25, 0xFF	; 255
    1354:	9e 01       	movw	r18, r28
    1356:	27 5b       	subi	r18, 0xB7	; 183
    1358:	3f 4f       	sbci	r19, 0xFF	; 255
    135a:	f9 01       	movw	r30, r18
    135c:	20 81       	ld	r18, Z
    135e:	31 81       	ldd	r19, Z+1	; 0x01
    1360:	21 50       	subi	r18, 0x01	; 1
    1362:	31 09       	sbc	r19, r1
    1364:	dc 01       	movw	r26, r24
    1366:	11 96       	adiw	r26, 0x01	; 1
    1368:	3c 93       	st	X, r19
    136a:	2e 93       	st	-X, r18

0000136c <.L46>:
		while(__ticks)
    136c:	ce 01       	movw	r24, r28
    136e:	87 5b       	subi	r24, 0xB7	; 183
    1370:	9f 4f       	sbci	r25, 0xFF	; 255
    1372:	fc 01       	movw	r30, r24
    1374:	80 81       	ld	r24, Z
    1376:	91 81       	ldd	r25, Z+1	; 0x01
    1378:	00 97       	sbiw	r24, 0x00	; 0
    137a:	91 f6       	brne	.-92     	; 0x1320 <.L47>

0000137c <.Loc.170>:
		return;
    137c:	39 c0       	rjmp	.+114    	; 0x13f0 <.L48>

0000137e <.L340>:
		__ticks = (uint16_t)__tmp;
    137e:	8e 01       	movw	r16, r28
    1380:	07 5b       	subi	r16, 0xB7	; 183
    1382:	1f 4f       	sbci	r17, 0xFF	; 255
    1384:	ce 01       	movw	r24, r28
    1386:	8b 5b       	subi	r24, 0xBB	; 187
    1388:	9f 4f       	sbci	r25, 0xFF	; 255
    138a:	dc 01       	movw	r26, r24
    138c:	6d 91       	ld	r22, X+
    138e:	7d 91       	ld	r23, X+
    1390:	8d 91       	ld	r24, X+
    1392:	9c 91       	ld	r25, X
    1394:	0e 94 a9 27 	call	0x4f52	; 0x4f52 <__fixunssfsi>
    1398:	c9 59       	subi	r28, 0x99	; 153
    139a:	dd 4f       	sbci	r29, 0xFD	; 253
    139c:	68 83       	st	Y, r22
    139e:	79 83       	std	Y+1, r23	; 0x01
    13a0:	8a 83       	std	Y+2, r24	; 0x02
    13a2:	9b 83       	std	Y+3, r25	; 0x03
    13a4:	c7 56       	subi	r28, 0x67	; 103
    13a6:	d2 40       	sbci	r29, 0x02	; 2
    13a8:	c9 59       	subi	r28, 0x99	; 153
    13aa:	dd 4f       	sbci	r29, 0xFD	; 253
    13ac:	88 81       	ld	r24, Y
    13ae:	99 81       	ldd	r25, Y+1	; 0x01
    13b0:	c7 56       	subi	r28, 0x67	; 103
    13b2:	d2 40       	sbci	r29, 0x02	; 2
    13b4:	f8 01       	movw	r30, r16
    13b6:	91 83       	std	Z+1, r25	; 0x01
    13b8:	80 83       	st	Z, r24

000013ba <.L43>:
    13ba:	ce 01       	movw	r24, r28
    13bc:	83 5b       	subi	r24, 0xB3	; 179
    13be:	9f 4f       	sbci	r25, 0xFF	; 255
    13c0:	9e 01       	movw	r18, r28
    13c2:	27 5b       	subi	r18, 0xB7	; 183
    13c4:	3f 4f       	sbci	r19, 0xFF	; 255
    13c6:	d9 01       	movw	r26, r18
    13c8:	2d 91       	ld	r18, X+
    13ca:	3c 91       	ld	r19, X
    13cc:	fc 01       	movw	r30, r24
    13ce:	31 83       	std	Z+1, r19	; 0x01
    13d0:	20 83       	st	Z, r18

000013d2 <.LBB198>:
    13d2:	ce 01       	movw	r24, r28
    13d4:	83 5b       	subi	r24, 0xB3	; 179
    13d6:	9f 4f       	sbci	r25, 0xFF	; 255
    13d8:	dc 01       	movw	r26, r24
    13da:	8d 91       	ld	r24, X+
    13dc:	9c 91       	ld	r25, X

000013de <.L1^B10>:
    13de:	01 97       	sbiw	r24, 0x01	; 1
    13e0:	f1 f7       	brne	.-4      	; 0x13de <.L1^B10>
    13e2:	9e 01       	movw	r18, r28
    13e4:	23 5b       	subi	r18, 0xB3	; 179
    13e6:	3f 4f       	sbci	r19, 0xFF	; 255
    13e8:	f9 01       	movw	r30, r18
    13ea:	91 83       	std	Z+1, r25	; 0x01
    13ec:	80 83       	st	Z, r24

000013ee <.Loc.173>:
	...

000013f0 <.L48>:
            {
                DEBOUNCE;
                if ((PINF & (1<<PF5)) == 0)
    13f0:	8f e2       	ldi	r24, 0x2F	; 47
    13f2:	90 e0       	ldi	r25, 0x00	; 0
    13f4:	dc 01       	movw	r26, r24
    13f6:	8c 91       	ld	r24, X

000013f8 <.Loc.175>:
    13f8:	88 2f       	mov	r24, r24
    13fa:	90 e0       	ldi	r25, 0x00	; 0
    13fc:	80 72       	andi	r24, 0x20	; 32
    13fe:	99 27       	eor	r25, r25

00001400 <.Loc.176>:
    1400:	00 97       	sbiw	r24, 0x00	; 0
    1402:	09 f0       	breq	.+2      	; 0x1406 <L0^A+0x2>

00001404 <L0^A>:
    1404:	5d c1       	rjmp	.+698    	; 0x16c0 <.L40>
    1406:	9e 01       	movw	r18, r28
    1408:	21 5b       	subi	r18, 0xB1	; 177
    140a:	3f 4f       	sbci	r19, 0xFF	; 255
    140c:	80 e0       	ldi	r24, 0x00	; 0
    140e:	90 e0       	ldi	r25, 0x00	; 0
    1410:	a0 ef       	ldi	r26, 0xF0	; 240
    1412:	b1 e4       	ldi	r27, 0x41	; 65
    1414:	f9 01       	movw	r30, r18
    1416:	80 83       	st	Z, r24
    1418:	91 83       	std	Z+1, r25	; 0x01
    141a:	a2 83       	std	Z+2, r26	; 0x02
    141c:	b3 83       	std	Z+3, r27	; 0x03

0000141e <.LBB200>:
	__tmp = ((F_CPU) / 4e3) * __ms;
    141e:	8e 01       	movw	r16, r28
    1420:	0d 5a       	subi	r16, 0xAD	; 173
    1422:	1f 4f       	sbci	r17, 0xFF	; 255
    1424:	ce 01       	movw	r24, r28
    1426:	81 5b       	subi	r24, 0xB1	; 177
    1428:	9f 4f       	sbci	r25, 0xFF	; 255
    142a:	20 e0       	ldi	r18, 0x00	; 0
    142c:	30 e0       	ldi	r19, 0x00	; 0
    142e:	4a e7       	ldi	r20, 0x7A	; 122
    1430:	55 e4       	ldi	r21, 0x45	; 69
    1432:	dc 01       	movw	r26, r24
    1434:	6d 91       	ld	r22, X+
    1436:	7d 91       	ld	r23, X+
    1438:	8d 91       	ld	r24, X+
    143a:	9c 91       	ld	r25, X
    143c:	0e 94 2a 28 	call	0x5054	; 0x5054 <__mulsf3>
    1440:	c5 59       	subi	r28, 0x95	; 149
    1442:	dd 4f       	sbci	r29, 0xFD	; 253
    1444:	68 83       	st	Y, r22
    1446:	79 83       	std	Y+1, r23	; 0x01
    1448:	8a 83       	std	Y+2, r24	; 0x02
    144a:	9b 83       	std	Y+3, r25	; 0x03
    144c:	cb 56       	subi	r28, 0x6B	; 107
    144e:	d2 40       	sbci	r29, 0x02	; 2
    1450:	c5 59       	subi	r28, 0x95	; 149
    1452:	dd 4f       	sbci	r29, 0xFD	; 253
    1454:	88 81       	ld	r24, Y
    1456:	99 81       	ldd	r25, Y+1	; 0x01
    1458:	aa 81       	ldd	r26, Y+2	; 0x02
    145a:	bb 81       	ldd	r27, Y+3	; 0x03
    145c:	cb 56       	subi	r28, 0x6B	; 107
    145e:	d2 40       	sbci	r29, 0x02	; 2
    1460:	f8 01       	movw	r30, r16
    1462:	80 83       	st	Z, r24
    1464:	91 83       	std	Z+1, r25	; 0x01
    1466:	a2 83       	std	Z+2, r26	; 0x02
    1468:	b3 83       	std	Z+3, r27	; 0x03

0000146a <.Loc.178>:
	if (__tmp < 1.0)
    146a:	ce 01       	movw	r24, r28
    146c:	8d 5a       	subi	r24, 0xAD	; 173
    146e:	9f 4f       	sbci	r25, 0xFF	; 255
    1470:	20 e0       	ldi	r18, 0x00	; 0
    1472:	30 e0       	ldi	r19, 0x00	; 0
    1474:	40 e8       	ldi	r20, 0x80	; 128
    1476:	5f e3       	ldi	r21, 0x3F	; 63
    1478:	dc 01       	movw	r26, r24
    147a:	6d 91       	ld	r22, X+
    147c:	7d 91       	ld	r23, X+
    147e:	8d 91       	ld	r24, X+
    1480:	9c 91       	ld	r25, X
    1482:	0e 94 a4 27 	call	0x4f48	; 0x4f48 <__cmpsf2>
    1486:	88 23       	and	r24, r24
    1488:	4c f4       	brge	.+18     	; 0x149c <.L341>

0000148a <.Loc.179>:
		__ticks = 1;
    148a:	ce 01       	movw	r24, r28
    148c:	89 5a       	subi	r24, 0xA9	; 169
    148e:	9f 4f       	sbci	r25, 0xFF	; 255
    1490:	21 e0       	ldi	r18, 0x01	; 1
    1492:	30 e0       	ldi	r19, 0x00	; 0
    1494:	fc 01       	movw	r30, r24
    1496:	31 83       	std	Z+1, r19	; 0x01
    1498:	20 83       	st	Z, r18
    149a:	a5 c0       	rjmp	.+330    	; 0x15e6 <.L51>

0000149c <.L341>:
	else if (__tmp > 65535)
    149c:	ce 01       	movw	r24, r28
    149e:	8d 5a       	subi	r24, 0xAD	; 173
    14a0:	9f 4f       	sbci	r25, 0xFF	; 255
    14a2:	20 e0       	ldi	r18, 0x00	; 0
    14a4:	3f ef       	ldi	r19, 0xFF	; 255
    14a6:	4f e7       	ldi	r20, 0x7F	; 127
    14a8:	57 e4       	ldi	r21, 0x47	; 71
    14aa:	dc 01       	movw	r26, r24
    14ac:	6d 91       	ld	r22, X+
    14ae:	7d 91       	ld	r23, X+
    14b0:	8d 91       	ld	r24, X+
    14b2:	9c 91       	ld	r25, X
    14b4:	0e 94 25 28 	call	0x504a	; 0x504a <__gesf2>
    14b8:	88 23       	and	r24, r24
    14ba:	09 f0       	breq	.+2      	; 0x14be <L0^A>

000014bc <L0^A>:
    14bc:	0c f4       	brge	.+2      	; 0x14c0 <.Loc.181>

000014be <L0^A>:
    14be:	75 c0       	rjmp	.+234    	; 0x15aa <.L342>

000014c0 <.Loc.181>:
		__ticks = (uint16_t) (__ms * 10.0);
    14c0:	ce 01       	movw	r24, r28
    14c2:	81 5b       	subi	r24, 0xB1	; 177
    14c4:	9f 4f       	sbci	r25, 0xFF	; 255
    14c6:	20 e0       	ldi	r18, 0x00	; 0
    14c8:	30 e0       	ldi	r19, 0x00	; 0
    14ca:	40 e2       	ldi	r20, 0x20	; 32
    14cc:	51 e4       	ldi	r21, 0x41	; 65
    14ce:	fc 01       	movw	r30, r24
    14d0:	60 81       	ld	r22, Z
    14d2:	71 81       	ldd	r23, Z+1	; 0x01
    14d4:	82 81       	ldd	r24, Z+2	; 0x02
    14d6:	93 81       	ldd	r25, Z+3	; 0x03
    14d8:	0e 94 2a 28 	call	0x5054	; 0x5054 <__mulsf3>
    14dc:	c1 59       	subi	r28, 0x91	; 145
    14de:	dd 4f       	sbci	r29, 0xFD	; 253
    14e0:	68 83       	st	Y, r22
    14e2:	79 83       	std	Y+1, r23	; 0x01
    14e4:	8a 83       	std	Y+2, r24	; 0x02
    14e6:	9b 83       	std	Y+3, r25	; 0x03
    14e8:	cf 56       	subi	r28, 0x6F	; 111
    14ea:	d2 40       	sbci	r29, 0x02	; 2
    14ec:	c1 59       	subi	r28, 0x91	; 145
    14ee:	dd 4f       	sbci	r29, 0xFD	; 253
    14f0:	88 81       	ld	r24, Y
    14f2:	99 81       	ldd	r25, Y+1	; 0x01
    14f4:	aa 81       	ldd	r26, Y+2	; 0x02
    14f6:	bb 81       	ldd	r27, Y+3	; 0x03
    14f8:	cf 56       	subi	r28, 0x6F	; 111
    14fa:	d2 40       	sbci	r29, 0x02	; 2
    14fc:	c5 53       	subi	r28, 0x35	; 53
    14fe:	de 4f       	sbci	r29, 0xFE	; 254
    1500:	88 83       	st	Y, r24
    1502:	99 83       	std	Y+1, r25	; 0x01
    1504:	aa 83       	std	Y+2, r26	; 0x02
    1506:	bb 83       	std	Y+3, r27	; 0x03
    1508:	cb 5c       	subi	r28, 0xCB	; 203
    150a:	d1 40       	sbci	r29, 0x01	; 1

0000150c <.Loc.182>:
    150c:	8e 01       	movw	r16, r28
    150e:	09 5a       	subi	r16, 0xA9	; 169
    1510:	1f 4f       	sbci	r17, 0xFF	; 255
    1512:	c5 53       	subi	r28, 0x35	; 53
    1514:	de 4f       	sbci	r29, 0xFE	; 254
    1516:	68 81       	ld	r22, Y
    1518:	79 81       	ldd	r23, Y+1	; 0x01
    151a:	8a 81       	ldd	r24, Y+2	; 0x02
    151c:	9b 81       	ldd	r25, Y+3	; 0x03
    151e:	cb 5c       	subi	r28, 0xCB	; 203
    1520:	d1 40       	sbci	r29, 0x01	; 1
    1522:	0e 94 a9 27 	call	0x4f52	; 0x4f52 <__fixunssfsi>
    1526:	cd 58       	subi	r28, 0x8D	; 141
    1528:	dd 4f       	sbci	r29, 0xFD	; 253
    152a:	68 83       	st	Y, r22
    152c:	79 83       	std	Y+1, r23	; 0x01
    152e:	8a 83       	std	Y+2, r24	; 0x02
    1530:	9b 83       	std	Y+3, r25	; 0x03
    1532:	c3 57       	subi	r28, 0x73	; 115
    1534:	d2 40       	sbci	r29, 0x02	; 2
    1536:	cd 58       	subi	r28, 0x8D	; 141
    1538:	dd 4f       	sbci	r29, 0xFD	; 253
    153a:	e8 81       	ld	r30, Y
    153c:	f9 81       	ldd	r31, Y+1	; 0x01
    153e:	c3 57       	subi	r28, 0x73	; 115
    1540:	d2 40       	sbci	r29, 0x02	; 2
    1542:	d8 01       	movw	r26, r16
    1544:	11 96       	adiw	r26, 0x01	; 1
    1546:	fc 93       	st	X, r31
    1548:	ee 93       	st	-X, r30

0000154a <.Loc.183>:
		while(__ticks)
    154a:	26 c0       	rjmp	.+76     	; 0x1598 <.L54>

0000154c <.L55>:
    154c:	ce 01       	movw	r24, r28
    154e:	87 5a       	subi	r24, 0xA7	; 167
    1550:	9f 4f       	sbci	r25, 0xFF	; 255
    1552:	20 e9       	ldi	r18, 0x90	; 144
    1554:	31 e0       	ldi	r19, 0x01	; 1
    1556:	dc 01       	movw	r26, r24
    1558:	2d 93       	st	X+, r18
    155a:	3c 93       	st	X, r19

0000155c <.LBB202>:
    155c:	ce 01       	movw	r24, r28
    155e:	87 5a       	subi	r24, 0xA7	; 167
    1560:	9f 4f       	sbci	r25, 0xFF	; 255
    1562:	fc 01       	movw	r30, r24
    1564:	80 81       	ld	r24, Z
    1566:	91 81       	ldd	r25, Z+1	; 0x01

00001568 <.L1^B11>:
    1568:	01 97       	sbiw	r24, 0x01	; 1
    156a:	f1 f7       	brne	.-4      	; 0x1568 <.L1^B11>
    156c:	9e 01       	movw	r18, r28
    156e:	27 5a       	subi	r18, 0xA7	; 167
    1570:	3f 4f       	sbci	r19, 0xFF	; 255
    1572:	d9 01       	movw	r26, r18
    1574:	8d 93       	st	X+, r24
    1576:	9c 93       	st	X, r25

00001578 <.Loc.185>:
	...

0000157a <.LBE202>:
			__ticks --;
    157a:	ce 01       	movw	r24, r28
    157c:	89 5a       	subi	r24, 0xA9	; 169
    157e:	9f 4f       	sbci	r25, 0xFF	; 255
    1580:	9e 01       	movw	r18, r28
    1582:	29 5a       	subi	r18, 0xA9	; 169
    1584:	3f 4f       	sbci	r19, 0xFF	; 255
    1586:	f9 01       	movw	r30, r18
    1588:	20 81       	ld	r18, Z
    158a:	31 81       	ldd	r19, Z+1	; 0x01
    158c:	21 50       	subi	r18, 0x01	; 1
    158e:	31 09       	sbc	r19, r1
    1590:	dc 01       	movw	r26, r24
    1592:	11 96       	adiw	r26, 0x01	; 1
    1594:	3c 93       	st	X, r19
    1596:	2e 93       	st	-X, r18

00001598 <.L54>:
		while(__ticks)
    1598:	ce 01       	movw	r24, r28
    159a:	89 5a       	subi	r24, 0xA9	; 169
    159c:	9f 4f       	sbci	r25, 0xFF	; 255
    159e:	fc 01       	movw	r30, r24
    15a0:	80 81       	ld	r24, Z
    15a2:	91 81       	ldd	r25, Z+1	; 0x01
    15a4:	00 97       	sbiw	r24, 0x00	; 0
    15a6:	91 f6       	brne	.-92     	; 0x154c <.L55>

000015a8 <.Loc.188>:
		return;
    15a8:	3a c0       	rjmp	.+116    	; 0x161e <.L56>

000015aa <.L342>:
		__ticks = (uint16_t)__tmp;
    15aa:	8e 01       	movw	r16, r28
    15ac:	09 5a       	subi	r16, 0xA9	; 169
    15ae:	1f 4f       	sbci	r17, 0xFF	; 255
    15b0:	ce 01       	movw	r24, r28
    15b2:	8d 5a       	subi	r24, 0xAD	; 173
    15b4:	9f 4f       	sbci	r25, 0xFF	; 255
    15b6:	dc 01       	movw	r26, r24
    15b8:	6d 91       	ld	r22, X+
    15ba:	7d 91       	ld	r23, X+
    15bc:	8d 91       	ld	r24, X+
    15be:	9c 91       	ld	r25, X
    15c0:	0e 94 a9 27 	call	0x4f52	; 0x4f52 <__fixunssfsi>
    15c4:	c9 58       	subi	r28, 0x89	; 137
    15c6:	dd 4f       	sbci	r29, 0xFD	; 253
    15c8:	68 83       	st	Y, r22
    15ca:	79 83       	std	Y+1, r23	; 0x01
    15cc:	8a 83       	std	Y+2, r24	; 0x02
    15ce:	9b 83       	std	Y+3, r25	; 0x03
    15d0:	c7 57       	subi	r28, 0x77	; 119
    15d2:	d2 40       	sbci	r29, 0x02	; 2
    15d4:	c9 58       	subi	r28, 0x89	; 137
    15d6:	dd 4f       	sbci	r29, 0xFD	; 253
    15d8:	88 81       	ld	r24, Y
    15da:	99 81       	ldd	r25, Y+1	; 0x01
    15dc:	c7 57       	subi	r28, 0x77	; 119
    15de:	d2 40       	sbci	r29, 0x02	; 2
    15e0:	f8 01       	movw	r30, r16
    15e2:	91 83       	std	Z+1, r25	; 0x01
    15e4:	80 83       	st	Z, r24

000015e6 <.L51>:
    15e6:	ce 01       	movw	r24, r28
    15e8:	85 5a       	subi	r24, 0xA5	; 165
    15ea:	9f 4f       	sbci	r25, 0xFF	; 255
    15ec:	9e 01       	movw	r18, r28
    15ee:	29 5a       	subi	r18, 0xA9	; 169
    15f0:	3f 4f       	sbci	r19, 0xFF	; 255
    15f2:	d9 01       	movw	r26, r18
    15f4:	2d 91       	ld	r18, X+
    15f6:	3c 91       	ld	r19, X
    15f8:	fc 01       	movw	r30, r24
    15fa:	31 83       	std	Z+1, r19	; 0x01
    15fc:	20 83       	st	Z, r18

000015fe <.LBB204>:
    15fe:	ce 01       	movw	r24, r28
    1600:	85 5a       	subi	r24, 0xA5	; 165
    1602:	9f 4f       	sbci	r25, 0xFF	; 255
    1604:	dc 01       	movw	r26, r24
    1606:	8d 91       	ld	r24, X+
    1608:	9c 91       	ld	r25, X
    160a:	11 97       	sbiw	r26, 0x01	; 1

0000160c <.L1^B12>:
    160c:	01 97       	sbiw	r24, 0x01	; 1
    160e:	f1 f7       	brne	.-4      	; 0x160c <.L1^B12>
    1610:	9e 01       	movw	r18, r28
    1612:	25 5a       	subi	r18, 0xA5	; 165
    1614:	3f 4f       	sbci	r19, 0xFF	; 255
    1616:	f9 01       	movw	r30, r18
    1618:	91 83       	std	Z+1, r25	; 0x01
    161a:	80 83       	st	Z, r24

0000161c <.Loc.191>:
	...

0000161e <.L56>:
                {
                    DEBOUNCE;
                    if (x <= 3)
    161e:	8d 81       	ldd	r24, Y+5	; 0x05
    1620:	9e 81       	ldd	r25, Y+6	; 0x06
    1622:	83 30       	cpi	r24, 0x03	; 3
    1624:	91 05       	cpc	r25, r1
    1626:	09 f0       	breq	.+2      	; 0x162a <.Loc.193>

00001628 <L0^A>:
    1628:	04 f5       	brge	.+64     	; 0x166a <.L57>

0000162a <.Loc.193>:
                    {
                        PORTB &= ~(1<<besturingx[x]);
    162a:	85 e2       	ldi	r24, 0x25	; 37
    162c:	90 e0       	ldi	r25, 0x00	; 0
    162e:	dc 01       	movw	r26, r24
    1630:	8c 91       	ld	r24, X
    1632:	48 2f       	mov	r20, r24

00001634 <.Loc.194>:
    1634:	9e 01       	movw	r18, r28
    1636:	21 56       	subi	r18, 0x61	; 97
    1638:	3e 4f       	sbci	r19, 0xFE	; 254
    163a:	8d 81       	ldd	r24, Y+5	; 0x05
    163c:	9e 81       	ldd	r25, Y+6	; 0x06
    163e:	88 0f       	add	r24, r24
    1640:	99 1f       	adc	r25, r25
    1642:	82 0f       	add	r24, r18
    1644:	93 1f       	adc	r25, r19
    1646:	fc 01       	movw	r30, r24
    1648:	20 81       	ld	r18, Z
    164a:	31 81       	ldd	r19, Z+1	; 0x01

0000164c <.Loc.195>:
    164c:	81 e0       	ldi	r24, 0x01	; 1
    164e:	90 e0       	ldi	r25, 0x00	; 0
    1650:	02 c0       	rjmp	.+4      	; 0x1656 <.L2^B3>

00001652 <.L1^B13>:
    1652:	88 0f       	add	r24, r24
    1654:	99 1f       	adc	r25, r25

00001656 <.L2^B3>:
    1656:	2a 95       	dec	r18
    1658:	e2 f7       	brpl	.-8      	; 0x1652 <.L1^B13>

0000165a <.Loc.196>:
    165a:	80 95       	com	r24
    165c:	24 2f       	mov	r18, r20
    165e:	28 23       	and	r18, r24

00001660 <.Loc.197>:
    1660:	85 e2       	ldi	r24, 0x25	; 37
    1662:	90 e0       	ldi	r25, 0x00	; 0

00001664 <.Loc.198>:
    1664:	dc 01       	movw	r26, r24
    1666:	2c 93       	st	X, r18
    1668:	26 c0       	rjmp	.+76     	; 0x16b6 <.L58>

0000166a <.L57>:
                    }
                    else if (x > 3)
    166a:	8d 81       	ldd	r24, Y+5	; 0x05
    166c:	9e 81       	ldd	r25, Y+6	; 0x06
    166e:	83 30       	cpi	r24, 0x03	; 3
    1670:	91 05       	cpc	r25, r1
    1672:	09 f1       	breq	.+66     	; 0x16b6 <.L58>
    1674:	04 f1       	brlt	.+64     	; 0x16b6 <.L58>

00001676 <.Loc.200>:
                    {
                        PORTL &= ~(1<<besturingx[x]);
    1676:	8b e0       	ldi	r24, 0x0B	; 11
    1678:	91 e0       	ldi	r25, 0x01	; 1
    167a:	fc 01       	movw	r30, r24
    167c:	80 81       	ld	r24, Z
    167e:	48 2f       	mov	r20, r24

00001680 <.Loc.201>:
    1680:	9e 01       	movw	r18, r28
    1682:	21 56       	subi	r18, 0x61	; 97
    1684:	3e 4f       	sbci	r19, 0xFE	; 254
    1686:	8d 81       	ldd	r24, Y+5	; 0x05
    1688:	9e 81       	ldd	r25, Y+6	; 0x06
    168a:	88 0f       	add	r24, r24
    168c:	99 1f       	adc	r25, r25
    168e:	82 0f       	add	r24, r18
    1690:	93 1f       	adc	r25, r19
    1692:	dc 01       	movw	r26, r24
    1694:	2d 91       	ld	r18, X+
    1696:	3c 91       	ld	r19, X
    1698:	11 97       	sbiw	r26, 0x01	; 1

0000169a <.Loc.202>:
    169a:	81 e0       	ldi	r24, 0x01	; 1
    169c:	90 e0       	ldi	r25, 0x00	; 0
    169e:	02 c0       	rjmp	.+4      	; 0x16a4 <.L2^B4>

000016a0 <.L1^B14>:
    16a0:	88 0f       	add	r24, r24
    16a2:	99 1f       	adc	r25, r25

000016a4 <.L2^B4>:
    16a4:	2a 95       	dec	r18
    16a6:	e2 f7       	brpl	.-8      	; 0x16a0 <.L1^B14>

000016a8 <.Loc.203>:
    16a8:	80 95       	com	r24
    16aa:	24 2f       	mov	r18, r20
    16ac:	28 23       	and	r18, r24

000016ae <.Loc.204>:
    16ae:	8b e0       	ldi	r24, 0x0B	; 11
    16b0:	91 e0       	ldi	r25, 0x01	; 1

000016b2 <.Loc.205>:
    16b2:	fc 01       	movw	r30, r24
    16b4:	20 83       	st	Z, r18

000016b6 <.L58>:
                    }
                    x--;
    16b6:	8d 81       	ldd	r24, Y+5	; 0x05
    16b8:	9e 81       	ldd	r25, Y+6	; 0x06
    16ba:	01 97       	sbiw	r24, 0x01	; 1
    16bc:	9e 83       	std	Y+6, r25	; 0x06
    16be:	8d 83       	std	Y+5, r24	; 0x05

000016c0 <.L40>:
                }
            }
            if (x <= 3)                                                 // eerste 3 ledjes x-as
    16c0:	8d 81       	ldd	r24, Y+5	; 0x05
    16c2:	9e 81       	ldd	r25, Y+6	; 0x06
    16c4:	83 30       	cpi	r24, 0x03	; 3
    16c6:	91 05       	cpc	r25, r1
    16c8:	09 f0       	breq	.+2      	; 0x16cc <.Loc.208>

000016ca <L0^A>:
    16ca:	f4 f4       	brge	.+60     	; 0x1708 <.L59>

000016cc <.Loc.208>:
            {
                PORTB |= (1<<besturingx[x]);
    16cc:	85 e2       	ldi	r24, 0x25	; 37
    16ce:	90 e0       	ldi	r25, 0x00	; 0
    16d0:	dc 01       	movw	r26, r24
    16d2:	8c 91       	ld	r24, X
    16d4:	48 2f       	mov	r20, r24

000016d6 <.Loc.209>:
    16d6:	9e 01       	movw	r18, r28
    16d8:	21 56       	subi	r18, 0x61	; 97
    16da:	3e 4f       	sbci	r19, 0xFE	; 254
    16dc:	8d 81       	ldd	r24, Y+5	; 0x05
    16de:	9e 81       	ldd	r25, Y+6	; 0x06
    16e0:	88 0f       	add	r24, r24
    16e2:	99 1f       	adc	r25, r25
    16e4:	82 0f       	add	r24, r18
    16e6:	93 1f       	adc	r25, r19
    16e8:	fc 01       	movw	r30, r24
    16ea:	20 81       	ld	r18, Z
    16ec:	31 81       	ldd	r19, Z+1	; 0x01

000016ee <.Loc.210>:
    16ee:	81 e0       	ldi	r24, 0x01	; 1
    16f0:	90 e0       	ldi	r25, 0x00	; 0
    16f2:	02 c0       	rjmp	.+4      	; 0x16f8 <.L2^B5>

000016f4 <.L1^B15>:
    16f4:	88 0f       	add	r24, r24
    16f6:	99 1f       	adc	r25, r25

000016f8 <.L2^B5>:
    16f8:	2a 95       	dec	r18
    16fa:	e2 f7       	brpl	.-8      	; 0x16f4 <.L1^B15>

000016fc <.Loc.211>:
    16fc:	24 2f       	mov	r18, r20
    16fe:	28 2b       	or	r18, r24

00001700 <.Loc.212>:
    1700:	85 e2       	ldi	r24, 0x25	; 37
    1702:	90 e0       	ldi	r25, 0x00	; 0

00001704 <.Loc.213>:
    1704:	dc 01       	movw	r26, r24
    1706:	2c 93       	st	X, r18

00001708 <.L59>:
            }
            if (x < 0)                                                  // laatste 4 ledjes weer uit x-as
    1708:	8d 81       	ldd	r24, Y+5	; 0x05
    170a:	9e 81       	ldd	r25, Y+6	; 0x06
    170c:	99 23       	and	r25, r25
    170e:	24 f5       	brge	.+72     	; 0x1758 <.L60>

00001710 <.Loc.215>:
            {
                PORTB &= ~(1<<besturingx[x]);
    1710:	85 e2       	ldi	r24, 0x25	; 37
    1712:	90 e0       	ldi	r25, 0x00	; 0
    1714:	fc 01       	movw	r30, r24
    1716:	80 81       	ld	r24, Z
    1718:	48 2f       	mov	r20, r24

0000171a <.Loc.216>:
    171a:	9e 01       	movw	r18, r28
    171c:	21 56       	subi	r18, 0x61	; 97
    171e:	3e 4f       	sbci	r19, 0xFE	; 254
    1720:	8d 81       	ldd	r24, Y+5	; 0x05
    1722:	9e 81       	ldd	r25, Y+6	; 0x06
    1724:	88 0f       	add	r24, r24
    1726:	99 1f       	adc	r25, r25
    1728:	82 0f       	add	r24, r18
    172a:	93 1f       	adc	r25, r19
    172c:	dc 01       	movw	r26, r24
    172e:	2d 91       	ld	r18, X+
    1730:	3c 91       	ld	r19, X
    1732:	11 97       	sbiw	r26, 0x01	; 1

00001734 <.Loc.217>:
    1734:	81 e0       	ldi	r24, 0x01	; 1
    1736:	90 e0       	ldi	r25, 0x00	; 0
    1738:	02 c0       	rjmp	.+4      	; 0x173e <.L2^B6>

0000173a <.L1^B16>:
    173a:	88 0f       	add	r24, r24
    173c:	99 1f       	adc	r25, r25

0000173e <.L2^B6>:
    173e:	2a 95       	dec	r18
    1740:	e2 f7       	brpl	.-8      	; 0x173a <.L1^B16>

00001742 <.Loc.218>:
    1742:	80 95       	com	r24
    1744:	24 2f       	mov	r18, r20
    1746:	28 23       	and	r18, r24

00001748 <.Loc.219>:
    1748:	85 e2       	ldi	r24, 0x25	; 37
    174a:	90 e0       	ldi	r25, 0x00	; 0

0000174c <.Loc.220>:
    174c:	fc 01       	movw	r30, r24
    174e:	20 83       	st	Z, r18

00001750 <.Loc.221>:
                x = 6;                                                  // x weer op 6
    1750:	86 e0       	ldi	r24, 0x06	; 6
    1752:	90 e0       	ldi	r25, 0x00	; 0
    1754:	9e 83       	std	Y+6, r25	; 0x06
    1756:	8d 83       	std	Y+5, r24	; 0x05

00001758 <.L60>:
            }
            if (x > 3)                                                  // laatste 4 ledjes x-as
    1758:	8d 81       	ldd	r24, Y+5	; 0x05
    175a:	9e 81       	ldd	r25, Y+6	; 0x06
    175c:	83 30       	cpi	r24, 0x03	; 3
    175e:	91 05       	cpc	r25, r1
    1760:	f9 f0       	breq	.+62     	; 0x17a0 <.L61>
    1762:	f4 f0       	brlt	.+60     	; 0x17a0 <.L61>

00001764 <.Loc.223>:
            {
                PORTL |= (1<<besturingx[x]);
    1764:	8b e0       	ldi	r24, 0x0B	; 11
    1766:	91 e0       	ldi	r25, 0x01	; 1
    1768:	dc 01       	movw	r26, r24
    176a:	8c 91       	ld	r24, X
    176c:	48 2f       	mov	r20, r24

0000176e <.Loc.224>:
    176e:	9e 01       	movw	r18, r28
    1770:	21 56       	subi	r18, 0x61	; 97
    1772:	3e 4f       	sbci	r19, 0xFE	; 254
    1774:	8d 81       	ldd	r24, Y+5	; 0x05
    1776:	9e 81       	ldd	r25, Y+6	; 0x06
    1778:	88 0f       	add	r24, r24
    177a:	99 1f       	adc	r25, r25
    177c:	82 0f       	add	r24, r18
    177e:	93 1f       	adc	r25, r19
    1780:	fc 01       	movw	r30, r24
    1782:	20 81       	ld	r18, Z
    1784:	31 81       	ldd	r19, Z+1	; 0x01

00001786 <.Loc.225>:
    1786:	81 e0       	ldi	r24, 0x01	; 1
    1788:	90 e0       	ldi	r25, 0x00	; 0
    178a:	02 c0       	rjmp	.+4      	; 0x1790 <.L2^B7>

0000178c <.L1^B17>:
    178c:	88 0f       	add	r24, r24
    178e:	99 1f       	adc	r25, r25

00001790 <.L2^B7>:
    1790:	2a 95       	dec	r18
    1792:	e2 f7       	brpl	.-8      	; 0x178c <.L1^B17>

00001794 <.Loc.226>:
    1794:	24 2f       	mov	r18, r20
    1796:	28 2b       	or	r18, r24

00001798 <.Loc.227>:
    1798:	8b e0       	ldi	r24, 0x0B	; 11
    179a:	91 e0       	ldi	r25, 0x01	; 1

0000179c <.Loc.228>:
    179c:	dc 01       	movw	r26, r24
    179e:	2c 93       	st	X, r18

000017a0 <.L61>:
            }
            if (x > 6)                                                  // eerste 3 ledjes weer uit x-as
    17a0:	8d 81       	ldd	r24, Y+5	; 0x05
    17a2:	9e 81       	ldd	r25, Y+6	; 0x06
    17a4:	86 30       	cpi	r24, 0x06	; 6
    17a6:	91 05       	cpc	r25, r1
    17a8:	11 f1       	breq	.+68     	; 0x17ee <.L62>
    17aa:	0c f1       	brlt	.+66     	; 0x17ee <.L62>

000017ac <.Loc.230>:
            {
                PORTL &= ~(1<<besturingx[x]);
    17ac:	8b e0       	ldi	r24, 0x0B	; 11
    17ae:	91 e0       	ldi	r25, 0x01	; 1
    17b0:	fc 01       	movw	r30, r24
    17b2:	80 81       	ld	r24, Z
    17b4:	48 2f       	mov	r20, r24

000017b6 <.Loc.231>:
    17b6:	9e 01       	movw	r18, r28
    17b8:	21 56       	subi	r18, 0x61	; 97
    17ba:	3e 4f       	sbci	r19, 0xFE	; 254
    17bc:	8d 81       	ldd	r24, Y+5	; 0x05
    17be:	9e 81       	ldd	r25, Y+6	; 0x06
    17c0:	88 0f       	add	r24, r24
    17c2:	99 1f       	adc	r25, r25
    17c4:	82 0f       	add	r24, r18
    17c6:	93 1f       	adc	r25, r19
    17c8:	dc 01       	movw	r26, r24
    17ca:	2d 91       	ld	r18, X+
    17cc:	3c 91       	ld	r19, X

000017ce <.Loc.232>:
    17ce:	81 e0       	ldi	r24, 0x01	; 1
    17d0:	90 e0       	ldi	r25, 0x00	; 0
    17d2:	02 c0       	rjmp	.+4      	; 0x17d8 <.L2^B8>

000017d4 <.L1^B18>:
    17d4:	88 0f       	add	r24, r24
    17d6:	99 1f       	adc	r25, r25

000017d8 <.L2^B8>:
    17d8:	2a 95       	dec	r18
    17da:	e2 f7       	brpl	.-8      	; 0x17d4 <.L1^B18>

000017dc <.Loc.233>:
    17dc:	80 95       	com	r24
    17de:	24 2f       	mov	r18, r20
    17e0:	28 23       	and	r18, r24

000017e2 <.Loc.234>:
    17e2:	8b e0       	ldi	r24, 0x0B	; 11
    17e4:	91 e0       	ldi	r25, 0x01	; 1

000017e6 <.Loc.235>:
    17e6:	fc 01       	movw	r30, r24
    17e8:	20 83       	st	Z, r18

000017ea <.Loc.236>:
                x = 0;
    17ea:	1e 82       	std	Y+6, r1	; 0x06
    17ec:	1d 82       	std	Y+5, r1	; 0x05

000017ee <.L62>:
            }
            if ((PINF & (1<<PF1)) != 0)
    17ee:	8f e2       	ldi	r24, 0x2F	; 47
    17f0:	90 e0       	ldi	r25, 0x00	; 0
    17f2:	dc 01       	movw	r26, r24
    17f4:	8c 91       	ld	r24, X

000017f6 <.Loc.238>:
    17f6:	88 2f       	mov	r24, r24
    17f8:	90 e0       	ldi	r25, 0x00	; 0
    17fa:	82 70       	andi	r24, 0x02	; 2
    17fc:	99 27       	eor	r25, r25

000017fe <.Loc.239>:
    17fe:	00 97       	sbiw	r24, 0x00	; 0
    1800:	11 f4       	brne	.+4      	; 0x1806 <L0^A+0x4>

00001802 <L0^A>:
    1802:	0c 94 0f 27 	jmp	0x4e1e	; 0x4e1e <.L389>
    1806:	9e 01       	movw	r18, r28
    1808:	23 5a       	subi	r18, 0xA3	; 163
    180a:	3f 4f       	sbci	r19, 0xFF	; 255
    180c:	80 e0       	ldi	r24, 0x00	; 0
    180e:	90 e0       	ldi	r25, 0x00	; 0
    1810:	a0 ef       	ldi	r26, 0xF0	; 240
    1812:	b1 e4       	ldi	r27, 0x41	; 65
    1814:	f9 01       	movw	r30, r18
    1816:	80 83       	st	Z, r24
    1818:	91 83       	std	Z+1, r25	; 0x01
    181a:	a2 83       	std	Z+2, r26	; 0x02
    181c:	b3 83       	std	Z+3, r27	; 0x03

0000181e <.LBB206>:
	__tmp = ((F_CPU) / 4e3) * __ms;
    181e:	8e 01       	movw	r16, r28
    1820:	0f 59       	subi	r16, 0x9F	; 159
    1822:	1f 4f       	sbci	r17, 0xFF	; 255
    1824:	ce 01       	movw	r24, r28
    1826:	83 5a       	subi	r24, 0xA3	; 163
    1828:	9f 4f       	sbci	r25, 0xFF	; 255
    182a:	20 e0       	ldi	r18, 0x00	; 0
    182c:	30 e0       	ldi	r19, 0x00	; 0
    182e:	4a e7       	ldi	r20, 0x7A	; 122
    1830:	55 e4       	ldi	r21, 0x45	; 69
    1832:	dc 01       	movw	r26, r24
    1834:	6d 91       	ld	r22, X+
    1836:	7d 91       	ld	r23, X+
    1838:	8d 91       	ld	r24, X+
    183a:	9c 91       	ld	r25, X
    183c:	0e 94 2a 28 	call	0x5054	; 0x5054 <__mulsf3>
    1840:	c5 58       	subi	r28, 0x85	; 133
    1842:	dd 4f       	sbci	r29, 0xFD	; 253
    1844:	68 83       	st	Y, r22
    1846:	79 83       	std	Y+1, r23	; 0x01
    1848:	8a 83       	std	Y+2, r24	; 0x02
    184a:	9b 83       	std	Y+3, r25	; 0x03
    184c:	cb 57       	subi	r28, 0x7B	; 123
    184e:	d2 40       	sbci	r29, 0x02	; 2
    1850:	c5 58       	subi	r28, 0x85	; 133
    1852:	dd 4f       	sbci	r29, 0xFD	; 253
    1854:	88 81       	ld	r24, Y
    1856:	99 81       	ldd	r25, Y+1	; 0x01
    1858:	aa 81       	ldd	r26, Y+2	; 0x02
    185a:	bb 81       	ldd	r27, Y+3	; 0x03
    185c:	cb 57       	subi	r28, 0x7B	; 123
    185e:	d2 40       	sbci	r29, 0x02	; 2
    1860:	f8 01       	movw	r30, r16
    1862:	80 83       	st	Z, r24
    1864:	91 83       	std	Z+1, r25	; 0x01
    1866:	a2 83       	std	Z+2, r26	; 0x02
    1868:	b3 83       	std	Z+3, r27	; 0x03

0000186a <.Loc.241>:
	if (__tmp < 1.0)
    186a:	ce 01       	movw	r24, r28
    186c:	8f 59       	subi	r24, 0x9F	; 159
    186e:	9f 4f       	sbci	r25, 0xFF	; 255
    1870:	20 e0       	ldi	r18, 0x00	; 0
    1872:	30 e0       	ldi	r19, 0x00	; 0
    1874:	40 e8       	ldi	r20, 0x80	; 128
    1876:	5f e3       	ldi	r21, 0x3F	; 63
    1878:	dc 01       	movw	r26, r24
    187a:	6d 91       	ld	r22, X+
    187c:	7d 91       	ld	r23, X+
    187e:	8d 91       	ld	r24, X+
    1880:	9c 91       	ld	r25, X
    1882:	0e 94 a4 27 	call	0x4f48	; 0x4f48 <__cmpsf2>
    1886:	88 23       	and	r24, r24
    1888:	4c f4       	brge	.+18     	; 0x189c <.L343>

0000188a <.Loc.242>:
		__ticks = 1;
    188a:	ce 01       	movw	r24, r28
    188c:	8b 59       	subi	r24, 0x9B	; 155
    188e:	9f 4f       	sbci	r25, 0xFF	; 255
    1890:	21 e0       	ldi	r18, 0x01	; 1
    1892:	30 e0       	ldi	r19, 0x00	; 0
    1894:	fc 01       	movw	r30, r24
    1896:	31 83       	std	Z+1, r19	; 0x01
    1898:	20 83       	st	Z, r18
    189a:	a5 c0       	rjmp	.+330    	; 0x19e6 <.L66>

0000189c <.L343>:
	else if (__tmp > 65535)
    189c:	ce 01       	movw	r24, r28
    189e:	8f 59       	subi	r24, 0x9F	; 159
    18a0:	9f 4f       	sbci	r25, 0xFF	; 255
    18a2:	20 e0       	ldi	r18, 0x00	; 0
    18a4:	3f ef       	ldi	r19, 0xFF	; 255
    18a6:	4f e7       	ldi	r20, 0x7F	; 127
    18a8:	57 e4       	ldi	r21, 0x47	; 71
    18aa:	dc 01       	movw	r26, r24
    18ac:	6d 91       	ld	r22, X+
    18ae:	7d 91       	ld	r23, X+
    18b0:	8d 91       	ld	r24, X+
    18b2:	9c 91       	ld	r25, X
    18b4:	0e 94 25 28 	call	0x504a	; 0x504a <__gesf2>
    18b8:	88 23       	and	r24, r24
    18ba:	09 f0       	breq	.+2      	; 0x18be <L0^A>

000018bc <L0^A>:
    18bc:	0c f4       	brge	.+2      	; 0x18c0 <.Loc.244>

000018be <L0^A>:
    18be:	75 c0       	rjmp	.+234    	; 0x19aa <.L344>

000018c0 <.Loc.244>:
		__ticks = (uint16_t) (__ms * 10.0);
    18c0:	ce 01       	movw	r24, r28
    18c2:	83 5a       	subi	r24, 0xA3	; 163
    18c4:	9f 4f       	sbci	r25, 0xFF	; 255
    18c6:	20 e0       	ldi	r18, 0x00	; 0
    18c8:	30 e0       	ldi	r19, 0x00	; 0
    18ca:	40 e2       	ldi	r20, 0x20	; 32
    18cc:	51 e4       	ldi	r21, 0x41	; 65
    18ce:	fc 01       	movw	r30, r24
    18d0:	60 81       	ld	r22, Z
    18d2:	71 81       	ldd	r23, Z+1	; 0x01
    18d4:	82 81       	ldd	r24, Z+2	; 0x02
    18d6:	93 81       	ldd	r25, Z+3	; 0x03
    18d8:	0e 94 2a 28 	call	0x5054	; 0x5054 <__mulsf3>
    18dc:	c1 58       	subi	r28, 0x81	; 129
    18de:	dd 4f       	sbci	r29, 0xFD	; 253
    18e0:	68 83       	st	Y, r22
    18e2:	79 83       	std	Y+1, r23	; 0x01
    18e4:	8a 83       	std	Y+2, r24	; 0x02
    18e6:	9b 83       	std	Y+3, r25	; 0x03
    18e8:	cf 57       	subi	r28, 0x7F	; 127
    18ea:	d2 40       	sbci	r29, 0x02	; 2
    18ec:	c1 58       	subi	r28, 0x81	; 129
    18ee:	dd 4f       	sbci	r29, 0xFD	; 253
    18f0:	88 81       	ld	r24, Y
    18f2:	99 81       	ldd	r25, Y+1	; 0x01
    18f4:	aa 81       	ldd	r26, Y+2	; 0x02
    18f6:	bb 81       	ldd	r27, Y+3	; 0x03
    18f8:	cf 57       	subi	r28, 0x7F	; 127
    18fa:	d2 40       	sbci	r29, 0x02	; 2
    18fc:	c1 53       	subi	r28, 0x31	; 49
    18fe:	de 4f       	sbci	r29, 0xFE	; 254
    1900:	88 83       	st	Y, r24
    1902:	99 83       	std	Y+1, r25	; 0x01
    1904:	aa 83       	std	Y+2, r26	; 0x02
    1906:	bb 83       	std	Y+3, r27	; 0x03
    1908:	cf 5c       	subi	r28, 0xCF	; 207
    190a:	d1 40       	sbci	r29, 0x01	; 1

0000190c <.Loc.245>:
    190c:	8e 01       	movw	r16, r28
    190e:	0b 59       	subi	r16, 0x9B	; 155
    1910:	1f 4f       	sbci	r17, 0xFF	; 255
    1912:	c1 53       	subi	r28, 0x31	; 49
    1914:	de 4f       	sbci	r29, 0xFE	; 254
    1916:	68 81       	ld	r22, Y
    1918:	79 81       	ldd	r23, Y+1	; 0x01
    191a:	8a 81       	ldd	r24, Y+2	; 0x02
    191c:	9b 81       	ldd	r25, Y+3	; 0x03
    191e:	cf 5c       	subi	r28, 0xCF	; 207
    1920:	d1 40       	sbci	r29, 0x01	; 1
    1922:	0e 94 a9 27 	call	0x4f52	; 0x4f52 <__fixunssfsi>
    1926:	cd 57       	subi	r28, 0x7D	; 125
    1928:	dd 4f       	sbci	r29, 0xFD	; 253
    192a:	68 83       	st	Y, r22
    192c:	79 83       	std	Y+1, r23	; 0x01
    192e:	8a 83       	std	Y+2, r24	; 0x02
    1930:	9b 83       	std	Y+3, r25	; 0x03
    1932:	c3 58       	subi	r28, 0x83	; 131
    1934:	d2 40       	sbci	r29, 0x02	; 2
    1936:	cd 57       	subi	r28, 0x7D	; 125
    1938:	dd 4f       	sbci	r29, 0xFD	; 253
    193a:	e8 81       	ld	r30, Y
    193c:	f9 81       	ldd	r31, Y+1	; 0x01
    193e:	c3 58       	subi	r28, 0x83	; 131
    1940:	d2 40       	sbci	r29, 0x02	; 2
    1942:	d8 01       	movw	r26, r16
    1944:	11 96       	adiw	r26, 0x01	; 1
    1946:	fc 93       	st	X, r31
    1948:	ee 93       	st	-X, r30

0000194a <.Loc.246>:
		while(__ticks)
    194a:	26 c0       	rjmp	.+76     	; 0x1998 <.L69>

0000194c <.L70>:
    194c:	ce 01       	movw	r24, r28
    194e:	89 59       	subi	r24, 0x99	; 153
    1950:	9f 4f       	sbci	r25, 0xFF	; 255
    1952:	20 e9       	ldi	r18, 0x90	; 144
    1954:	31 e0       	ldi	r19, 0x01	; 1
    1956:	dc 01       	movw	r26, r24
    1958:	2d 93       	st	X+, r18
    195a:	3c 93       	st	X, r19

0000195c <.LBB208>:
    195c:	ce 01       	movw	r24, r28
    195e:	89 59       	subi	r24, 0x99	; 153
    1960:	9f 4f       	sbci	r25, 0xFF	; 255
    1962:	fc 01       	movw	r30, r24
    1964:	80 81       	ld	r24, Z
    1966:	91 81       	ldd	r25, Z+1	; 0x01

00001968 <.L1^B19>:
    1968:	01 97       	sbiw	r24, 0x01	; 1
    196a:	f1 f7       	brne	.-4      	; 0x1968 <.L1^B19>
    196c:	9e 01       	movw	r18, r28
    196e:	29 59       	subi	r18, 0x99	; 153
    1970:	3f 4f       	sbci	r19, 0xFF	; 255
    1972:	d9 01       	movw	r26, r18
    1974:	8d 93       	st	X+, r24
    1976:	9c 93       	st	X, r25

00001978 <.Loc.248>:
	...

0000197a <.LBE208>:
			__ticks --;
    197a:	ce 01       	movw	r24, r28
    197c:	8b 59       	subi	r24, 0x9B	; 155
    197e:	9f 4f       	sbci	r25, 0xFF	; 255
    1980:	9e 01       	movw	r18, r28
    1982:	2b 59       	subi	r18, 0x9B	; 155
    1984:	3f 4f       	sbci	r19, 0xFF	; 255
    1986:	f9 01       	movw	r30, r18
    1988:	20 81       	ld	r18, Z
    198a:	31 81       	ldd	r19, Z+1	; 0x01
    198c:	21 50       	subi	r18, 0x01	; 1
    198e:	31 09       	sbc	r19, r1
    1990:	dc 01       	movw	r26, r24
    1992:	11 96       	adiw	r26, 0x01	; 1
    1994:	3c 93       	st	X, r19
    1996:	2e 93       	st	-X, r18

00001998 <.L69>:
		while(__ticks)
    1998:	ce 01       	movw	r24, r28
    199a:	8b 59       	subi	r24, 0x9B	; 155
    199c:	9f 4f       	sbci	r25, 0xFF	; 255
    199e:	fc 01       	movw	r30, r24
    19a0:	80 81       	ld	r24, Z
    19a2:	91 81       	ldd	r25, Z+1	; 0x01
    19a4:	00 97       	sbiw	r24, 0x00	; 0
    19a6:	91 f6       	brne	.-92     	; 0x194c <.L70>

000019a8 <.Loc.251>:
		return;
    19a8:	39 c0       	rjmp	.+114    	; 0x1a1c <.L71>

000019aa <.L344>:
		__ticks = (uint16_t)__tmp;
    19aa:	8e 01       	movw	r16, r28
    19ac:	0b 59       	subi	r16, 0x9B	; 155
    19ae:	1f 4f       	sbci	r17, 0xFF	; 255
    19b0:	ce 01       	movw	r24, r28
    19b2:	8f 59       	subi	r24, 0x9F	; 159
    19b4:	9f 4f       	sbci	r25, 0xFF	; 255
    19b6:	dc 01       	movw	r26, r24
    19b8:	6d 91       	ld	r22, X+
    19ba:	7d 91       	ld	r23, X+
    19bc:	8d 91       	ld	r24, X+
    19be:	9c 91       	ld	r25, X
    19c0:	0e 94 a9 27 	call	0x4f52	; 0x4f52 <__fixunssfsi>
    19c4:	c9 57       	subi	r28, 0x79	; 121
    19c6:	dd 4f       	sbci	r29, 0xFD	; 253
    19c8:	68 83       	st	Y, r22
    19ca:	79 83       	std	Y+1, r23	; 0x01
    19cc:	8a 83       	std	Y+2, r24	; 0x02
    19ce:	9b 83       	std	Y+3, r25	; 0x03
    19d0:	c7 58       	subi	r28, 0x87	; 135
    19d2:	d2 40       	sbci	r29, 0x02	; 2
    19d4:	c9 57       	subi	r28, 0x79	; 121
    19d6:	dd 4f       	sbci	r29, 0xFD	; 253
    19d8:	88 81       	ld	r24, Y
    19da:	99 81       	ldd	r25, Y+1	; 0x01
    19dc:	c7 58       	subi	r28, 0x87	; 135
    19de:	d2 40       	sbci	r29, 0x02	; 2
    19e0:	f8 01       	movw	r30, r16
    19e2:	91 83       	std	Z+1, r25	; 0x01
    19e4:	80 83       	st	Z, r24

000019e6 <.L66>:
    19e6:	ce 01       	movw	r24, r28
    19e8:	87 59       	subi	r24, 0x97	; 151
    19ea:	9f 4f       	sbci	r25, 0xFF	; 255
    19ec:	9e 01       	movw	r18, r28
    19ee:	2b 59       	subi	r18, 0x9B	; 155
    19f0:	3f 4f       	sbci	r19, 0xFF	; 255
    19f2:	d9 01       	movw	r26, r18
    19f4:	2d 91       	ld	r18, X+
    19f6:	3c 91       	ld	r19, X
    19f8:	fc 01       	movw	r30, r24
    19fa:	31 83       	std	Z+1, r19	; 0x01
    19fc:	20 83       	st	Z, r18

000019fe <.LBB210>:
    19fe:	ce 01       	movw	r24, r28
    1a00:	87 59       	subi	r24, 0x97	; 151
    1a02:	9f 4f       	sbci	r25, 0xFF	; 255
    1a04:	dc 01       	movw	r26, r24
    1a06:	8d 91       	ld	r24, X+
    1a08:	9c 91       	ld	r25, X

00001a0a <.L1^B20>:
    1a0a:	01 97       	sbiw	r24, 0x01	; 1
    1a0c:	f1 f7       	brne	.-4      	; 0x1a0a <.L1^B20>
    1a0e:	9e 01       	movw	r18, r28
    1a10:	27 59       	subi	r18, 0x97	; 151
    1a12:	3f 4f       	sbci	r19, 0xFF	; 255
    1a14:	f9 01       	movw	r30, r18
    1a16:	91 83       	std	Z+1, r25	; 0x01
    1a18:	80 83       	st	Z, r24

00001a1a <.Loc.254>:
	...

00001a1c <.L71>:
            {
                DEBOUNCE;
                if ((PINF & (1<<PF1)) == 0)
    1a1c:	8f e2       	ldi	r24, 0x2F	; 47
    1a1e:	90 e0       	ldi	r25, 0x00	; 0
    1a20:	dc 01       	movw	r26, r24
    1a22:	8c 91       	ld	r24, X

00001a24 <.Loc.256>:
    1a24:	88 2f       	mov	r24, r24
    1a26:	90 e0       	ldi	r25, 0x00	; 0
    1a28:	82 70       	andi	r24, 0x02	; 2
    1a2a:	99 27       	eor	r25, r25

00001a2c <.Loc.257>:
    1a2c:	00 97       	sbiw	r24, 0x00	; 0
    1a2e:	11 f0       	breq	.+4      	; 0x1a34 <L0^A+0x4>

00001a30 <L0^A>:
    1a30:	0c 94 0f 27 	jmp	0x4e1e	; 0x4e1e <.L389>
    1a34:	9e 01       	movw	r18, r28
    1a36:	25 59       	subi	r18, 0x95	; 149
    1a38:	3f 4f       	sbci	r19, 0xFF	; 255
    1a3a:	80 e0       	ldi	r24, 0x00	; 0
    1a3c:	90 e0       	ldi	r25, 0x00	; 0
    1a3e:	a0 ef       	ldi	r26, 0xF0	; 240
    1a40:	b1 e4       	ldi	r27, 0x41	; 65
    1a42:	f9 01       	movw	r30, r18
    1a44:	80 83       	st	Z, r24
    1a46:	91 83       	std	Z+1, r25	; 0x01
    1a48:	a2 83       	std	Z+2, r26	; 0x02
    1a4a:	b3 83       	std	Z+3, r27	; 0x03

00001a4c <.LBB212>:
	__tmp = ((F_CPU) / 4e3) * __ms;
    1a4c:	8e 01       	movw	r16, r28
    1a4e:	01 59       	subi	r16, 0x91	; 145
    1a50:	1f 4f       	sbci	r17, 0xFF	; 255
    1a52:	ce 01       	movw	r24, r28
    1a54:	85 59       	subi	r24, 0x95	; 149
    1a56:	9f 4f       	sbci	r25, 0xFF	; 255
    1a58:	20 e0       	ldi	r18, 0x00	; 0
    1a5a:	30 e0       	ldi	r19, 0x00	; 0
    1a5c:	4a e7       	ldi	r20, 0x7A	; 122
    1a5e:	55 e4       	ldi	r21, 0x45	; 69
    1a60:	dc 01       	movw	r26, r24
    1a62:	6d 91       	ld	r22, X+
    1a64:	7d 91       	ld	r23, X+
    1a66:	8d 91       	ld	r24, X+
    1a68:	9c 91       	ld	r25, X
    1a6a:	0e 94 2a 28 	call	0x5054	; 0x5054 <__mulsf3>
    1a6e:	c5 57       	subi	r28, 0x75	; 117
    1a70:	dd 4f       	sbci	r29, 0xFD	; 253
    1a72:	68 83       	st	Y, r22
    1a74:	79 83       	std	Y+1, r23	; 0x01
    1a76:	8a 83       	std	Y+2, r24	; 0x02
    1a78:	9b 83       	std	Y+3, r25	; 0x03
    1a7a:	cb 58       	subi	r28, 0x8B	; 139
    1a7c:	d2 40       	sbci	r29, 0x02	; 2
    1a7e:	c5 57       	subi	r28, 0x75	; 117
    1a80:	dd 4f       	sbci	r29, 0xFD	; 253
    1a82:	88 81       	ld	r24, Y
    1a84:	99 81       	ldd	r25, Y+1	; 0x01
    1a86:	aa 81       	ldd	r26, Y+2	; 0x02
    1a88:	bb 81       	ldd	r27, Y+3	; 0x03
    1a8a:	cb 58       	subi	r28, 0x8B	; 139
    1a8c:	d2 40       	sbci	r29, 0x02	; 2
    1a8e:	f8 01       	movw	r30, r16
    1a90:	80 83       	st	Z, r24
    1a92:	91 83       	std	Z+1, r25	; 0x01
    1a94:	a2 83       	std	Z+2, r26	; 0x02
    1a96:	b3 83       	std	Z+3, r27	; 0x03

00001a98 <.Loc.259>:
	if (__tmp < 1.0)
    1a98:	ce 01       	movw	r24, r28
    1a9a:	81 59       	subi	r24, 0x91	; 145
    1a9c:	9f 4f       	sbci	r25, 0xFF	; 255
    1a9e:	20 e0       	ldi	r18, 0x00	; 0
    1aa0:	30 e0       	ldi	r19, 0x00	; 0
    1aa2:	40 e8       	ldi	r20, 0x80	; 128
    1aa4:	5f e3       	ldi	r21, 0x3F	; 63
    1aa6:	dc 01       	movw	r26, r24
    1aa8:	6d 91       	ld	r22, X+
    1aaa:	7d 91       	ld	r23, X+
    1aac:	8d 91       	ld	r24, X+
    1aae:	9c 91       	ld	r25, X
    1ab0:	0e 94 a4 27 	call	0x4f48	; 0x4f48 <__cmpsf2>
    1ab4:	88 23       	and	r24, r24
    1ab6:	4c f4       	brge	.+18     	; 0x1aca <.L345>

00001ab8 <.Loc.260>:
		__ticks = 1;
    1ab8:	ce 01       	movw	r24, r28
    1aba:	8d 58       	subi	r24, 0x8D	; 141
    1abc:	9f 4f       	sbci	r25, 0xFF	; 255
    1abe:	21 e0       	ldi	r18, 0x01	; 1
    1ac0:	30 e0       	ldi	r19, 0x00	; 0
    1ac2:	fc 01       	movw	r30, r24
    1ac4:	31 83       	std	Z+1, r19	; 0x01
    1ac6:	20 83       	st	Z, r18
    1ac8:	a5 c0       	rjmp	.+330    	; 0x1c14 <.L74>

00001aca <.L345>:
	else if (__tmp > 65535)
    1aca:	ce 01       	movw	r24, r28
    1acc:	81 59       	subi	r24, 0x91	; 145
    1ace:	9f 4f       	sbci	r25, 0xFF	; 255
    1ad0:	20 e0       	ldi	r18, 0x00	; 0
    1ad2:	3f ef       	ldi	r19, 0xFF	; 255
    1ad4:	4f e7       	ldi	r20, 0x7F	; 127
    1ad6:	57 e4       	ldi	r21, 0x47	; 71
    1ad8:	dc 01       	movw	r26, r24
    1ada:	6d 91       	ld	r22, X+
    1adc:	7d 91       	ld	r23, X+
    1ade:	8d 91       	ld	r24, X+
    1ae0:	9c 91       	ld	r25, X
    1ae2:	0e 94 25 28 	call	0x504a	; 0x504a <__gesf2>
    1ae6:	88 23       	and	r24, r24
    1ae8:	09 f0       	breq	.+2      	; 0x1aec <L0^A>

00001aea <L0^A>:
    1aea:	0c f4       	brge	.+2      	; 0x1aee <.Loc.262>

00001aec <L0^A>:
    1aec:	75 c0       	rjmp	.+234    	; 0x1bd8 <.L346>

00001aee <.Loc.262>:
		__ticks = (uint16_t) (__ms * 10.0);
    1aee:	ce 01       	movw	r24, r28
    1af0:	85 59       	subi	r24, 0x95	; 149
    1af2:	9f 4f       	sbci	r25, 0xFF	; 255
    1af4:	20 e0       	ldi	r18, 0x00	; 0
    1af6:	30 e0       	ldi	r19, 0x00	; 0
    1af8:	40 e2       	ldi	r20, 0x20	; 32
    1afa:	51 e4       	ldi	r21, 0x41	; 65
    1afc:	fc 01       	movw	r30, r24
    1afe:	60 81       	ld	r22, Z
    1b00:	71 81       	ldd	r23, Z+1	; 0x01
    1b02:	82 81       	ldd	r24, Z+2	; 0x02
    1b04:	93 81       	ldd	r25, Z+3	; 0x03
    1b06:	0e 94 2a 28 	call	0x5054	; 0x5054 <__mulsf3>
    1b0a:	c1 57       	subi	r28, 0x71	; 113
    1b0c:	dd 4f       	sbci	r29, 0xFD	; 253
    1b0e:	68 83       	st	Y, r22
    1b10:	79 83       	std	Y+1, r23	; 0x01
    1b12:	8a 83       	std	Y+2, r24	; 0x02
    1b14:	9b 83       	std	Y+3, r25	; 0x03
    1b16:	cf 58       	subi	r28, 0x8F	; 143
    1b18:	d2 40       	sbci	r29, 0x02	; 2
    1b1a:	c1 57       	subi	r28, 0x71	; 113
    1b1c:	dd 4f       	sbci	r29, 0xFD	; 253
    1b1e:	88 81       	ld	r24, Y
    1b20:	99 81       	ldd	r25, Y+1	; 0x01
    1b22:	aa 81       	ldd	r26, Y+2	; 0x02
    1b24:	bb 81       	ldd	r27, Y+3	; 0x03
    1b26:	cf 58       	subi	r28, 0x8F	; 143
    1b28:	d2 40       	sbci	r29, 0x02	; 2
    1b2a:	cd 52       	subi	r28, 0x2D	; 45
    1b2c:	de 4f       	sbci	r29, 0xFE	; 254
    1b2e:	88 83       	st	Y, r24
    1b30:	99 83       	std	Y+1, r25	; 0x01
    1b32:	aa 83       	std	Y+2, r26	; 0x02
    1b34:	bb 83       	std	Y+3, r27	; 0x03
    1b36:	c3 5d       	subi	r28, 0xD3	; 211
    1b38:	d1 40       	sbci	r29, 0x01	; 1

00001b3a <.Loc.263>:
    1b3a:	8e 01       	movw	r16, r28
    1b3c:	0d 58       	subi	r16, 0x8D	; 141
    1b3e:	1f 4f       	sbci	r17, 0xFF	; 255
    1b40:	cd 52       	subi	r28, 0x2D	; 45
    1b42:	de 4f       	sbci	r29, 0xFE	; 254
    1b44:	68 81       	ld	r22, Y
    1b46:	79 81       	ldd	r23, Y+1	; 0x01
    1b48:	8a 81       	ldd	r24, Y+2	; 0x02
    1b4a:	9b 81       	ldd	r25, Y+3	; 0x03
    1b4c:	c3 5d       	subi	r28, 0xD3	; 211
    1b4e:	d1 40       	sbci	r29, 0x01	; 1
    1b50:	0e 94 a9 27 	call	0x4f52	; 0x4f52 <__fixunssfsi>
    1b54:	cd 56       	subi	r28, 0x6D	; 109
    1b56:	dd 4f       	sbci	r29, 0xFD	; 253
    1b58:	68 83       	st	Y, r22
    1b5a:	79 83       	std	Y+1, r23	; 0x01
    1b5c:	8a 83       	std	Y+2, r24	; 0x02
    1b5e:	9b 83       	std	Y+3, r25	; 0x03
    1b60:	c3 59       	subi	r28, 0x93	; 147
    1b62:	d2 40       	sbci	r29, 0x02	; 2
    1b64:	cd 56       	subi	r28, 0x6D	; 109
    1b66:	dd 4f       	sbci	r29, 0xFD	; 253
    1b68:	e8 81       	ld	r30, Y
    1b6a:	f9 81       	ldd	r31, Y+1	; 0x01
    1b6c:	c3 59       	subi	r28, 0x93	; 147
    1b6e:	d2 40       	sbci	r29, 0x02	; 2
    1b70:	d8 01       	movw	r26, r16
    1b72:	11 96       	adiw	r26, 0x01	; 1
    1b74:	fc 93       	st	X, r31
    1b76:	ee 93       	st	-X, r30

00001b78 <.Loc.264>:
		while(__ticks)
    1b78:	26 c0       	rjmp	.+76     	; 0x1bc6 <.L77>

00001b7a <.L78>:
    1b7a:	ce 01       	movw	r24, r28
    1b7c:	8b 58       	subi	r24, 0x8B	; 139
    1b7e:	9f 4f       	sbci	r25, 0xFF	; 255
    1b80:	20 e9       	ldi	r18, 0x90	; 144
    1b82:	31 e0       	ldi	r19, 0x01	; 1
    1b84:	dc 01       	movw	r26, r24
    1b86:	2d 93       	st	X+, r18
    1b88:	3c 93       	st	X, r19

00001b8a <.LBB214>:
    1b8a:	ce 01       	movw	r24, r28
    1b8c:	8b 58       	subi	r24, 0x8B	; 139
    1b8e:	9f 4f       	sbci	r25, 0xFF	; 255
    1b90:	fc 01       	movw	r30, r24
    1b92:	80 81       	ld	r24, Z
    1b94:	91 81       	ldd	r25, Z+1	; 0x01

00001b96 <.L1^B21>:
    1b96:	01 97       	sbiw	r24, 0x01	; 1
    1b98:	f1 f7       	brne	.-4      	; 0x1b96 <.L1^B21>
    1b9a:	9e 01       	movw	r18, r28
    1b9c:	2b 58       	subi	r18, 0x8B	; 139
    1b9e:	3f 4f       	sbci	r19, 0xFF	; 255
    1ba0:	d9 01       	movw	r26, r18
    1ba2:	8d 93       	st	X+, r24
    1ba4:	9c 93       	st	X, r25

00001ba6 <.Loc.266>:
	...

00001ba8 <.LBE214>:
			__ticks --;
    1ba8:	ce 01       	movw	r24, r28
    1baa:	8d 58       	subi	r24, 0x8D	; 141
    1bac:	9f 4f       	sbci	r25, 0xFF	; 255
    1bae:	9e 01       	movw	r18, r28
    1bb0:	2d 58       	subi	r18, 0x8D	; 141
    1bb2:	3f 4f       	sbci	r19, 0xFF	; 255
    1bb4:	f9 01       	movw	r30, r18
    1bb6:	20 81       	ld	r18, Z
    1bb8:	31 81       	ldd	r19, Z+1	; 0x01
    1bba:	21 50       	subi	r18, 0x01	; 1
    1bbc:	31 09       	sbc	r19, r1
    1bbe:	dc 01       	movw	r26, r24
    1bc0:	11 96       	adiw	r26, 0x01	; 1
    1bc2:	3c 93       	st	X, r19
    1bc4:	2e 93       	st	-X, r18

00001bc6 <.L77>:
		while(__ticks)
    1bc6:	ce 01       	movw	r24, r28
    1bc8:	8d 58       	subi	r24, 0x8D	; 141
    1bca:	9f 4f       	sbci	r25, 0xFF	; 255
    1bcc:	fc 01       	movw	r30, r24
    1bce:	80 81       	ld	r24, Z
    1bd0:	91 81       	ldd	r25, Z+1	; 0x01
    1bd2:	00 97       	sbiw	r24, 0x00	; 0
    1bd4:	91 f6       	brne	.-92     	; 0x1b7a <.L78>

00001bd6 <.Loc.269>:
		return;
    1bd6:	3a c0       	rjmp	.+116    	; 0x1c4c <.L79>

00001bd8 <.L346>:
		__ticks = (uint16_t)__tmp;
    1bd8:	8e 01       	movw	r16, r28
    1bda:	0d 58       	subi	r16, 0x8D	; 141
    1bdc:	1f 4f       	sbci	r17, 0xFF	; 255
    1bde:	ce 01       	movw	r24, r28
    1be0:	81 59       	subi	r24, 0x91	; 145
    1be2:	9f 4f       	sbci	r25, 0xFF	; 255
    1be4:	dc 01       	movw	r26, r24
    1be6:	6d 91       	ld	r22, X+
    1be8:	7d 91       	ld	r23, X+
    1bea:	8d 91       	ld	r24, X+
    1bec:	9c 91       	ld	r25, X
    1bee:	0e 94 a9 27 	call	0x4f52	; 0x4f52 <__fixunssfsi>
    1bf2:	c9 56       	subi	r28, 0x69	; 105
    1bf4:	dd 4f       	sbci	r29, 0xFD	; 253
    1bf6:	68 83       	st	Y, r22
    1bf8:	79 83       	std	Y+1, r23	; 0x01
    1bfa:	8a 83       	std	Y+2, r24	; 0x02
    1bfc:	9b 83       	std	Y+3, r25	; 0x03
    1bfe:	c7 59       	subi	r28, 0x97	; 151
    1c00:	d2 40       	sbci	r29, 0x02	; 2
    1c02:	c9 56       	subi	r28, 0x69	; 105
    1c04:	dd 4f       	sbci	r29, 0xFD	; 253
    1c06:	88 81       	ld	r24, Y
    1c08:	99 81       	ldd	r25, Y+1	; 0x01
    1c0a:	c7 59       	subi	r28, 0x97	; 151
    1c0c:	d2 40       	sbci	r29, 0x02	; 2
    1c0e:	f8 01       	movw	r30, r16
    1c10:	91 83       	std	Z+1, r25	; 0x01
    1c12:	80 83       	st	Z, r24

00001c14 <.L74>:
    1c14:	ce 01       	movw	r24, r28
    1c16:	89 58       	subi	r24, 0x89	; 137
    1c18:	9f 4f       	sbci	r25, 0xFF	; 255
    1c1a:	9e 01       	movw	r18, r28
    1c1c:	2d 58       	subi	r18, 0x8D	; 141
    1c1e:	3f 4f       	sbci	r19, 0xFF	; 255
    1c20:	d9 01       	movw	r26, r18
    1c22:	2d 91       	ld	r18, X+
    1c24:	3c 91       	ld	r19, X
    1c26:	fc 01       	movw	r30, r24
    1c28:	31 83       	std	Z+1, r19	; 0x01
    1c2a:	20 83       	st	Z, r18

00001c2c <.LBB216>:
    1c2c:	ce 01       	movw	r24, r28
    1c2e:	89 58       	subi	r24, 0x89	; 137
    1c30:	9f 4f       	sbci	r25, 0xFF	; 255
    1c32:	dc 01       	movw	r26, r24
    1c34:	8d 91       	ld	r24, X+
    1c36:	9c 91       	ld	r25, X
    1c38:	11 97       	sbiw	r26, 0x01	; 1

00001c3a <.L1^B22>:
    1c3a:	01 97       	sbiw	r24, 0x01	; 1
    1c3c:	f1 f7       	brne	.-4      	; 0x1c3a <.L1^B22>
    1c3e:	9e 01       	movw	r18, r28
    1c40:	29 58       	subi	r18, 0x89	; 137
    1c42:	3f 4f       	sbci	r19, 0xFF	; 255
    1c44:	f9 01       	movw	r30, r18
    1c46:	91 83       	std	Z+1, r25	; 0x01
    1c48:	80 83       	st	Z, r24

00001c4a <.Loc.272>:
	...

00001c4c <.L79>:
                {
                    DEBOUNCE;
                    stand = 2;
    1c4c:	82 e0       	ldi	r24, 0x02	; 2
    1c4e:	90 e0       	ldi	r25, 0x00	; 0
    1c50:	9c 8b       	std	Y+20, r25	; 0x14
    1c52:	8b 8b       	std	Y+19, r24	; 0x13

00001c54 <.Loc.274>:
                }
            }
            break;
    1c54:	0c 94 0f 27 	jmp	0x4e1e	; 0x4e1e <.L389>

00001c58 <.L20>:
        case 2: // besturing y-as //
            if ((PINF & (1<<PF4)) != 0)
    1c58:	8f e2       	ldi	r24, 0x2F	; 47
    1c5a:	90 e0       	ldi	r25, 0x00	; 0
    1c5c:	dc 01       	movw	r26, r24
    1c5e:	8c 91       	ld	r24, X

00001c60 <.Loc.276>:
    1c60:	88 2f       	mov	r24, r24
    1c62:	90 e0       	ldi	r25, 0x00	; 0
    1c64:	80 71       	andi	r24, 0x10	; 16
    1c66:	99 27       	eor	r25, r25

00001c68 <.Loc.277>:
    1c68:	00 97       	sbiw	r24, 0x00	; 0
    1c6a:	09 f4       	brne	.+2      	; 0x1c6e <L0^A+0x2>

00001c6c <L0^A>:
    1c6c:	72 c2       	rjmp	.+1252   	; 0x2152 <.L80>
    1c6e:	9e 01       	movw	r18, r28
    1c70:	27 58       	subi	r18, 0x87	; 135
    1c72:	3f 4f       	sbci	r19, 0xFF	; 255
    1c74:	80 e0       	ldi	r24, 0x00	; 0
    1c76:	90 e0       	ldi	r25, 0x00	; 0
    1c78:	a0 ef       	ldi	r26, 0xF0	; 240
    1c7a:	b1 e4       	ldi	r27, 0x41	; 65
    1c7c:	f9 01       	movw	r30, r18
    1c7e:	80 83       	st	Z, r24
    1c80:	91 83       	std	Z+1, r25	; 0x01
    1c82:	a2 83       	std	Z+2, r26	; 0x02
    1c84:	b3 83       	std	Z+3, r27	; 0x03

00001c86 <.LBB218>:
	__tmp = ((F_CPU) / 4e3) * __ms;
    1c86:	8e 01       	movw	r16, r28
    1c88:	03 58       	subi	r16, 0x83	; 131
    1c8a:	1f 4f       	sbci	r17, 0xFF	; 255
    1c8c:	ce 01       	movw	r24, r28
    1c8e:	87 58       	subi	r24, 0x87	; 135
    1c90:	9f 4f       	sbci	r25, 0xFF	; 255
    1c92:	20 e0       	ldi	r18, 0x00	; 0
    1c94:	30 e0       	ldi	r19, 0x00	; 0
    1c96:	4a e7       	ldi	r20, 0x7A	; 122
    1c98:	55 e4       	ldi	r21, 0x45	; 69
    1c9a:	dc 01       	movw	r26, r24
    1c9c:	6d 91       	ld	r22, X+
    1c9e:	7d 91       	ld	r23, X+
    1ca0:	8d 91       	ld	r24, X+
    1ca2:	9c 91       	ld	r25, X
    1ca4:	0e 94 2a 28 	call	0x5054	; 0x5054 <__mulsf3>
    1ca8:	c5 56       	subi	r28, 0x65	; 101
    1caa:	dd 4f       	sbci	r29, 0xFD	; 253
    1cac:	68 83       	st	Y, r22
    1cae:	79 83       	std	Y+1, r23	; 0x01
    1cb0:	8a 83       	std	Y+2, r24	; 0x02
    1cb2:	9b 83       	std	Y+3, r25	; 0x03
    1cb4:	cb 59       	subi	r28, 0x9B	; 155
    1cb6:	d2 40       	sbci	r29, 0x02	; 2
    1cb8:	c5 56       	subi	r28, 0x65	; 101
    1cba:	dd 4f       	sbci	r29, 0xFD	; 253
    1cbc:	88 81       	ld	r24, Y
    1cbe:	99 81       	ldd	r25, Y+1	; 0x01
    1cc0:	aa 81       	ldd	r26, Y+2	; 0x02
    1cc2:	bb 81       	ldd	r27, Y+3	; 0x03
    1cc4:	cb 59       	subi	r28, 0x9B	; 155
    1cc6:	d2 40       	sbci	r29, 0x02	; 2
    1cc8:	f8 01       	movw	r30, r16
    1cca:	80 83       	st	Z, r24
    1ccc:	91 83       	std	Z+1, r25	; 0x01
    1cce:	a2 83       	std	Z+2, r26	; 0x02
    1cd0:	b3 83       	std	Z+3, r27	; 0x03

00001cd2 <.Loc.279>:
	if (__tmp < 1.0)
    1cd2:	ce 01       	movw	r24, r28
    1cd4:	83 58       	subi	r24, 0x83	; 131
    1cd6:	9f 4f       	sbci	r25, 0xFF	; 255
    1cd8:	20 e0       	ldi	r18, 0x00	; 0
    1cda:	30 e0       	ldi	r19, 0x00	; 0
    1cdc:	40 e8       	ldi	r20, 0x80	; 128
    1cde:	5f e3       	ldi	r21, 0x3F	; 63
    1ce0:	dc 01       	movw	r26, r24
    1ce2:	6d 91       	ld	r22, X+
    1ce4:	7d 91       	ld	r23, X+
    1ce6:	8d 91       	ld	r24, X+
    1ce8:	9c 91       	ld	r25, X
    1cea:	0e 94 a4 27 	call	0x4f48	; 0x4f48 <__cmpsf2>
    1cee:	88 23       	and	r24, r24
    1cf0:	4c f4       	brge	.+18     	; 0x1d04 <.L347>

00001cf2 <.Loc.280>:
		__ticks = 1;
    1cf2:	ce 01       	movw	r24, r28
    1cf4:	8f 57       	subi	r24, 0x7F	; 127
    1cf6:	9f 4f       	sbci	r25, 0xFF	; 255
    1cf8:	21 e0       	ldi	r18, 0x01	; 1
    1cfa:	30 e0       	ldi	r19, 0x00	; 0
    1cfc:	fc 01       	movw	r30, r24
    1cfe:	31 83       	std	Z+1, r19	; 0x01
    1d00:	20 83       	st	Z, r18
    1d02:	a5 c0       	rjmp	.+330    	; 0x1e4e <.L83>

00001d04 <.L347>:
	else if (__tmp > 65535)
    1d04:	ce 01       	movw	r24, r28
    1d06:	83 58       	subi	r24, 0x83	; 131
    1d08:	9f 4f       	sbci	r25, 0xFF	; 255
    1d0a:	20 e0       	ldi	r18, 0x00	; 0
    1d0c:	3f ef       	ldi	r19, 0xFF	; 255
    1d0e:	4f e7       	ldi	r20, 0x7F	; 127
    1d10:	57 e4       	ldi	r21, 0x47	; 71
    1d12:	dc 01       	movw	r26, r24
    1d14:	6d 91       	ld	r22, X+
    1d16:	7d 91       	ld	r23, X+
    1d18:	8d 91       	ld	r24, X+
    1d1a:	9c 91       	ld	r25, X
    1d1c:	0e 94 25 28 	call	0x504a	; 0x504a <__gesf2>
    1d20:	88 23       	and	r24, r24
    1d22:	09 f0       	breq	.+2      	; 0x1d26 <L0^A>

00001d24 <L0^A>:
    1d24:	0c f4       	brge	.+2      	; 0x1d28 <.Loc.282>

00001d26 <L0^A>:
    1d26:	75 c0       	rjmp	.+234    	; 0x1e12 <.L348>

00001d28 <.Loc.282>:
		__ticks = (uint16_t) (__ms * 10.0);
    1d28:	ce 01       	movw	r24, r28
    1d2a:	87 58       	subi	r24, 0x87	; 135
    1d2c:	9f 4f       	sbci	r25, 0xFF	; 255
    1d2e:	20 e0       	ldi	r18, 0x00	; 0
    1d30:	30 e0       	ldi	r19, 0x00	; 0
    1d32:	40 e2       	ldi	r20, 0x20	; 32
    1d34:	51 e4       	ldi	r21, 0x41	; 65
    1d36:	fc 01       	movw	r30, r24
    1d38:	60 81       	ld	r22, Z
    1d3a:	71 81       	ldd	r23, Z+1	; 0x01
    1d3c:	82 81       	ldd	r24, Z+2	; 0x02
    1d3e:	93 81       	ldd	r25, Z+3	; 0x03
    1d40:	0e 94 2a 28 	call	0x5054	; 0x5054 <__mulsf3>
    1d44:	c1 56       	subi	r28, 0x61	; 97
    1d46:	dd 4f       	sbci	r29, 0xFD	; 253
    1d48:	68 83       	st	Y, r22
    1d4a:	79 83       	std	Y+1, r23	; 0x01
    1d4c:	8a 83       	std	Y+2, r24	; 0x02
    1d4e:	9b 83       	std	Y+3, r25	; 0x03
    1d50:	cf 59       	subi	r28, 0x9F	; 159
    1d52:	d2 40       	sbci	r29, 0x02	; 2
    1d54:	c1 56       	subi	r28, 0x61	; 97
    1d56:	dd 4f       	sbci	r29, 0xFD	; 253
    1d58:	88 81       	ld	r24, Y
    1d5a:	99 81       	ldd	r25, Y+1	; 0x01
    1d5c:	aa 81       	ldd	r26, Y+2	; 0x02
    1d5e:	bb 81       	ldd	r27, Y+3	; 0x03
    1d60:	cf 59       	subi	r28, 0x9F	; 159
    1d62:	d2 40       	sbci	r29, 0x02	; 2
    1d64:	c9 52       	subi	r28, 0x29	; 41
    1d66:	de 4f       	sbci	r29, 0xFE	; 254
    1d68:	88 83       	st	Y, r24
    1d6a:	99 83       	std	Y+1, r25	; 0x01
    1d6c:	aa 83       	std	Y+2, r26	; 0x02
    1d6e:	bb 83       	std	Y+3, r27	; 0x03
    1d70:	c7 5d       	subi	r28, 0xD7	; 215
    1d72:	d1 40       	sbci	r29, 0x01	; 1

00001d74 <.Loc.283>:
    1d74:	8e 01       	movw	r16, r28
    1d76:	0f 57       	subi	r16, 0x7F	; 127
    1d78:	1f 4f       	sbci	r17, 0xFF	; 255
    1d7a:	c9 52       	subi	r28, 0x29	; 41
    1d7c:	de 4f       	sbci	r29, 0xFE	; 254
    1d7e:	68 81       	ld	r22, Y
    1d80:	79 81       	ldd	r23, Y+1	; 0x01
    1d82:	8a 81       	ldd	r24, Y+2	; 0x02
    1d84:	9b 81       	ldd	r25, Y+3	; 0x03
    1d86:	c7 5d       	subi	r28, 0xD7	; 215
    1d88:	d1 40       	sbci	r29, 0x01	; 1
    1d8a:	0e 94 a9 27 	call	0x4f52	; 0x4f52 <__fixunssfsi>
    1d8e:	cd 55       	subi	r28, 0x5D	; 93
    1d90:	dd 4f       	sbci	r29, 0xFD	; 253
    1d92:	68 83       	st	Y, r22
    1d94:	79 83       	std	Y+1, r23	; 0x01
    1d96:	8a 83       	std	Y+2, r24	; 0x02
    1d98:	9b 83       	std	Y+3, r25	; 0x03
    1d9a:	c3 5a       	subi	r28, 0xA3	; 163
    1d9c:	d2 40       	sbci	r29, 0x02	; 2
    1d9e:	cd 55       	subi	r28, 0x5D	; 93
    1da0:	dd 4f       	sbci	r29, 0xFD	; 253
    1da2:	e8 81       	ld	r30, Y
    1da4:	f9 81       	ldd	r31, Y+1	; 0x01
    1da6:	c3 5a       	subi	r28, 0xA3	; 163
    1da8:	d2 40       	sbci	r29, 0x02	; 2
    1daa:	d8 01       	movw	r26, r16
    1dac:	11 96       	adiw	r26, 0x01	; 1
    1dae:	fc 93       	st	X, r31
    1db0:	ee 93       	st	-X, r30

00001db2 <.Loc.284>:
		while(__ticks)
    1db2:	26 c0       	rjmp	.+76     	; 0x1e00 <.L86>

00001db4 <.L87>:
    1db4:	ce 01       	movw	r24, r28
    1db6:	8d 57       	subi	r24, 0x7D	; 125
    1db8:	9f 4f       	sbci	r25, 0xFF	; 255
    1dba:	20 e9       	ldi	r18, 0x90	; 144
    1dbc:	31 e0       	ldi	r19, 0x01	; 1
    1dbe:	dc 01       	movw	r26, r24
    1dc0:	2d 93       	st	X+, r18
    1dc2:	3c 93       	st	X, r19

00001dc4 <.LBB220>:
    1dc4:	ce 01       	movw	r24, r28
    1dc6:	8d 57       	subi	r24, 0x7D	; 125
    1dc8:	9f 4f       	sbci	r25, 0xFF	; 255
    1dca:	fc 01       	movw	r30, r24
    1dcc:	80 81       	ld	r24, Z
    1dce:	91 81       	ldd	r25, Z+1	; 0x01

00001dd0 <.L1^B23>:
    1dd0:	01 97       	sbiw	r24, 0x01	; 1
    1dd2:	f1 f7       	brne	.-4      	; 0x1dd0 <.L1^B23>
    1dd4:	9e 01       	movw	r18, r28
    1dd6:	2d 57       	subi	r18, 0x7D	; 125
    1dd8:	3f 4f       	sbci	r19, 0xFF	; 255
    1dda:	d9 01       	movw	r26, r18
    1ddc:	8d 93       	st	X+, r24
    1dde:	9c 93       	st	X, r25

00001de0 <.Loc.286>:
	...

00001de2 <.LBE220>:
			__ticks --;
    1de2:	ce 01       	movw	r24, r28
    1de4:	8f 57       	subi	r24, 0x7F	; 127
    1de6:	9f 4f       	sbci	r25, 0xFF	; 255
    1de8:	9e 01       	movw	r18, r28
    1dea:	2f 57       	subi	r18, 0x7F	; 127
    1dec:	3f 4f       	sbci	r19, 0xFF	; 255
    1dee:	f9 01       	movw	r30, r18
    1df0:	20 81       	ld	r18, Z
    1df2:	31 81       	ldd	r19, Z+1	; 0x01
    1df4:	21 50       	subi	r18, 0x01	; 1
    1df6:	31 09       	sbc	r19, r1
    1df8:	dc 01       	movw	r26, r24
    1dfa:	11 96       	adiw	r26, 0x01	; 1
    1dfc:	3c 93       	st	X, r19
    1dfe:	2e 93       	st	-X, r18

00001e00 <.L86>:
		while(__ticks)
    1e00:	ce 01       	movw	r24, r28
    1e02:	8f 57       	subi	r24, 0x7F	; 127
    1e04:	9f 4f       	sbci	r25, 0xFF	; 255
    1e06:	fc 01       	movw	r30, r24
    1e08:	80 81       	ld	r24, Z
    1e0a:	91 81       	ldd	r25, Z+1	; 0x01
    1e0c:	00 97       	sbiw	r24, 0x00	; 0
    1e0e:	91 f6       	brne	.-92     	; 0x1db4 <.L87>

00001e10 <.Loc.289>:
		return;
    1e10:	39 c0       	rjmp	.+114    	; 0x1e84 <.L88>

00001e12 <.L348>:
		__ticks = (uint16_t)__tmp;
    1e12:	8e 01       	movw	r16, r28
    1e14:	0f 57       	subi	r16, 0x7F	; 127
    1e16:	1f 4f       	sbci	r17, 0xFF	; 255
    1e18:	ce 01       	movw	r24, r28
    1e1a:	83 58       	subi	r24, 0x83	; 131
    1e1c:	9f 4f       	sbci	r25, 0xFF	; 255
    1e1e:	dc 01       	movw	r26, r24
    1e20:	6d 91       	ld	r22, X+
    1e22:	7d 91       	ld	r23, X+
    1e24:	8d 91       	ld	r24, X+
    1e26:	9c 91       	ld	r25, X
    1e28:	0e 94 a9 27 	call	0x4f52	; 0x4f52 <__fixunssfsi>
    1e2c:	c9 55       	subi	r28, 0x59	; 89
    1e2e:	dd 4f       	sbci	r29, 0xFD	; 253
    1e30:	68 83       	st	Y, r22
    1e32:	79 83       	std	Y+1, r23	; 0x01
    1e34:	8a 83       	std	Y+2, r24	; 0x02
    1e36:	9b 83       	std	Y+3, r25	; 0x03
    1e38:	c7 5a       	subi	r28, 0xA7	; 167
    1e3a:	d2 40       	sbci	r29, 0x02	; 2
    1e3c:	c9 55       	subi	r28, 0x59	; 89
    1e3e:	dd 4f       	sbci	r29, 0xFD	; 253
    1e40:	88 81       	ld	r24, Y
    1e42:	99 81       	ldd	r25, Y+1	; 0x01
    1e44:	c7 5a       	subi	r28, 0xA7	; 167
    1e46:	d2 40       	sbci	r29, 0x02	; 2
    1e48:	f8 01       	movw	r30, r16
    1e4a:	91 83       	std	Z+1, r25	; 0x01
    1e4c:	80 83       	st	Z, r24

00001e4e <.L83>:
    1e4e:	ce 01       	movw	r24, r28
    1e50:	8b 57       	subi	r24, 0x7B	; 123
    1e52:	9f 4f       	sbci	r25, 0xFF	; 255
    1e54:	9e 01       	movw	r18, r28
    1e56:	2f 57       	subi	r18, 0x7F	; 127
    1e58:	3f 4f       	sbci	r19, 0xFF	; 255
    1e5a:	d9 01       	movw	r26, r18
    1e5c:	2d 91       	ld	r18, X+
    1e5e:	3c 91       	ld	r19, X
    1e60:	fc 01       	movw	r30, r24
    1e62:	31 83       	std	Z+1, r19	; 0x01
    1e64:	20 83       	st	Z, r18

00001e66 <.LBB222>:
    1e66:	ce 01       	movw	r24, r28
    1e68:	8b 57       	subi	r24, 0x7B	; 123
    1e6a:	9f 4f       	sbci	r25, 0xFF	; 255
    1e6c:	dc 01       	movw	r26, r24
    1e6e:	8d 91       	ld	r24, X+
    1e70:	9c 91       	ld	r25, X

00001e72 <.L1^B24>:
    1e72:	01 97       	sbiw	r24, 0x01	; 1
    1e74:	f1 f7       	brne	.-4      	; 0x1e72 <.L1^B24>
    1e76:	9e 01       	movw	r18, r28
    1e78:	2b 57       	subi	r18, 0x7B	; 123
    1e7a:	3f 4f       	sbci	r19, 0xFF	; 255
    1e7c:	f9 01       	movw	r30, r18
    1e7e:	91 83       	std	Z+1, r25	; 0x01
    1e80:	80 83       	st	Z, r24

00001e82 <.Loc.292>:
	...

00001e84 <.L88>:
            {
                DEBOUNCE;
                if ((PINF & (1<<PF4)) == 0)
    1e84:	8f e2       	ldi	r24, 0x2F	; 47
    1e86:	90 e0       	ldi	r25, 0x00	; 0
    1e88:	dc 01       	movw	r26, r24
    1e8a:	8c 91       	ld	r24, X

00001e8c <.Loc.294>:
    1e8c:	88 2f       	mov	r24, r24
    1e8e:	90 e0       	ldi	r25, 0x00	; 0
    1e90:	80 71       	andi	r24, 0x10	; 16
    1e92:	99 27       	eor	r25, r25

00001e94 <.Loc.295>:
    1e94:	00 97       	sbiw	r24, 0x00	; 0
    1e96:	09 f0       	breq	.+2      	; 0x1e9a <L0^A+0x2>

00001e98 <L0^A>:
    1e98:	5c c1       	rjmp	.+696    	; 0x2152 <.L80>
    1e9a:	9e 01       	movw	r18, r28
    1e9c:	29 57       	subi	r18, 0x79	; 121
    1e9e:	3f 4f       	sbci	r19, 0xFF	; 255
    1ea0:	80 e0       	ldi	r24, 0x00	; 0
    1ea2:	90 e0       	ldi	r25, 0x00	; 0
    1ea4:	a0 ef       	ldi	r26, 0xF0	; 240
    1ea6:	b1 e4       	ldi	r27, 0x41	; 65
    1ea8:	f9 01       	movw	r30, r18
    1eaa:	80 83       	st	Z, r24
    1eac:	91 83       	std	Z+1, r25	; 0x01
    1eae:	a2 83       	std	Z+2, r26	; 0x02
    1eb0:	b3 83       	std	Z+3, r27	; 0x03

00001eb2 <.LBB224>:
	__tmp = ((F_CPU) / 4e3) * __ms;
    1eb2:	8e 01       	movw	r16, r28
    1eb4:	05 57       	subi	r16, 0x75	; 117
    1eb6:	1f 4f       	sbci	r17, 0xFF	; 255
    1eb8:	ce 01       	movw	r24, r28
    1eba:	89 57       	subi	r24, 0x79	; 121
    1ebc:	9f 4f       	sbci	r25, 0xFF	; 255
    1ebe:	20 e0       	ldi	r18, 0x00	; 0
    1ec0:	30 e0       	ldi	r19, 0x00	; 0
    1ec2:	4a e7       	ldi	r20, 0x7A	; 122
    1ec4:	55 e4       	ldi	r21, 0x45	; 69
    1ec6:	dc 01       	movw	r26, r24
    1ec8:	6d 91       	ld	r22, X+
    1eca:	7d 91       	ld	r23, X+
    1ecc:	8d 91       	ld	r24, X+
    1ece:	9c 91       	ld	r25, X
    1ed0:	0e 94 2a 28 	call	0x5054	; 0x5054 <__mulsf3>
    1ed4:	c5 55       	subi	r28, 0x55	; 85
    1ed6:	dd 4f       	sbci	r29, 0xFD	; 253
    1ed8:	68 83       	st	Y, r22
    1eda:	79 83       	std	Y+1, r23	; 0x01
    1edc:	8a 83       	std	Y+2, r24	; 0x02
    1ede:	9b 83       	std	Y+3, r25	; 0x03
    1ee0:	cb 5a       	subi	r28, 0xAB	; 171
    1ee2:	d2 40       	sbci	r29, 0x02	; 2
    1ee4:	c5 55       	subi	r28, 0x55	; 85
    1ee6:	dd 4f       	sbci	r29, 0xFD	; 253
    1ee8:	88 81       	ld	r24, Y
    1eea:	99 81       	ldd	r25, Y+1	; 0x01
    1eec:	aa 81       	ldd	r26, Y+2	; 0x02
    1eee:	bb 81       	ldd	r27, Y+3	; 0x03
    1ef0:	cb 5a       	subi	r28, 0xAB	; 171
    1ef2:	d2 40       	sbci	r29, 0x02	; 2
    1ef4:	f8 01       	movw	r30, r16
    1ef6:	80 83       	st	Z, r24
    1ef8:	91 83       	std	Z+1, r25	; 0x01
    1efa:	a2 83       	std	Z+2, r26	; 0x02
    1efc:	b3 83       	std	Z+3, r27	; 0x03

00001efe <.Loc.297>:
	if (__tmp < 1.0)
    1efe:	ce 01       	movw	r24, r28
    1f00:	85 57       	subi	r24, 0x75	; 117
    1f02:	9f 4f       	sbci	r25, 0xFF	; 255
    1f04:	20 e0       	ldi	r18, 0x00	; 0
    1f06:	30 e0       	ldi	r19, 0x00	; 0
    1f08:	40 e8       	ldi	r20, 0x80	; 128
    1f0a:	5f e3       	ldi	r21, 0x3F	; 63
    1f0c:	dc 01       	movw	r26, r24
    1f0e:	6d 91       	ld	r22, X+
    1f10:	7d 91       	ld	r23, X+
    1f12:	8d 91       	ld	r24, X+
    1f14:	9c 91       	ld	r25, X
    1f16:	0e 94 a4 27 	call	0x4f48	; 0x4f48 <__cmpsf2>
    1f1a:	88 23       	and	r24, r24
    1f1c:	4c f4       	brge	.+18     	; 0x1f30 <.L349>

00001f1e <.Loc.298>:
		__ticks = 1;
    1f1e:	ce 01       	movw	r24, r28
    1f20:	81 57       	subi	r24, 0x71	; 113
    1f22:	9f 4f       	sbci	r25, 0xFF	; 255
    1f24:	21 e0       	ldi	r18, 0x01	; 1
    1f26:	30 e0       	ldi	r19, 0x00	; 0
    1f28:	fc 01       	movw	r30, r24
    1f2a:	31 83       	std	Z+1, r19	; 0x01
    1f2c:	20 83       	st	Z, r18
    1f2e:	a5 c0       	rjmp	.+330    	; 0x207a <.L91>

00001f30 <.L349>:
	else if (__tmp > 65535)
    1f30:	ce 01       	movw	r24, r28
    1f32:	85 57       	subi	r24, 0x75	; 117
    1f34:	9f 4f       	sbci	r25, 0xFF	; 255
    1f36:	20 e0       	ldi	r18, 0x00	; 0
    1f38:	3f ef       	ldi	r19, 0xFF	; 255
    1f3a:	4f e7       	ldi	r20, 0x7F	; 127
    1f3c:	57 e4       	ldi	r21, 0x47	; 71
    1f3e:	dc 01       	movw	r26, r24
    1f40:	6d 91       	ld	r22, X+
    1f42:	7d 91       	ld	r23, X+
    1f44:	8d 91       	ld	r24, X+
    1f46:	9c 91       	ld	r25, X
    1f48:	0e 94 25 28 	call	0x504a	; 0x504a <__gesf2>
    1f4c:	88 23       	and	r24, r24
    1f4e:	09 f0       	breq	.+2      	; 0x1f52 <L0^A>

00001f50 <L0^A>:
    1f50:	0c f4       	brge	.+2      	; 0x1f54 <.Loc.300>

00001f52 <L0^A>:
    1f52:	75 c0       	rjmp	.+234    	; 0x203e <.L350>

00001f54 <.Loc.300>:
		__ticks = (uint16_t) (__ms * 10.0);
    1f54:	ce 01       	movw	r24, r28
    1f56:	89 57       	subi	r24, 0x79	; 121
    1f58:	9f 4f       	sbci	r25, 0xFF	; 255
    1f5a:	20 e0       	ldi	r18, 0x00	; 0
    1f5c:	30 e0       	ldi	r19, 0x00	; 0
    1f5e:	40 e2       	ldi	r20, 0x20	; 32
    1f60:	51 e4       	ldi	r21, 0x41	; 65
    1f62:	fc 01       	movw	r30, r24
    1f64:	60 81       	ld	r22, Z
    1f66:	71 81       	ldd	r23, Z+1	; 0x01
    1f68:	82 81       	ldd	r24, Z+2	; 0x02
    1f6a:	93 81       	ldd	r25, Z+3	; 0x03
    1f6c:	0e 94 2a 28 	call	0x5054	; 0x5054 <__mulsf3>
    1f70:	c1 55       	subi	r28, 0x51	; 81
    1f72:	dd 4f       	sbci	r29, 0xFD	; 253
    1f74:	68 83       	st	Y, r22
    1f76:	79 83       	std	Y+1, r23	; 0x01
    1f78:	8a 83       	std	Y+2, r24	; 0x02
    1f7a:	9b 83       	std	Y+3, r25	; 0x03
    1f7c:	cf 5a       	subi	r28, 0xAF	; 175
    1f7e:	d2 40       	sbci	r29, 0x02	; 2
    1f80:	c1 55       	subi	r28, 0x51	; 81
    1f82:	dd 4f       	sbci	r29, 0xFD	; 253
    1f84:	88 81       	ld	r24, Y
    1f86:	99 81       	ldd	r25, Y+1	; 0x01
    1f88:	aa 81       	ldd	r26, Y+2	; 0x02
    1f8a:	bb 81       	ldd	r27, Y+3	; 0x03
    1f8c:	cf 5a       	subi	r28, 0xAF	; 175
    1f8e:	d2 40       	sbci	r29, 0x02	; 2
    1f90:	c5 52       	subi	r28, 0x25	; 37
    1f92:	de 4f       	sbci	r29, 0xFE	; 254
    1f94:	88 83       	st	Y, r24
    1f96:	99 83       	std	Y+1, r25	; 0x01
    1f98:	aa 83       	std	Y+2, r26	; 0x02
    1f9a:	bb 83       	std	Y+3, r27	; 0x03
    1f9c:	cb 5d       	subi	r28, 0xDB	; 219
    1f9e:	d1 40       	sbci	r29, 0x01	; 1

00001fa0 <.Loc.301>:
    1fa0:	8e 01       	movw	r16, r28
    1fa2:	01 57       	subi	r16, 0x71	; 113
    1fa4:	1f 4f       	sbci	r17, 0xFF	; 255
    1fa6:	c5 52       	subi	r28, 0x25	; 37
    1fa8:	de 4f       	sbci	r29, 0xFE	; 254
    1faa:	68 81       	ld	r22, Y
    1fac:	79 81       	ldd	r23, Y+1	; 0x01
    1fae:	8a 81       	ldd	r24, Y+2	; 0x02
    1fb0:	9b 81       	ldd	r25, Y+3	; 0x03
    1fb2:	cb 5d       	subi	r28, 0xDB	; 219
    1fb4:	d1 40       	sbci	r29, 0x01	; 1
    1fb6:	0e 94 a9 27 	call	0x4f52	; 0x4f52 <__fixunssfsi>
    1fba:	cd 54       	subi	r28, 0x4D	; 77
    1fbc:	dd 4f       	sbci	r29, 0xFD	; 253
    1fbe:	68 83       	st	Y, r22
    1fc0:	79 83       	std	Y+1, r23	; 0x01
    1fc2:	8a 83       	std	Y+2, r24	; 0x02
    1fc4:	9b 83       	std	Y+3, r25	; 0x03
    1fc6:	c3 5b       	subi	r28, 0xB3	; 179
    1fc8:	d2 40       	sbci	r29, 0x02	; 2
    1fca:	cd 54       	subi	r28, 0x4D	; 77
    1fcc:	dd 4f       	sbci	r29, 0xFD	; 253
    1fce:	e8 81       	ld	r30, Y
    1fd0:	f9 81       	ldd	r31, Y+1	; 0x01
    1fd2:	c3 5b       	subi	r28, 0xB3	; 179
    1fd4:	d2 40       	sbci	r29, 0x02	; 2
    1fd6:	d8 01       	movw	r26, r16
    1fd8:	11 96       	adiw	r26, 0x01	; 1
    1fda:	fc 93       	st	X, r31
    1fdc:	ee 93       	st	-X, r30

00001fde <.Loc.302>:
		while(__ticks)
    1fde:	26 c0       	rjmp	.+76     	; 0x202c <.L94>

00001fe0 <.L95>:
    1fe0:	ce 01       	movw	r24, r28
    1fe2:	8f 56       	subi	r24, 0x6F	; 111
    1fe4:	9f 4f       	sbci	r25, 0xFF	; 255
    1fe6:	20 e9       	ldi	r18, 0x90	; 144
    1fe8:	31 e0       	ldi	r19, 0x01	; 1
    1fea:	dc 01       	movw	r26, r24
    1fec:	2d 93       	st	X+, r18
    1fee:	3c 93       	st	X, r19

00001ff0 <.LBB226>:
    1ff0:	ce 01       	movw	r24, r28
    1ff2:	8f 56       	subi	r24, 0x6F	; 111
    1ff4:	9f 4f       	sbci	r25, 0xFF	; 255
    1ff6:	fc 01       	movw	r30, r24
    1ff8:	80 81       	ld	r24, Z
    1ffa:	91 81       	ldd	r25, Z+1	; 0x01

00001ffc <.L1^B25>:
    1ffc:	01 97       	sbiw	r24, 0x01	; 1
    1ffe:	f1 f7       	brne	.-4      	; 0x1ffc <.L1^B25>
    2000:	9e 01       	movw	r18, r28
    2002:	2f 56       	subi	r18, 0x6F	; 111
    2004:	3f 4f       	sbci	r19, 0xFF	; 255
    2006:	d9 01       	movw	r26, r18
    2008:	8d 93       	st	X+, r24
    200a:	9c 93       	st	X, r25

0000200c <.Loc.304>:
	...

0000200e <.LBE226>:
			__ticks --;
    200e:	ce 01       	movw	r24, r28
    2010:	81 57       	subi	r24, 0x71	; 113
    2012:	9f 4f       	sbci	r25, 0xFF	; 255
    2014:	9e 01       	movw	r18, r28
    2016:	21 57       	subi	r18, 0x71	; 113
    2018:	3f 4f       	sbci	r19, 0xFF	; 255
    201a:	f9 01       	movw	r30, r18
    201c:	20 81       	ld	r18, Z
    201e:	31 81       	ldd	r19, Z+1	; 0x01
    2020:	21 50       	subi	r18, 0x01	; 1
    2022:	31 09       	sbc	r19, r1
    2024:	dc 01       	movw	r26, r24
    2026:	11 96       	adiw	r26, 0x01	; 1
    2028:	3c 93       	st	X, r19
    202a:	2e 93       	st	-X, r18

0000202c <.L94>:
		while(__ticks)
    202c:	ce 01       	movw	r24, r28
    202e:	81 57       	subi	r24, 0x71	; 113
    2030:	9f 4f       	sbci	r25, 0xFF	; 255
    2032:	fc 01       	movw	r30, r24
    2034:	80 81       	ld	r24, Z
    2036:	91 81       	ldd	r25, Z+1	; 0x01
    2038:	00 97       	sbiw	r24, 0x00	; 0
    203a:	91 f6       	brne	.-92     	; 0x1fe0 <.L95>

0000203c <.Loc.307>:
		return;
    203c:	3a c0       	rjmp	.+116    	; 0x20b2 <.L96>

0000203e <.L350>:
		__ticks = (uint16_t)__tmp;
    203e:	8e 01       	movw	r16, r28
    2040:	01 57       	subi	r16, 0x71	; 113
    2042:	1f 4f       	sbci	r17, 0xFF	; 255
    2044:	ce 01       	movw	r24, r28
    2046:	85 57       	subi	r24, 0x75	; 117
    2048:	9f 4f       	sbci	r25, 0xFF	; 255
    204a:	dc 01       	movw	r26, r24
    204c:	6d 91       	ld	r22, X+
    204e:	7d 91       	ld	r23, X+
    2050:	8d 91       	ld	r24, X+
    2052:	9c 91       	ld	r25, X
    2054:	0e 94 a9 27 	call	0x4f52	; 0x4f52 <__fixunssfsi>
    2058:	c9 54       	subi	r28, 0x49	; 73
    205a:	dd 4f       	sbci	r29, 0xFD	; 253
    205c:	68 83       	st	Y, r22
    205e:	79 83       	std	Y+1, r23	; 0x01
    2060:	8a 83       	std	Y+2, r24	; 0x02
    2062:	9b 83       	std	Y+3, r25	; 0x03
    2064:	c7 5b       	subi	r28, 0xB7	; 183
    2066:	d2 40       	sbci	r29, 0x02	; 2
    2068:	c9 54       	subi	r28, 0x49	; 73
    206a:	dd 4f       	sbci	r29, 0xFD	; 253
    206c:	88 81       	ld	r24, Y
    206e:	99 81       	ldd	r25, Y+1	; 0x01
    2070:	c7 5b       	subi	r28, 0xB7	; 183
    2072:	d2 40       	sbci	r29, 0x02	; 2
    2074:	f8 01       	movw	r30, r16
    2076:	91 83       	std	Z+1, r25	; 0x01
    2078:	80 83       	st	Z, r24

0000207a <.L91>:
    207a:	ce 01       	movw	r24, r28
    207c:	8d 56       	subi	r24, 0x6D	; 109
    207e:	9f 4f       	sbci	r25, 0xFF	; 255
    2080:	9e 01       	movw	r18, r28
    2082:	21 57       	subi	r18, 0x71	; 113
    2084:	3f 4f       	sbci	r19, 0xFF	; 255
    2086:	d9 01       	movw	r26, r18
    2088:	2d 91       	ld	r18, X+
    208a:	3c 91       	ld	r19, X
    208c:	fc 01       	movw	r30, r24
    208e:	31 83       	std	Z+1, r19	; 0x01
    2090:	20 83       	st	Z, r18

00002092 <.LBB228>:
    2092:	ce 01       	movw	r24, r28
    2094:	8d 56       	subi	r24, 0x6D	; 109
    2096:	9f 4f       	sbci	r25, 0xFF	; 255
    2098:	dc 01       	movw	r26, r24
    209a:	8d 91       	ld	r24, X+
    209c:	9c 91       	ld	r25, X
    209e:	11 97       	sbiw	r26, 0x01	; 1

000020a0 <.L1^B26>:
    20a0:	01 97       	sbiw	r24, 0x01	; 1
    20a2:	f1 f7       	brne	.-4      	; 0x20a0 <.L1^B26>
    20a4:	9e 01       	movw	r18, r28
    20a6:	2d 56       	subi	r18, 0x6D	; 109
    20a8:	3f 4f       	sbci	r19, 0xFF	; 255
    20aa:	f9 01       	movw	r30, r18
    20ac:	91 83       	std	Z+1, r25	; 0x01
    20ae:	80 83       	st	Z, r24

000020b0 <.Loc.310>:
	...

000020b2 <.L96>:
                {
                    DEBOUNCE;
                    if (y <= 1)
    20b2:	8f 81       	ldd	r24, Y+7	; 0x07
    20b4:	98 85       	ldd	r25, Y+8	; 0x08
    20b6:	81 30       	cpi	r24, 0x01	; 1
    20b8:	91 05       	cpc	r25, r1
    20ba:	09 f0       	breq	.+2      	; 0x20be <.Loc.312>

000020bc <L0^A>:
    20bc:	04 f5       	brge	.+64     	; 0x20fe <.L97>

000020be <.Loc.312>:
                    {
                        PORTG &= ~(1<<besturingy[y]);
    20be:	84 e3       	ldi	r24, 0x34	; 52
    20c0:	90 e0       	ldi	r25, 0x00	; 0
    20c2:	dc 01       	movw	r26, r24
    20c4:	8c 91       	ld	r24, X
    20c6:	48 2f       	mov	r20, r24

000020c8 <.Loc.313>:
    20c8:	9e 01       	movw	r18, r28
    20ca:	23 55       	subi	r18, 0x53	; 83
    20cc:	3e 4f       	sbci	r19, 0xFE	; 254
    20ce:	8f 81       	ldd	r24, Y+7	; 0x07
    20d0:	98 85       	ldd	r25, Y+8	; 0x08
    20d2:	88 0f       	add	r24, r24
    20d4:	99 1f       	adc	r25, r25
    20d6:	82 0f       	add	r24, r18
    20d8:	93 1f       	adc	r25, r19
    20da:	fc 01       	movw	r30, r24
    20dc:	20 81       	ld	r18, Z
    20de:	31 81       	ldd	r19, Z+1	; 0x01

000020e0 <.Loc.314>:
    20e0:	81 e0       	ldi	r24, 0x01	; 1
    20e2:	90 e0       	ldi	r25, 0x00	; 0
    20e4:	02 c0       	rjmp	.+4      	; 0x20ea <.L2^B9>

000020e6 <.L1^B27>:
    20e6:	88 0f       	add	r24, r24
    20e8:	99 1f       	adc	r25, r25

000020ea <.L2^B9>:
    20ea:	2a 95       	dec	r18
    20ec:	e2 f7       	brpl	.-8      	; 0x20e6 <.L1^B27>

000020ee <.Loc.315>:
    20ee:	80 95       	com	r24
    20f0:	24 2f       	mov	r18, r20
    20f2:	28 23       	and	r18, r24

000020f4 <.Loc.316>:
    20f4:	84 e3       	ldi	r24, 0x34	; 52
    20f6:	90 e0       	ldi	r25, 0x00	; 0

000020f8 <.Loc.317>:
    20f8:	dc 01       	movw	r26, r24
    20fa:	2c 93       	st	X, r18
    20fc:	25 c0       	rjmp	.+74     	; 0x2148 <.L98>

000020fe <.L97>:
                    }
                    else if (y > 1)
    20fe:	8f 81       	ldd	r24, Y+7	; 0x07
    2100:	98 85       	ldd	r25, Y+8	; 0x08
    2102:	81 30       	cpi	r24, 0x01	; 1
    2104:	91 05       	cpc	r25, r1
    2106:	01 f1       	breq	.+64     	; 0x2148 <.L98>
    2108:	fc f0       	brlt	.+62     	; 0x2148 <.L98>

0000210a <.Loc.319>:
                    {
                        PORTL &= ~(1<<besturingy[y]);
    210a:	8b e0       	ldi	r24, 0x0B	; 11
    210c:	91 e0       	ldi	r25, 0x01	; 1
    210e:	fc 01       	movw	r30, r24
    2110:	80 81       	ld	r24, Z
    2112:	48 2f       	mov	r20, r24

00002114 <.Loc.320>:
    2114:	9e 01       	movw	r18, r28
    2116:	23 55       	subi	r18, 0x53	; 83
    2118:	3e 4f       	sbci	r19, 0xFE	; 254
    211a:	8f 81       	ldd	r24, Y+7	; 0x07
    211c:	98 85       	ldd	r25, Y+8	; 0x08
    211e:	88 0f       	add	r24, r24
    2120:	99 1f       	adc	r25, r25
    2122:	82 0f       	add	r24, r18
    2124:	93 1f       	adc	r25, r19
    2126:	dc 01       	movw	r26, r24
    2128:	2d 91       	ld	r18, X+
    212a:	3c 91       	ld	r19, X

0000212c <.Loc.321>:
    212c:	81 e0       	ldi	r24, 0x01	; 1
    212e:	90 e0       	ldi	r25, 0x00	; 0
    2130:	02 c0       	rjmp	.+4      	; 0x2136 <.L2^B10>

00002132 <.L1^B28>:
    2132:	88 0f       	add	r24, r24
    2134:	99 1f       	adc	r25, r25

00002136 <.L2^B10>:
    2136:	2a 95       	dec	r18
    2138:	e2 f7       	brpl	.-8      	; 0x2132 <.L1^B28>

0000213a <.Loc.322>:
    213a:	80 95       	com	r24
    213c:	24 2f       	mov	r18, r20
    213e:	28 23       	and	r18, r24

00002140 <.Loc.323>:
    2140:	8b e0       	ldi	r24, 0x0B	; 11
    2142:	91 e0       	ldi	r25, 0x01	; 1

00002144 <.Loc.324>:
    2144:	fc 01       	movw	r30, r24
    2146:	20 83       	st	Z, r18

00002148 <.L98>:
                    }
                    y++;
    2148:	8f 81       	ldd	r24, Y+7	; 0x07
    214a:	98 85       	ldd	r25, Y+8	; 0x08
    214c:	01 96       	adiw	r24, 0x01	; 1
    214e:	98 87       	std	Y+8, r25	; 0x08
    2150:	8f 83       	std	Y+7, r24	; 0x07

00002152 <.L80>:
                }
            }
            if ((PINF & (1<<PF5)) != 0)
    2152:	8f e2       	ldi	r24, 0x2F	; 47
    2154:	90 e0       	ldi	r25, 0x00	; 0
    2156:	dc 01       	movw	r26, r24
    2158:	8c 91       	ld	r24, X

0000215a <.Loc.327>:
    215a:	88 2f       	mov	r24, r24
    215c:	90 e0       	ldi	r25, 0x00	; 0
    215e:	80 72       	andi	r24, 0x20	; 32
    2160:	99 27       	eor	r25, r25

00002162 <.Loc.328>:
    2162:	00 97       	sbiw	r24, 0x00	; 0
    2164:	09 f4       	brne	.+2      	; 0x2168 <L0^A+0x2>

00002166 <L0^A>:
    2166:	73 c2       	rjmp	.+1254   	; 0x264e <.L99>
    2168:	9e 01       	movw	r18, r28
    216a:	2b 56       	subi	r18, 0x6B	; 107
    216c:	3f 4f       	sbci	r19, 0xFF	; 255
    216e:	80 e0       	ldi	r24, 0x00	; 0
    2170:	90 e0       	ldi	r25, 0x00	; 0
    2172:	a0 ef       	ldi	r26, 0xF0	; 240
    2174:	b1 e4       	ldi	r27, 0x41	; 65
    2176:	f9 01       	movw	r30, r18
    2178:	80 83       	st	Z, r24
    217a:	91 83       	std	Z+1, r25	; 0x01
    217c:	a2 83       	std	Z+2, r26	; 0x02
    217e:	b3 83       	std	Z+3, r27	; 0x03

00002180 <.LBB230>:
	__tmp = ((F_CPU) / 4e3) * __ms;
    2180:	8e 01       	movw	r16, r28
    2182:	07 56       	subi	r16, 0x67	; 103
    2184:	1f 4f       	sbci	r17, 0xFF	; 255
    2186:	ce 01       	movw	r24, r28
    2188:	8b 56       	subi	r24, 0x6B	; 107
    218a:	9f 4f       	sbci	r25, 0xFF	; 255
    218c:	20 e0       	ldi	r18, 0x00	; 0
    218e:	30 e0       	ldi	r19, 0x00	; 0
    2190:	4a e7       	ldi	r20, 0x7A	; 122
    2192:	55 e4       	ldi	r21, 0x45	; 69
    2194:	dc 01       	movw	r26, r24
    2196:	6d 91       	ld	r22, X+
    2198:	7d 91       	ld	r23, X+
    219a:	8d 91       	ld	r24, X+
    219c:	9c 91       	ld	r25, X
    219e:	0e 94 2a 28 	call	0x5054	; 0x5054 <__mulsf3>
    21a2:	c5 54       	subi	r28, 0x45	; 69
    21a4:	dd 4f       	sbci	r29, 0xFD	; 253
    21a6:	68 83       	st	Y, r22
    21a8:	79 83       	std	Y+1, r23	; 0x01
    21aa:	8a 83       	std	Y+2, r24	; 0x02
    21ac:	9b 83       	std	Y+3, r25	; 0x03
    21ae:	cb 5b       	subi	r28, 0xBB	; 187
    21b0:	d2 40       	sbci	r29, 0x02	; 2
    21b2:	c5 54       	subi	r28, 0x45	; 69
    21b4:	dd 4f       	sbci	r29, 0xFD	; 253
    21b6:	88 81       	ld	r24, Y
    21b8:	99 81       	ldd	r25, Y+1	; 0x01
    21ba:	aa 81       	ldd	r26, Y+2	; 0x02
    21bc:	bb 81       	ldd	r27, Y+3	; 0x03
    21be:	cb 5b       	subi	r28, 0xBB	; 187
    21c0:	d2 40       	sbci	r29, 0x02	; 2
    21c2:	f8 01       	movw	r30, r16
    21c4:	80 83       	st	Z, r24
    21c6:	91 83       	std	Z+1, r25	; 0x01
    21c8:	a2 83       	std	Z+2, r26	; 0x02
    21ca:	b3 83       	std	Z+3, r27	; 0x03

000021cc <.Loc.330>:
	if (__tmp < 1.0)
    21cc:	ce 01       	movw	r24, r28
    21ce:	87 56       	subi	r24, 0x67	; 103
    21d0:	9f 4f       	sbci	r25, 0xFF	; 255
    21d2:	20 e0       	ldi	r18, 0x00	; 0
    21d4:	30 e0       	ldi	r19, 0x00	; 0
    21d6:	40 e8       	ldi	r20, 0x80	; 128
    21d8:	5f e3       	ldi	r21, 0x3F	; 63
    21da:	dc 01       	movw	r26, r24
    21dc:	6d 91       	ld	r22, X+
    21de:	7d 91       	ld	r23, X+
    21e0:	8d 91       	ld	r24, X+
    21e2:	9c 91       	ld	r25, X
    21e4:	0e 94 a4 27 	call	0x4f48	; 0x4f48 <__cmpsf2>
    21e8:	88 23       	and	r24, r24
    21ea:	4c f4       	brge	.+18     	; 0x21fe <.L351>

000021ec <.Loc.331>:
		__ticks = 1;
    21ec:	ce 01       	movw	r24, r28
    21ee:	83 56       	subi	r24, 0x63	; 99
    21f0:	9f 4f       	sbci	r25, 0xFF	; 255
    21f2:	21 e0       	ldi	r18, 0x01	; 1
    21f4:	30 e0       	ldi	r19, 0x00	; 0
    21f6:	fc 01       	movw	r30, r24
    21f8:	31 83       	std	Z+1, r19	; 0x01
    21fa:	20 83       	st	Z, r18
    21fc:	a5 c0       	rjmp	.+330    	; 0x2348 <.L102>

000021fe <.L351>:
	else if (__tmp > 65535)
    21fe:	ce 01       	movw	r24, r28
    2200:	87 56       	subi	r24, 0x67	; 103
    2202:	9f 4f       	sbci	r25, 0xFF	; 255
    2204:	20 e0       	ldi	r18, 0x00	; 0
    2206:	3f ef       	ldi	r19, 0xFF	; 255
    2208:	4f e7       	ldi	r20, 0x7F	; 127
    220a:	57 e4       	ldi	r21, 0x47	; 71
    220c:	dc 01       	movw	r26, r24
    220e:	6d 91       	ld	r22, X+
    2210:	7d 91       	ld	r23, X+
    2212:	8d 91       	ld	r24, X+
    2214:	9c 91       	ld	r25, X
    2216:	0e 94 25 28 	call	0x504a	; 0x504a <__gesf2>
    221a:	88 23       	and	r24, r24
    221c:	09 f0       	breq	.+2      	; 0x2220 <L0^A>

0000221e <L0^A>:
    221e:	0c f4       	brge	.+2      	; 0x2222 <.Loc.333>

00002220 <L0^A>:
    2220:	75 c0       	rjmp	.+234    	; 0x230c <.L352>

00002222 <.Loc.333>:
		__ticks = (uint16_t) (__ms * 10.0);
    2222:	ce 01       	movw	r24, r28
    2224:	8b 56       	subi	r24, 0x6B	; 107
    2226:	9f 4f       	sbci	r25, 0xFF	; 255
    2228:	20 e0       	ldi	r18, 0x00	; 0
    222a:	30 e0       	ldi	r19, 0x00	; 0
    222c:	40 e2       	ldi	r20, 0x20	; 32
    222e:	51 e4       	ldi	r21, 0x41	; 65
    2230:	fc 01       	movw	r30, r24
    2232:	60 81       	ld	r22, Z
    2234:	71 81       	ldd	r23, Z+1	; 0x01
    2236:	82 81       	ldd	r24, Z+2	; 0x02
    2238:	93 81       	ldd	r25, Z+3	; 0x03
    223a:	0e 94 2a 28 	call	0x5054	; 0x5054 <__mulsf3>
    223e:	c1 54       	subi	r28, 0x41	; 65
    2240:	dd 4f       	sbci	r29, 0xFD	; 253
    2242:	68 83       	st	Y, r22
    2244:	79 83       	std	Y+1, r23	; 0x01
    2246:	8a 83       	std	Y+2, r24	; 0x02
    2248:	9b 83       	std	Y+3, r25	; 0x03
    224a:	cf 5b       	subi	r28, 0xBF	; 191
    224c:	d2 40       	sbci	r29, 0x02	; 2
    224e:	c1 54       	subi	r28, 0x41	; 65
    2250:	dd 4f       	sbci	r29, 0xFD	; 253
    2252:	88 81       	ld	r24, Y
    2254:	99 81       	ldd	r25, Y+1	; 0x01
    2256:	aa 81       	ldd	r26, Y+2	; 0x02
    2258:	bb 81       	ldd	r27, Y+3	; 0x03
    225a:	cf 5b       	subi	r28, 0xBF	; 191
    225c:	d2 40       	sbci	r29, 0x02	; 2
    225e:	c1 52       	subi	r28, 0x21	; 33
    2260:	de 4f       	sbci	r29, 0xFE	; 254
    2262:	88 83       	st	Y, r24
    2264:	99 83       	std	Y+1, r25	; 0x01
    2266:	aa 83       	std	Y+2, r26	; 0x02
    2268:	bb 83       	std	Y+3, r27	; 0x03
    226a:	cf 5d       	subi	r28, 0xDF	; 223
    226c:	d1 40       	sbci	r29, 0x01	; 1

0000226e <.Loc.334>:
    226e:	8e 01       	movw	r16, r28
    2270:	03 56       	subi	r16, 0x63	; 99
    2272:	1f 4f       	sbci	r17, 0xFF	; 255
    2274:	c1 52       	subi	r28, 0x21	; 33
    2276:	de 4f       	sbci	r29, 0xFE	; 254
    2278:	68 81       	ld	r22, Y
    227a:	79 81       	ldd	r23, Y+1	; 0x01
    227c:	8a 81       	ldd	r24, Y+2	; 0x02
    227e:	9b 81       	ldd	r25, Y+3	; 0x03
    2280:	cf 5d       	subi	r28, 0xDF	; 223
    2282:	d1 40       	sbci	r29, 0x01	; 1
    2284:	0e 94 a9 27 	call	0x4f52	; 0x4f52 <__fixunssfsi>
    2288:	cd 53       	subi	r28, 0x3D	; 61
    228a:	dd 4f       	sbci	r29, 0xFD	; 253
    228c:	68 83       	st	Y, r22
    228e:	79 83       	std	Y+1, r23	; 0x01
    2290:	8a 83       	std	Y+2, r24	; 0x02
    2292:	9b 83       	std	Y+3, r25	; 0x03
    2294:	c3 5c       	subi	r28, 0xC3	; 195
    2296:	d2 40       	sbci	r29, 0x02	; 2
    2298:	cd 53       	subi	r28, 0x3D	; 61
    229a:	dd 4f       	sbci	r29, 0xFD	; 253
    229c:	e8 81       	ld	r30, Y
    229e:	f9 81       	ldd	r31, Y+1	; 0x01
    22a0:	c3 5c       	subi	r28, 0xC3	; 195
    22a2:	d2 40       	sbci	r29, 0x02	; 2
    22a4:	d8 01       	movw	r26, r16
    22a6:	11 96       	adiw	r26, 0x01	; 1
    22a8:	fc 93       	st	X, r31
    22aa:	ee 93       	st	-X, r30

000022ac <.Loc.335>:
		while(__ticks)
    22ac:	26 c0       	rjmp	.+76     	; 0x22fa <.L105>

000022ae <.L106>:
    22ae:	ce 01       	movw	r24, r28
    22b0:	81 56       	subi	r24, 0x61	; 97
    22b2:	9f 4f       	sbci	r25, 0xFF	; 255
    22b4:	20 e9       	ldi	r18, 0x90	; 144
    22b6:	31 e0       	ldi	r19, 0x01	; 1
    22b8:	dc 01       	movw	r26, r24
    22ba:	2d 93       	st	X+, r18
    22bc:	3c 93       	st	X, r19

000022be <.LBB232>:
    22be:	ce 01       	movw	r24, r28
    22c0:	81 56       	subi	r24, 0x61	; 97
    22c2:	9f 4f       	sbci	r25, 0xFF	; 255
    22c4:	fc 01       	movw	r30, r24
    22c6:	80 81       	ld	r24, Z
    22c8:	91 81       	ldd	r25, Z+1	; 0x01

000022ca <.L1^B29>:
    22ca:	01 97       	sbiw	r24, 0x01	; 1
    22cc:	f1 f7       	brne	.-4      	; 0x22ca <.L1^B29>
    22ce:	9e 01       	movw	r18, r28
    22d0:	21 56       	subi	r18, 0x61	; 97
    22d2:	3f 4f       	sbci	r19, 0xFF	; 255
    22d4:	d9 01       	movw	r26, r18
    22d6:	8d 93       	st	X+, r24
    22d8:	9c 93       	st	X, r25

000022da <.Loc.337>:
	...

000022dc <.LBE232>:
			__ticks --;
    22dc:	ce 01       	movw	r24, r28
    22de:	83 56       	subi	r24, 0x63	; 99
    22e0:	9f 4f       	sbci	r25, 0xFF	; 255
    22e2:	9e 01       	movw	r18, r28
    22e4:	23 56       	subi	r18, 0x63	; 99
    22e6:	3f 4f       	sbci	r19, 0xFF	; 255
    22e8:	f9 01       	movw	r30, r18
    22ea:	20 81       	ld	r18, Z
    22ec:	31 81       	ldd	r19, Z+1	; 0x01
    22ee:	21 50       	subi	r18, 0x01	; 1
    22f0:	31 09       	sbc	r19, r1
    22f2:	dc 01       	movw	r26, r24
    22f4:	11 96       	adiw	r26, 0x01	; 1
    22f6:	3c 93       	st	X, r19
    22f8:	2e 93       	st	-X, r18

000022fa <.L105>:
		while(__ticks)
    22fa:	ce 01       	movw	r24, r28
    22fc:	83 56       	subi	r24, 0x63	; 99
    22fe:	9f 4f       	sbci	r25, 0xFF	; 255
    2300:	fc 01       	movw	r30, r24
    2302:	80 81       	ld	r24, Z
    2304:	91 81       	ldd	r25, Z+1	; 0x01
    2306:	00 97       	sbiw	r24, 0x00	; 0
    2308:	91 f6       	brne	.-92     	; 0x22ae <.L106>

0000230a <.Loc.340>:
		return;
    230a:	39 c0       	rjmp	.+114    	; 0x237e <.L107>

0000230c <.L352>:
		__ticks = (uint16_t)__tmp;
    230c:	8e 01       	movw	r16, r28
    230e:	03 56       	subi	r16, 0x63	; 99
    2310:	1f 4f       	sbci	r17, 0xFF	; 255
    2312:	ce 01       	movw	r24, r28
    2314:	87 56       	subi	r24, 0x67	; 103
    2316:	9f 4f       	sbci	r25, 0xFF	; 255
    2318:	dc 01       	movw	r26, r24
    231a:	6d 91       	ld	r22, X+
    231c:	7d 91       	ld	r23, X+
    231e:	8d 91       	ld	r24, X+
    2320:	9c 91       	ld	r25, X
    2322:	0e 94 a9 27 	call	0x4f52	; 0x4f52 <__fixunssfsi>
    2326:	c9 53       	subi	r28, 0x39	; 57
    2328:	dd 4f       	sbci	r29, 0xFD	; 253
    232a:	68 83       	st	Y, r22
    232c:	79 83       	std	Y+1, r23	; 0x01
    232e:	8a 83       	std	Y+2, r24	; 0x02
    2330:	9b 83       	std	Y+3, r25	; 0x03
    2332:	c7 5c       	subi	r28, 0xC7	; 199
    2334:	d2 40       	sbci	r29, 0x02	; 2
    2336:	c9 53       	subi	r28, 0x39	; 57
    2338:	dd 4f       	sbci	r29, 0xFD	; 253
    233a:	88 81       	ld	r24, Y
    233c:	99 81       	ldd	r25, Y+1	; 0x01
    233e:	c7 5c       	subi	r28, 0xC7	; 199
    2340:	d2 40       	sbci	r29, 0x02	; 2
    2342:	f8 01       	movw	r30, r16
    2344:	91 83       	std	Z+1, r25	; 0x01
    2346:	80 83       	st	Z, r24

00002348 <.L102>:
    2348:	ce 01       	movw	r24, r28
    234a:	8f 55       	subi	r24, 0x5F	; 95
    234c:	9f 4f       	sbci	r25, 0xFF	; 255
    234e:	9e 01       	movw	r18, r28
    2350:	23 56       	subi	r18, 0x63	; 99
    2352:	3f 4f       	sbci	r19, 0xFF	; 255
    2354:	d9 01       	movw	r26, r18
    2356:	2d 91       	ld	r18, X+
    2358:	3c 91       	ld	r19, X
    235a:	fc 01       	movw	r30, r24
    235c:	31 83       	std	Z+1, r19	; 0x01
    235e:	20 83       	st	Z, r18

00002360 <.LBB234>:
    2360:	ce 01       	movw	r24, r28
    2362:	8f 55       	subi	r24, 0x5F	; 95
    2364:	9f 4f       	sbci	r25, 0xFF	; 255
    2366:	dc 01       	movw	r26, r24
    2368:	8d 91       	ld	r24, X+
    236a:	9c 91       	ld	r25, X

0000236c <.L1^B30>:
    236c:	01 97       	sbiw	r24, 0x01	; 1
    236e:	f1 f7       	brne	.-4      	; 0x236c <.L1^B30>
    2370:	9e 01       	movw	r18, r28
    2372:	2f 55       	subi	r18, 0x5F	; 95
    2374:	3f 4f       	sbci	r19, 0xFF	; 255
    2376:	f9 01       	movw	r30, r18
    2378:	91 83       	std	Z+1, r25	; 0x01
    237a:	80 83       	st	Z, r24

0000237c <.Loc.343>:
	...

0000237e <.L107>:
            {
                DEBOUNCE;
                if ((PINF & (1<<PF5)) == 0)
    237e:	8f e2       	ldi	r24, 0x2F	; 47
    2380:	90 e0       	ldi	r25, 0x00	; 0
    2382:	dc 01       	movw	r26, r24
    2384:	8c 91       	ld	r24, X

00002386 <.Loc.345>:
    2386:	88 2f       	mov	r24, r24
    2388:	90 e0       	ldi	r25, 0x00	; 0
    238a:	80 72       	andi	r24, 0x20	; 32
    238c:	99 27       	eor	r25, r25

0000238e <.Loc.346>:
    238e:	00 97       	sbiw	r24, 0x00	; 0
    2390:	09 f0       	breq	.+2      	; 0x2394 <L0^A+0x2>

00002392 <L0^A>:
    2392:	5d c1       	rjmp	.+698    	; 0x264e <.L99>
    2394:	9e 01       	movw	r18, r28
    2396:	2d 55       	subi	r18, 0x5D	; 93
    2398:	3f 4f       	sbci	r19, 0xFF	; 255
    239a:	80 e0       	ldi	r24, 0x00	; 0
    239c:	90 e0       	ldi	r25, 0x00	; 0
    239e:	a0 ef       	ldi	r26, 0xF0	; 240
    23a0:	b1 e4       	ldi	r27, 0x41	; 65
    23a2:	f9 01       	movw	r30, r18
    23a4:	80 83       	st	Z, r24
    23a6:	91 83       	std	Z+1, r25	; 0x01
    23a8:	a2 83       	std	Z+2, r26	; 0x02
    23aa:	b3 83       	std	Z+3, r27	; 0x03

000023ac <.LBB236>:
	__tmp = ((F_CPU) / 4e3) * __ms;
    23ac:	8e 01       	movw	r16, r28
    23ae:	09 55       	subi	r16, 0x59	; 89
    23b0:	1f 4f       	sbci	r17, 0xFF	; 255
    23b2:	ce 01       	movw	r24, r28
    23b4:	8d 55       	subi	r24, 0x5D	; 93
    23b6:	9f 4f       	sbci	r25, 0xFF	; 255
    23b8:	20 e0       	ldi	r18, 0x00	; 0
    23ba:	30 e0       	ldi	r19, 0x00	; 0
    23bc:	4a e7       	ldi	r20, 0x7A	; 122
    23be:	55 e4       	ldi	r21, 0x45	; 69
    23c0:	dc 01       	movw	r26, r24
    23c2:	6d 91       	ld	r22, X+
    23c4:	7d 91       	ld	r23, X+
    23c6:	8d 91       	ld	r24, X+
    23c8:	9c 91       	ld	r25, X
    23ca:	0e 94 2a 28 	call	0x5054	; 0x5054 <__mulsf3>
    23ce:	c5 53       	subi	r28, 0x35	; 53
    23d0:	dd 4f       	sbci	r29, 0xFD	; 253
    23d2:	68 83       	st	Y, r22
    23d4:	79 83       	std	Y+1, r23	; 0x01
    23d6:	8a 83       	std	Y+2, r24	; 0x02
    23d8:	9b 83       	std	Y+3, r25	; 0x03
    23da:	cb 5c       	subi	r28, 0xCB	; 203
    23dc:	d2 40       	sbci	r29, 0x02	; 2
    23de:	c5 53       	subi	r28, 0x35	; 53
    23e0:	dd 4f       	sbci	r29, 0xFD	; 253
    23e2:	88 81       	ld	r24, Y
    23e4:	99 81       	ldd	r25, Y+1	; 0x01
    23e6:	aa 81       	ldd	r26, Y+2	; 0x02
    23e8:	bb 81       	ldd	r27, Y+3	; 0x03
    23ea:	cb 5c       	subi	r28, 0xCB	; 203
    23ec:	d2 40       	sbci	r29, 0x02	; 2
    23ee:	f8 01       	movw	r30, r16
    23f0:	80 83       	st	Z, r24
    23f2:	91 83       	std	Z+1, r25	; 0x01
    23f4:	a2 83       	std	Z+2, r26	; 0x02
    23f6:	b3 83       	std	Z+3, r27	; 0x03

000023f8 <.Loc.348>:
	if (__tmp < 1.0)
    23f8:	ce 01       	movw	r24, r28
    23fa:	89 55       	subi	r24, 0x59	; 89
    23fc:	9f 4f       	sbci	r25, 0xFF	; 255
    23fe:	20 e0       	ldi	r18, 0x00	; 0
    2400:	30 e0       	ldi	r19, 0x00	; 0
    2402:	40 e8       	ldi	r20, 0x80	; 128
    2404:	5f e3       	ldi	r21, 0x3F	; 63
    2406:	dc 01       	movw	r26, r24
    2408:	6d 91       	ld	r22, X+
    240a:	7d 91       	ld	r23, X+
    240c:	8d 91       	ld	r24, X+
    240e:	9c 91       	ld	r25, X
    2410:	0e 94 a4 27 	call	0x4f48	; 0x4f48 <__cmpsf2>
    2414:	88 23       	and	r24, r24
    2416:	4c f4       	brge	.+18     	; 0x242a <.L353>

00002418 <.Loc.349>:
		__ticks = 1;
    2418:	ce 01       	movw	r24, r28
    241a:	85 55       	subi	r24, 0x55	; 85
    241c:	9f 4f       	sbci	r25, 0xFF	; 255
    241e:	21 e0       	ldi	r18, 0x01	; 1
    2420:	30 e0       	ldi	r19, 0x00	; 0
    2422:	fc 01       	movw	r30, r24
    2424:	31 83       	std	Z+1, r19	; 0x01
    2426:	20 83       	st	Z, r18
    2428:	a5 c0       	rjmp	.+330    	; 0x2574 <.L110>

0000242a <.L353>:
	else if (__tmp > 65535)
    242a:	ce 01       	movw	r24, r28
    242c:	89 55       	subi	r24, 0x59	; 89
    242e:	9f 4f       	sbci	r25, 0xFF	; 255
    2430:	20 e0       	ldi	r18, 0x00	; 0
    2432:	3f ef       	ldi	r19, 0xFF	; 255
    2434:	4f e7       	ldi	r20, 0x7F	; 127
    2436:	57 e4       	ldi	r21, 0x47	; 71
    2438:	dc 01       	movw	r26, r24
    243a:	6d 91       	ld	r22, X+
    243c:	7d 91       	ld	r23, X+
    243e:	8d 91       	ld	r24, X+
    2440:	9c 91       	ld	r25, X
    2442:	0e 94 25 28 	call	0x504a	; 0x504a <__gesf2>
    2446:	88 23       	and	r24, r24
    2448:	09 f0       	breq	.+2      	; 0x244c <L0^A>

0000244a <L0^A>:
    244a:	0c f4       	brge	.+2      	; 0x244e <.Loc.351>

0000244c <L0^A>:
    244c:	75 c0       	rjmp	.+234    	; 0x2538 <.L354>

0000244e <.Loc.351>:
		__ticks = (uint16_t) (__ms * 10.0);
    244e:	ce 01       	movw	r24, r28
    2450:	8d 55       	subi	r24, 0x5D	; 93
    2452:	9f 4f       	sbci	r25, 0xFF	; 255
    2454:	20 e0       	ldi	r18, 0x00	; 0
    2456:	30 e0       	ldi	r19, 0x00	; 0
    2458:	40 e2       	ldi	r20, 0x20	; 32
    245a:	51 e4       	ldi	r21, 0x41	; 65
    245c:	fc 01       	movw	r30, r24
    245e:	60 81       	ld	r22, Z
    2460:	71 81       	ldd	r23, Z+1	; 0x01
    2462:	82 81       	ldd	r24, Z+2	; 0x02
    2464:	93 81       	ldd	r25, Z+3	; 0x03
    2466:	0e 94 2a 28 	call	0x5054	; 0x5054 <__mulsf3>
    246a:	c1 53       	subi	r28, 0x31	; 49
    246c:	dd 4f       	sbci	r29, 0xFD	; 253
    246e:	68 83       	st	Y, r22
    2470:	79 83       	std	Y+1, r23	; 0x01
    2472:	8a 83       	std	Y+2, r24	; 0x02
    2474:	9b 83       	std	Y+3, r25	; 0x03
    2476:	cf 5c       	subi	r28, 0xCF	; 207
    2478:	d2 40       	sbci	r29, 0x02	; 2
    247a:	c1 53       	subi	r28, 0x31	; 49
    247c:	dd 4f       	sbci	r29, 0xFD	; 253
    247e:	88 81       	ld	r24, Y
    2480:	99 81       	ldd	r25, Y+1	; 0x01
    2482:	aa 81       	ldd	r26, Y+2	; 0x02
    2484:	bb 81       	ldd	r27, Y+3	; 0x03
    2486:	cf 5c       	subi	r28, 0xCF	; 207
    2488:	d2 40       	sbci	r29, 0x02	; 2
    248a:	cd 51       	subi	r28, 0x1D	; 29
    248c:	de 4f       	sbci	r29, 0xFE	; 254
    248e:	88 83       	st	Y, r24
    2490:	99 83       	std	Y+1, r25	; 0x01
    2492:	aa 83       	std	Y+2, r26	; 0x02
    2494:	bb 83       	std	Y+3, r27	; 0x03
    2496:	c3 5e       	subi	r28, 0xE3	; 227
    2498:	d1 40       	sbci	r29, 0x01	; 1

0000249a <.Loc.352>:
    249a:	8e 01       	movw	r16, r28
    249c:	05 55       	subi	r16, 0x55	; 85
    249e:	1f 4f       	sbci	r17, 0xFF	; 255
    24a0:	cd 51       	subi	r28, 0x1D	; 29
    24a2:	de 4f       	sbci	r29, 0xFE	; 254
    24a4:	68 81       	ld	r22, Y
    24a6:	79 81       	ldd	r23, Y+1	; 0x01
    24a8:	8a 81       	ldd	r24, Y+2	; 0x02
    24aa:	9b 81       	ldd	r25, Y+3	; 0x03
    24ac:	c3 5e       	subi	r28, 0xE3	; 227
    24ae:	d1 40       	sbci	r29, 0x01	; 1
    24b0:	0e 94 a9 27 	call	0x4f52	; 0x4f52 <__fixunssfsi>
    24b4:	cd 52       	subi	r28, 0x2D	; 45
    24b6:	dd 4f       	sbci	r29, 0xFD	; 253
    24b8:	68 83       	st	Y, r22
    24ba:	79 83       	std	Y+1, r23	; 0x01
    24bc:	8a 83       	std	Y+2, r24	; 0x02
    24be:	9b 83       	std	Y+3, r25	; 0x03
    24c0:	c3 5d       	subi	r28, 0xD3	; 211
    24c2:	d2 40       	sbci	r29, 0x02	; 2
    24c4:	cd 52       	subi	r28, 0x2D	; 45
    24c6:	dd 4f       	sbci	r29, 0xFD	; 253
    24c8:	e8 81       	ld	r30, Y
    24ca:	f9 81       	ldd	r31, Y+1	; 0x01
    24cc:	c3 5d       	subi	r28, 0xD3	; 211
    24ce:	d2 40       	sbci	r29, 0x02	; 2
    24d0:	d8 01       	movw	r26, r16
    24d2:	11 96       	adiw	r26, 0x01	; 1
    24d4:	fc 93       	st	X, r31
    24d6:	ee 93       	st	-X, r30

000024d8 <.Loc.353>:
		while(__ticks)
    24d8:	26 c0       	rjmp	.+76     	; 0x2526 <.L113>

000024da <.L114>:
    24da:	ce 01       	movw	r24, r28
    24dc:	83 55       	subi	r24, 0x53	; 83
    24de:	9f 4f       	sbci	r25, 0xFF	; 255
    24e0:	20 e9       	ldi	r18, 0x90	; 144
    24e2:	31 e0       	ldi	r19, 0x01	; 1
    24e4:	dc 01       	movw	r26, r24
    24e6:	2d 93       	st	X+, r18
    24e8:	3c 93       	st	X, r19

000024ea <.LBB238>:
    24ea:	ce 01       	movw	r24, r28
    24ec:	83 55       	subi	r24, 0x53	; 83
    24ee:	9f 4f       	sbci	r25, 0xFF	; 255
    24f0:	fc 01       	movw	r30, r24
    24f2:	80 81       	ld	r24, Z
    24f4:	91 81       	ldd	r25, Z+1	; 0x01

000024f6 <.L1^B31>:
    24f6:	01 97       	sbiw	r24, 0x01	; 1
    24f8:	f1 f7       	brne	.-4      	; 0x24f6 <.L1^B31>
    24fa:	9e 01       	movw	r18, r28
    24fc:	23 55       	subi	r18, 0x53	; 83
    24fe:	3f 4f       	sbci	r19, 0xFF	; 255
    2500:	d9 01       	movw	r26, r18
    2502:	8d 93       	st	X+, r24
    2504:	9c 93       	st	X, r25

00002506 <.Loc.355>:
	...

00002508 <.LBE238>:
			__ticks --;
    2508:	ce 01       	movw	r24, r28
    250a:	85 55       	subi	r24, 0x55	; 85
    250c:	9f 4f       	sbci	r25, 0xFF	; 255
    250e:	9e 01       	movw	r18, r28
    2510:	25 55       	subi	r18, 0x55	; 85
    2512:	3f 4f       	sbci	r19, 0xFF	; 255
    2514:	f9 01       	movw	r30, r18
    2516:	20 81       	ld	r18, Z
    2518:	31 81       	ldd	r19, Z+1	; 0x01
    251a:	21 50       	subi	r18, 0x01	; 1
    251c:	31 09       	sbc	r19, r1
    251e:	dc 01       	movw	r26, r24
    2520:	11 96       	adiw	r26, 0x01	; 1
    2522:	3c 93       	st	X, r19
    2524:	2e 93       	st	-X, r18

00002526 <.L113>:
		while(__ticks)
    2526:	ce 01       	movw	r24, r28
    2528:	85 55       	subi	r24, 0x55	; 85
    252a:	9f 4f       	sbci	r25, 0xFF	; 255
    252c:	fc 01       	movw	r30, r24
    252e:	80 81       	ld	r24, Z
    2530:	91 81       	ldd	r25, Z+1	; 0x01
    2532:	00 97       	sbiw	r24, 0x00	; 0
    2534:	91 f6       	brne	.-92     	; 0x24da <.L114>

00002536 <.Loc.358>:
		return;
    2536:	3a c0       	rjmp	.+116    	; 0x25ac <.L115>

00002538 <.L354>:
		__ticks = (uint16_t)__tmp;
    2538:	8e 01       	movw	r16, r28
    253a:	05 55       	subi	r16, 0x55	; 85
    253c:	1f 4f       	sbci	r17, 0xFF	; 255
    253e:	ce 01       	movw	r24, r28
    2540:	89 55       	subi	r24, 0x59	; 89
    2542:	9f 4f       	sbci	r25, 0xFF	; 255
    2544:	dc 01       	movw	r26, r24
    2546:	6d 91       	ld	r22, X+
    2548:	7d 91       	ld	r23, X+
    254a:	8d 91       	ld	r24, X+
    254c:	9c 91       	ld	r25, X
    254e:	0e 94 a9 27 	call	0x4f52	; 0x4f52 <__fixunssfsi>
    2552:	c9 52       	subi	r28, 0x29	; 41
    2554:	dd 4f       	sbci	r29, 0xFD	; 253
    2556:	68 83       	st	Y, r22
    2558:	79 83       	std	Y+1, r23	; 0x01
    255a:	8a 83       	std	Y+2, r24	; 0x02
    255c:	9b 83       	std	Y+3, r25	; 0x03
    255e:	c7 5d       	subi	r28, 0xD7	; 215
    2560:	d2 40       	sbci	r29, 0x02	; 2
    2562:	c9 52       	subi	r28, 0x29	; 41
    2564:	dd 4f       	sbci	r29, 0xFD	; 253
    2566:	88 81       	ld	r24, Y
    2568:	99 81       	ldd	r25, Y+1	; 0x01
    256a:	c7 5d       	subi	r28, 0xD7	; 215
    256c:	d2 40       	sbci	r29, 0x02	; 2
    256e:	f8 01       	movw	r30, r16
    2570:	91 83       	std	Z+1, r25	; 0x01
    2572:	80 83       	st	Z, r24

00002574 <.L110>:
    2574:	ce 01       	movw	r24, r28
    2576:	81 55       	subi	r24, 0x51	; 81
    2578:	9f 4f       	sbci	r25, 0xFF	; 255
    257a:	9e 01       	movw	r18, r28
    257c:	25 55       	subi	r18, 0x55	; 85
    257e:	3f 4f       	sbci	r19, 0xFF	; 255
    2580:	d9 01       	movw	r26, r18
    2582:	2d 91       	ld	r18, X+
    2584:	3c 91       	ld	r19, X
    2586:	fc 01       	movw	r30, r24
    2588:	31 83       	std	Z+1, r19	; 0x01
    258a:	20 83       	st	Z, r18

0000258c <.LBB240>:
    258c:	ce 01       	movw	r24, r28
    258e:	81 55       	subi	r24, 0x51	; 81
    2590:	9f 4f       	sbci	r25, 0xFF	; 255
    2592:	dc 01       	movw	r26, r24
    2594:	8d 91       	ld	r24, X+
    2596:	9c 91       	ld	r25, X
    2598:	11 97       	sbiw	r26, 0x01	; 1

0000259a <.L1^B32>:
    259a:	01 97       	sbiw	r24, 0x01	; 1
    259c:	f1 f7       	brne	.-4      	; 0x259a <.L1^B32>
    259e:	9e 01       	movw	r18, r28
    25a0:	21 55       	subi	r18, 0x51	; 81
    25a2:	3f 4f       	sbci	r19, 0xFF	; 255
    25a4:	f9 01       	movw	r30, r18
    25a6:	91 83       	std	Z+1, r25	; 0x01
    25a8:	80 83       	st	Z, r24

000025aa <.Loc.361>:
	...

000025ac <.L115>:
                {
                    DEBOUNCE;
                    if (y <= 1)
    25ac:	8f 81       	ldd	r24, Y+7	; 0x07
    25ae:	98 85       	ldd	r25, Y+8	; 0x08
    25b0:	81 30       	cpi	r24, 0x01	; 1
    25b2:	91 05       	cpc	r25, r1
    25b4:	09 f0       	breq	.+2      	; 0x25b8 <.Loc.363>

000025b6 <L0^A>:
    25b6:	04 f5       	brge	.+64     	; 0x25f8 <.L116>

000025b8 <.Loc.363>:
                    {
                        PORTG &= ~(1<<besturingy[y]);
    25b8:	84 e3       	ldi	r24, 0x34	; 52
    25ba:	90 e0       	ldi	r25, 0x00	; 0
    25bc:	dc 01       	movw	r26, r24
    25be:	8c 91       	ld	r24, X
    25c0:	48 2f       	mov	r20, r24

000025c2 <.Loc.364>:
    25c2:	9e 01       	movw	r18, r28
    25c4:	23 55       	subi	r18, 0x53	; 83
    25c6:	3e 4f       	sbci	r19, 0xFE	; 254
    25c8:	8f 81       	ldd	r24, Y+7	; 0x07
    25ca:	98 85       	ldd	r25, Y+8	; 0x08
    25cc:	88 0f       	add	r24, r24
    25ce:	99 1f       	adc	r25, r25
    25d0:	82 0f       	add	r24, r18
    25d2:	93 1f       	adc	r25, r19
    25d4:	fc 01       	movw	r30, r24
    25d6:	20 81       	ld	r18, Z
    25d8:	31 81       	ldd	r19, Z+1	; 0x01

000025da <.Loc.365>:
    25da:	81 e0       	ldi	r24, 0x01	; 1
    25dc:	90 e0       	ldi	r25, 0x00	; 0
    25de:	02 c0       	rjmp	.+4      	; 0x25e4 <.L2^B11>

000025e0 <.L1^B33>:
    25e0:	88 0f       	add	r24, r24
    25e2:	99 1f       	adc	r25, r25

000025e4 <.L2^B11>:
    25e4:	2a 95       	dec	r18
    25e6:	e2 f7       	brpl	.-8      	; 0x25e0 <.L1^B33>

000025e8 <.Loc.366>:
    25e8:	80 95       	com	r24
    25ea:	24 2f       	mov	r18, r20
    25ec:	28 23       	and	r18, r24

000025ee <.Loc.367>:
    25ee:	84 e3       	ldi	r24, 0x34	; 52
    25f0:	90 e0       	ldi	r25, 0x00	; 0

000025f2 <.Loc.368>:
    25f2:	dc 01       	movw	r26, r24
    25f4:	2c 93       	st	X, r18
    25f6:	26 c0       	rjmp	.+76     	; 0x2644 <.L117>

000025f8 <.L116>:
                    }
                    else if (y > 1)
    25f8:	8f 81       	ldd	r24, Y+7	; 0x07
    25fa:	98 85       	ldd	r25, Y+8	; 0x08
    25fc:	81 30       	cpi	r24, 0x01	; 1
    25fe:	91 05       	cpc	r25, r1
    2600:	09 f1       	breq	.+66     	; 0x2644 <.L117>
    2602:	04 f1       	brlt	.+64     	; 0x2644 <.L117>

00002604 <.Loc.370>:
                    {
                        PORTL &= ~(1<<besturingy[y]);
    2604:	8b e0       	ldi	r24, 0x0B	; 11
    2606:	91 e0       	ldi	r25, 0x01	; 1
    2608:	fc 01       	movw	r30, r24
    260a:	80 81       	ld	r24, Z
    260c:	48 2f       	mov	r20, r24

0000260e <.Loc.371>:
    260e:	9e 01       	movw	r18, r28
    2610:	23 55       	subi	r18, 0x53	; 83
    2612:	3e 4f       	sbci	r19, 0xFE	; 254
    2614:	8f 81       	ldd	r24, Y+7	; 0x07
    2616:	98 85       	ldd	r25, Y+8	; 0x08
    2618:	88 0f       	add	r24, r24
    261a:	99 1f       	adc	r25, r25
    261c:	82 0f       	add	r24, r18
    261e:	93 1f       	adc	r25, r19
    2620:	dc 01       	movw	r26, r24
    2622:	2d 91       	ld	r18, X+
    2624:	3c 91       	ld	r19, X
    2626:	11 97       	sbiw	r26, 0x01	; 1

00002628 <.Loc.372>:
    2628:	81 e0       	ldi	r24, 0x01	; 1
    262a:	90 e0       	ldi	r25, 0x00	; 0
    262c:	02 c0       	rjmp	.+4      	; 0x2632 <.L2^B12>

0000262e <.L1^B34>:
    262e:	88 0f       	add	r24, r24
    2630:	99 1f       	adc	r25, r25

00002632 <.L2^B12>:
    2632:	2a 95       	dec	r18
    2634:	e2 f7       	brpl	.-8      	; 0x262e <.L1^B34>

00002636 <.Loc.373>:
    2636:	80 95       	com	r24
    2638:	24 2f       	mov	r18, r20
    263a:	28 23       	and	r18, r24

0000263c <.Loc.374>:
    263c:	8b e0       	ldi	r24, 0x0B	; 11
    263e:	91 e0       	ldi	r25, 0x01	; 1

00002640 <.Loc.375>:
    2640:	fc 01       	movw	r30, r24
    2642:	20 83       	st	Z, r18

00002644 <.L117>:
                    }
                    y--;
    2644:	8f 81       	ldd	r24, Y+7	; 0x07
    2646:	98 85       	ldd	r25, Y+8	; 0x08
    2648:	01 97       	sbiw	r24, 0x01	; 1
    264a:	98 87       	std	Y+8, r25	; 0x08
    264c:	8f 83       	std	Y+7, r24	; 0x07

0000264e <.L99>:
                }
            }
            if (y <= 1)                                                  // eerste 2 ledjes y-as
    264e:	8f 81       	ldd	r24, Y+7	; 0x07
    2650:	98 85       	ldd	r25, Y+8	; 0x08
    2652:	81 30       	cpi	r24, 0x01	; 1
    2654:	91 05       	cpc	r25, r1
    2656:	09 f0       	breq	.+2      	; 0x265a <.Loc.378>

00002658 <L0^A>:
    2658:	f4 f4       	brge	.+60     	; 0x2696 <.L118>

0000265a <.Loc.378>:
            {
                PORTG |= (1<<besturingy[y]);
    265a:	84 e3       	ldi	r24, 0x34	; 52
    265c:	90 e0       	ldi	r25, 0x00	; 0
    265e:	dc 01       	movw	r26, r24
    2660:	8c 91       	ld	r24, X
    2662:	48 2f       	mov	r20, r24

00002664 <.Loc.379>:
    2664:	9e 01       	movw	r18, r28
    2666:	23 55       	subi	r18, 0x53	; 83
    2668:	3e 4f       	sbci	r19, 0xFE	; 254
    266a:	8f 81       	ldd	r24, Y+7	; 0x07
    266c:	98 85       	ldd	r25, Y+8	; 0x08
    266e:	88 0f       	add	r24, r24
    2670:	99 1f       	adc	r25, r25
    2672:	82 0f       	add	r24, r18
    2674:	93 1f       	adc	r25, r19
    2676:	fc 01       	movw	r30, r24
    2678:	20 81       	ld	r18, Z
    267a:	31 81       	ldd	r19, Z+1	; 0x01

0000267c <.Loc.380>:
    267c:	81 e0       	ldi	r24, 0x01	; 1
    267e:	90 e0       	ldi	r25, 0x00	; 0
    2680:	02 c0       	rjmp	.+4      	; 0x2686 <.L2^B13>

00002682 <.L1^B35>:
    2682:	88 0f       	add	r24, r24
    2684:	99 1f       	adc	r25, r25

00002686 <.L2^B13>:
    2686:	2a 95       	dec	r18
    2688:	e2 f7       	brpl	.-8      	; 0x2682 <.L1^B35>

0000268a <.Loc.381>:
    268a:	24 2f       	mov	r18, r20
    268c:	28 2b       	or	r18, r24

0000268e <.Loc.382>:
    268e:	84 e3       	ldi	r24, 0x34	; 52
    2690:	90 e0       	ldi	r25, 0x00	; 0

00002692 <.Loc.383>:
    2692:	dc 01       	movw	r26, r24
    2694:	2c 93       	st	X, r18

00002696 <.L118>:
            }
            if (y < 0)                                                  // laatste 5 ledjes weer uit y-as
    2696:	8f 81       	ldd	r24, Y+7	; 0x07
    2698:	98 85       	ldd	r25, Y+8	; 0x08
    269a:	99 23       	and	r25, r25
    269c:	24 f5       	brge	.+72     	; 0x26e6 <.L119>

0000269e <.Loc.385>:
            {
                PORTG &= ~(1<<besturingy[y]);
    269e:	84 e3       	ldi	r24, 0x34	; 52
    26a0:	90 e0       	ldi	r25, 0x00	; 0
    26a2:	fc 01       	movw	r30, r24
    26a4:	80 81       	ld	r24, Z
    26a6:	48 2f       	mov	r20, r24

000026a8 <.Loc.386>:
    26a8:	9e 01       	movw	r18, r28
    26aa:	23 55       	subi	r18, 0x53	; 83
    26ac:	3e 4f       	sbci	r19, 0xFE	; 254
    26ae:	8f 81       	ldd	r24, Y+7	; 0x07
    26b0:	98 85       	ldd	r25, Y+8	; 0x08
    26b2:	88 0f       	add	r24, r24
    26b4:	99 1f       	adc	r25, r25
    26b6:	82 0f       	add	r24, r18
    26b8:	93 1f       	adc	r25, r19
    26ba:	dc 01       	movw	r26, r24
    26bc:	2d 91       	ld	r18, X+
    26be:	3c 91       	ld	r19, X
    26c0:	11 97       	sbiw	r26, 0x01	; 1

000026c2 <.Loc.387>:
    26c2:	81 e0       	ldi	r24, 0x01	; 1
    26c4:	90 e0       	ldi	r25, 0x00	; 0
    26c6:	02 c0       	rjmp	.+4      	; 0x26cc <.L2^B14>

000026c8 <.L1^B36>:
    26c8:	88 0f       	add	r24, r24
    26ca:	99 1f       	adc	r25, r25

000026cc <.L2^B14>:
    26cc:	2a 95       	dec	r18
    26ce:	e2 f7       	brpl	.-8      	; 0x26c8 <.L1^B36>

000026d0 <.Loc.388>:
    26d0:	80 95       	com	r24
    26d2:	24 2f       	mov	r18, r20
    26d4:	28 23       	and	r18, r24

000026d6 <.Loc.389>:
    26d6:	84 e3       	ldi	r24, 0x34	; 52
    26d8:	90 e0       	ldi	r25, 0x00	; 0

000026da <.Loc.390>:
    26da:	fc 01       	movw	r30, r24
    26dc:	20 83       	st	Z, r18

000026de <.Loc.391>:
                y = 6;                                                  // y weer op 6
    26de:	86 e0       	ldi	r24, 0x06	; 6
    26e0:	90 e0       	ldi	r25, 0x00	; 0
    26e2:	98 87       	std	Y+8, r25	; 0x08
    26e4:	8f 83       	std	Y+7, r24	; 0x07

000026e6 <.L119>:
            }
            if (y > 1)                                                 // laatste 5 ledjes y-as
    26e6:	8f 81       	ldd	r24, Y+7	; 0x07
    26e8:	98 85       	ldd	r25, Y+8	; 0x08
    26ea:	81 30       	cpi	r24, 0x01	; 1
    26ec:	91 05       	cpc	r25, r1
    26ee:	f9 f0       	breq	.+62     	; 0x272e <.L120>
    26f0:	f4 f0       	brlt	.+60     	; 0x272e <.L120>

000026f2 <.Loc.393>:
            {
                PORTL |= (1<<besturingy[y]);
    26f2:	8b e0       	ldi	r24, 0x0B	; 11
    26f4:	91 e0       	ldi	r25, 0x01	; 1
    26f6:	dc 01       	movw	r26, r24
    26f8:	8c 91       	ld	r24, X
    26fa:	48 2f       	mov	r20, r24

000026fc <.Loc.394>:
    26fc:	9e 01       	movw	r18, r28
    26fe:	23 55       	subi	r18, 0x53	; 83
    2700:	3e 4f       	sbci	r19, 0xFE	; 254
    2702:	8f 81       	ldd	r24, Y+7	; 0x07
    2704:	98 85       	ldd	r25, Y+8	; 0x08
    2706:	88 0f       	add	r24, r24
    2708:	99 1f       	adc	r25, r25
    270a:	82 0f       	add	r24, r18
    270c:	93 1f       	adc	r25, r19
    270e:	fc 01       	movw	r30, r24
    2710:	20 81       	ld	r18, Z
    2712:	31 81       	ldd	r19, Z+1	; 0x01

00002714 <.Loc.395>:
    2714:	81 e0       	ldi	r24, 0x01	; 1
    2716:	90 e0       	ldi	r25, 0x00	; 0
    2718:	02 c0       	rjmp	.+4      	; 0x271e <.L2^B15>

0000271a <.L1^B37>:
    271a:	88 0f       	add	r24, r24
    271c:	99 1f       	adc	r25, r25

0000271e <.L2^B15>:
    271e:	2a 95       	dec	r18
    2720:	e2 f7       	brpl	.-8      	; 0x271a <.L1^B37>

00002722 <.Loc.396>:
    2722:	24 2f       	mov	r18, r20
    2724:	28 2b       	or	r18, r24

00002726 <.Loc.397>:
    2726:	8b e0       	ldi	r24, 0x0B	; 11
    2728:	91 e0       	ldi	r25, 0x01	; 1

0000272a <.Loc.398>:
    272a:	dc 01       	movw	r26, r24
    272c:	2c 93       	st	X, r18

0000272e <.L120>:
            }
            if (y > 6)                                                  // eerste 2 ledjes weer uit y-as
    272e:	8f 81       	ldd	r24, Y+7	; 0x07
    2730:	98 85       	ldd	r25, Y+8	; 0x08
    2732:	86 30       	cpi	r24, 0x06	; 6
    2734:	91 05       	cpc	r25, r1
    2736:	11 f1       	breq	.+68     	; 0x277c <.L121>
    2738:	0c f1       	brlt	.+66     	; 0x277c <.L121>

0000273a <.Loc.400>:
            {
                PORTL &= ~(1<<besturingy[y]);
    273a:	8b e0       	ldi	r24, 0x0B	; 11
    273c:	91 e0       	ldi	r25, 0x01	; 1
    273e:	fc 01       	movw	r30, r24
    2740:	80 81       	ld	r24, Z
    2742:	48 2f       	mov	r20, r24

00002744 <.Loc.401>:
    2744:	9e 01       	movw	r18, r28
    2746:	23 55       	subi	r18, 0x53	; 83
    2748:	3e 4f       	sbci	r19, 0xFE	; 254
    274a:	8f 81       	ldd	r24, Y+7	; 0x07
    274c:	98 85       	ldd	r25, Y+8	; 0x08
    274e:	88 0f       	add	r24, r24
    2750:	99 1f       	adc	r25, r25
    2752:	82 0f       	add	r24, r18
    2754:	93 1f       	adc	r25, r19
    2756:	dc 01       	movw	r26, r24
    2758:	2d 91       	ld	r18, X+
    275a:	3c 91       	ld	r19, X

0000275c <.Loc.402>:
    275c:	81 e0       	ldi	r24, 0x01	; 1
    275e:	90 e0       	ldi	r25, 0x00	; 0
    2760:	02 c0       	rjmp	.+4      	; 0x2766 <.L2^B16>

00002762 <.L1^B38>:
    2762:	88 0f       	add	r24, r24
    2764:	99 1f       	adc	r25, r25

00002766 <.L2^B16>:
    2766:	2a 95       	dec	r18
    2768:	e2 f7       	brpl	.-8      	; 0x2762 <.L1^B38>

0000276a <.Loc.403>:
    276a:	80 95       	com	r24
    276c:	24 2f       	mov	r18, r20
    276e:	28 23       	and	r18, r24

00002770 <.Loc.404>:
    2770:	8b e0       	ldi	r24, 0x0B	; 11
    2772:	91 e0       	ldi	r25, 0x01	; 1

00002774 <.Loc.405>:
    2774:	fc 01       	movw	r30, r24
    2776:	20 83       	st	Z, r18

00002778 <.Loc.406>:
                y = 0;                                                  // y weer op 0
    2778:	18 86       	std	Y+8, r1	; 0x08
    277a:	1f 82       	std	Y+7, r1	; 0x07

0000277c <.L121>:
            }
            if ((PINF & (1<<PF1)) != 0)            // knop voor activeren van beide assen //
    277c:	8f e2       	ldi	r24, 0x2F	; 47
    277e:	90 e0       	ldi	r25, 0x00	; 0
    2780:	dc 01       	movw	r26, r24
    2782:	8c 91       	ld	r24, X

00002784 <.Loc.408>:
    2784:	88 2f       	mov	r24, r24
    2786:	90 e0       	ldi	r25, 0x00	; 0
    2788:	82 70       	andi	r24, 0x02	; 2
    278a:	99 27       	eor	r25, r25

0000278c <.Loc.409>:
    278c:	00 97       	sbiw	r24, 0x00	; 0
    278e:	09 f4       	brne	.+2      	; 0x2792 <L0^A+0x2>

00002790 <L0^A>:
    2790:	2c c2       	rjmp	.+1112   	; 0x2bea <.L122>
    2792:	9e 01       	movw	r18, r28
    2794:	2f 54       	subi	r18, 0x4F	; 79
    2796:	3f 4f       	sbci	r19, 0xFF	; 255
    2798:	80 e0       	ldi	r24, 0x00	; 0
    279a:	90 e0       	ldi	r25, 0x00	; 0
    279c:	a0 ef       	ldi	r26, 0xF0	; 240
    279e:	b1 e4       	ldi	r27, 0x41	; 65
    27a0:	f9 01       	movw	r30, r18
    27a2:	80 83       	st	Z, r24
    27a4:	91 83       	std	Z+1, r25	; 0x01
    27a6:	a2 83       	std	Z+2, r26	; 0x02
    27a8:	b3 83       	std	Z+3, r27	; 0x03

000027aa <.LBB242>:
	__tmp = ((F_CPU) / 4e3) * __ms;
    27aa:	8e 01       	movw	r16, r28
    27ac:	0b 54       	subi	r16, 0x4B	; 75
    27ae:	1f 4f       	sbci	r17, 0xFF	; 255
    27b0:	ce 01       	movw	r24, r28
    27b2:	8f 54       	subi	r24, 0x4F	; 79
    27b4:	9f 4f       	sbci	r25, 0xFF	; 255
    27b6:	20 e0       	ldi	r18, 0x00	; 0
    27b8:	30 e0       	ldi	r19, 0x00	; 0
    27ba:	4a e7       	ldi	r20, 0x7A	; 122
    27bc:	55 e4       	ldi	r21, 0x45	; 69
    27be:	dc 01       	movw	r26, r24
    27c0:	6d 91       	ld	r22, X+
    27c2:	7d 91       	ld	r23, X+
    27c4:	8d 91       	ld	r24, X+
    27c6:	9c 91       	ld	r25, X
    27c8:	0e 94 2a 28 	call	0x5054	; 0x5054 <__mulsf3>
    27cc:	c5 52       	subi	r28, 0x25	; 37
    27ce:	dd 4f       	sbci	r29, 0xFD	; 253
    27d0:	68 83       	st	Y, r22
    27d2:	79 83       	std	Y+1, r23	; 0x01
    27d4:	8a 83       	std	Y+2, r24	; 0x02
    27d6:	9b 83       	std	Y+3, r25	; 0x03
    27d8:	cb 5d       	subi	r28, 0xDB	; 219
    27da:	d2 40       	sbci	r29, 0x02	; 2
    27dc:	c5 52       	subi	r28, 0x25	; 37
    27de:	dd 4f       	sbci	r29, 0xFD	; 253
    27e0:	88 81       	ld	r24, Y
    27e2:	99 81       	ldd	r25, Y+1	; 0x01
    27e4:	aa 81       	ldd	r26, Y+2	; 0x02
    27e6:	bb 81       	ldd	r27, Y+3	; 0x03
    27e8:	cb 5d       	subi	r28, 0xDB	; 219
    27ea:	d2 40       	sbci	r29, 0x02	; 2
    27ec:	f8 01       	movw	r30, r16
    27ee:	80 83       	st	Z, r24
    27f0:	91 83       	std	Z+1, r25	; 0x01
    27f2:	a2 83       	std	Z+2, r26	; 0x02
    27f4:	b3 83       	std	Z+3, r27	; 0x03

000027f6 <.Loc.411>:
	if (__tmp < 1.0)
    27f6:	ce 01       	movw	r24, r28
    27f8:	8b 54       	subi	r24, 0x4B	; 75
    27fa:	9f 4f       	sbci	r25, 0xFF	; 255
    27fc:	20 e0       	ldi	r18, 0x00	; 0
    27fe:	30 e0       	ldi	r19, 0x00	; 0
    2800:	40 e8       	ldi	r20, 0x80	; 128
    2802:	5f e3       	ldi	r21, 0x3F	; 63
    2804:	dc 01       	movw	r26, r24
    2806:	6d 91       	ld	r22, X+
    2808:	7d 91       	ld	r23, X+
    280a:	8d 91       	ld	r24, X+
    280c:	9c 91       	ld	r25, X
    280e:	0e 94 a4 27 	call	0x4f48	; 0x4f48 <__cmpsf2>
    2812:	88 23       	and	r24, r24
    2814:	4c f4       	brge	.+18     	; 0x2828 <.L355>

00002816 <.Loc.412>:
		__ticks = 1;
    2816:	ce 01       	movw	r24, r28
    2818:	87 54       	subi	r24, 0x47	; 71
    281a:	9f 4f       	sbci	r25, 0xFF	; 255
    281c:	21 e0       	ldi	r18, 0x01	; 1
    281e:	30 e0       	ldi	r19, 0x00	; 0
    2820:	fc 01       	movw	r30, r24
    2822:	31 83       	std	Z+1, r19	; 0x01
    2824:	20 83       	st	Z, r18
    2826:	a5 c0       	rjmp	.+330    	; 0x2972 <.L125>

00002828 <.L355>:
	else if (__tmp > 65535)
    2828:	ce 01       	movw	r24, r28
    282a:	8b 54       	subi	r24, 0x4B	; 75
    282c:	9f 4f       	sbci	r25, 0xFF	; 255
    282e:	20 e0       	ldi	r18, 0x00	; 0
    2830:	3f ef       	ldi	r19, 0xFF	; 255
    2832:	4f e7       	ldi	r20, 0x7F	; 127
    2834:	57 e4       	ldi	r21, 0x47	; 71
    2836:	dc 01       	movw	r26, r24
    2838:	6d 91       	ld	r22, X+
    283a:	7d 91       	ld	r23, X+
    283c:	8d 91       	ld	r24, X+
    283e:	9c 91       	ld	r25, X
    2840:	0e 94 25 28 	call	0x504a	; 0x504a <__gesf2>
    2844:	88 23       	and	r24, r24
    2846:	09 f0       	breq	.+2      	; 0x284a <L0^A>

00002848 <L0^A>:
    2848:	0c f4       	brge	.+2      	; 0x284c <.Loc.414>

0000284a <L0^A>:
    284a:	75 c0       	rjmp	.+234    	; 0x2936 <.L356>

0000284c <.Loc.414>:
		__ticks = (uint16_t) (__ms * 10.0);
    284c:	ce 01       	movw	r24, r28
    284e:	8f 54       	subi	r24, 0x4F	; 79
    2850:	9f 4f       	sbci	r25, 0xFF	; 255
    2852:	20 e0       	ldi	r18, 0x00	; 0
    2854:	30 e0       	ldi	r19, 0x00	; 0
    2856:	40 e2       	ldi	r20, 0x20	; 32
    2858:	51 e4       	ldi	r21, 0x41	; 65
    285a:	fc 01       	movw	r30, r24
    285c:	60 81       	ld	r22, Z
    285e:	71 81       	ldd	r23, Z+1	; 0x01
    2860:	82 81       	ldd	r24, Z+2	; 0x02
    2862:	93 81       	ldd	r25, Z+3	; 0x03
    2864:	0e 94 2a 28 	call	0x5054	; 0x5054 <__mulsf3>
    2868:	c1 52       	subi	r28, 0x21	; 33
    286a:	dd 4f       	sbci	r29, 0xFD	; 253
    286c:	68 83       	st	Y, r22
    286e:	79 83       	std	Y+1, r23	; 0x01
    2870:	8a 83       	std	Y+2, r24	; 0x02
    2872:	9b 83       	std	Y+3, r25	; 0x03
    2874:	cf 5d       	subi	r28, 0xDF	; 223
    2876:	d2 40       	sbci	r29, 0x02	; 2
    2878:	c1 52       	subi	r28, 0x21	; 33
    287a:	dd 4f       	sbci	r29, 0xFD	; 253
    287c:	88 81       	ld	r24, Y
    287e:	99 81       	ldd	r25, Y+1	; 0x01
    2880:	aa 81       	ldd	r26, Y+2	; 0x02
    2882:	bb 81       	ldd	r27, Y+3	; 0x03
    2884:	cf 5d       	subi	r28, 0xDF	; 223
    2886:	d2 40       	sbci	r29, 0x02	; 2
    2888:	c9 51       	subi	r28, 0x19	; 25
    288a:	de 4f       	sbci	r29, 0xFE	; 254
    288c:	88 83       	st	Y, r24
    288e:	99 83       	std	Y+1, r25	; 0x01
    2890:	aa 83       	std	Y+2, r26	; 0x02
    2892:	bb 83       	std	Y+3, r27	; 0x03
    2894:	c7 5e       	subi	r28, 0xE7	; 231
    2896:	d1 40       	sbci	r29, 0x01	; 1

00002898 <.Loc.415>:
    2898:	8e 01       	movw	r16, r28
    289a:	07 54       	subi	r16, 0x47	; 71
    289c:	1f 4f       	sbci	r17, 0xFF	; 255
    289e:	c9 51       	subi	r28, 0x19	; 25
    28a0:	de 4f       	sbci	r29, 0xFE	; 254
    28a2:	68 81       	ld	r22, Y
    28a4:	79 81       	ldd	r23, Y+1	; 0x01
    28a6:	8a 81       	ldd	r24, Y+2	; 0x02
    28a8:	9b 81       	ldd	r25, Y+3	; 0x03
    28aa:	c7 5e       	subi	r28, 0xE7	; 231
    28ac:	d1 40       	sbci	r29, 0x01	; 1
    28ae:	0e 94 a9 27 	call	0x4f52	; 0x4f52 <__fixunssfsi>
    28b2:	cd 51       	subi	r28, 0x1D	; 29
    28b4:	dd 4f       	sbci	r29, 0xFD	; 253
    28b6:	68 83       	st	Y, r22
    28b8:	79 83       	std	Y+1, r23	; 0x01
    28ba:	8a 83       	std	Y+2, r24	; 0x02
    28bc:	9b 83       	std	Y+3, r25	; 0x03
    28be:	c3 5e       	subi	r28, 0xE3	; 227
    28c0:	d2 40       	sbci	r29, 0x02	; 2
    28c2:	cd 51       	subi	r28, 0x1D	; 29
    28c4:	dd 4f       	sbci	r29, 0xFD	; 253
    28c6:	e8 81       	ld	r30, Y
    28c8:	f9 81       	ldd	r31, Y+1	; 0x01
    28ca:	c3 5e       	subi	r28, 0xE3	; 227
    28cc:	d2 40       	sbci	r29, 0x02	; 2
    28ce:	d8 01       	movw	r26, r16
    28d0:	11 96       	adiw	r26, 0x01	; 1
    28d2:	fc 93       	st	X, r31
    28d4:	ee 93       	st	-X, r30

000028d6 <.Loc.416>:
		while(__ticks)
    28d6:	26 c0       	rjmp	.+76     	; 0x2924 <.L128>

000028d8 <.L129>:
    28d8:	ce 01       	movw	r24, r28
    28da:	85 54       	subi	r24, 0x45	; 69
    28dc:	9f 4f       	sbci	r25, 0xFF	; 255
    28de:	20 e9       	ldi	r18, 0x90	; 144
    28e0:	31 e0       	ldi	r19, 0x01	; 1
    28e2:	dc 01       	movw	r26, r24
    28e4:	2d 93       	st	X+, r18
    28e6:	3c 93       	st	X, r19

000028e8 <.LBB244>:
    28e8:	ce 01       	movw	r24, r28
    28ea:	85 54       	subi	r24, 0x45	; 69
    28ec:	9f 4f       	sbci	r25, 0xFF	; 255
    28ee:	fc 01       	movw	r30, r24
    28f0:	80 81       	ld	r24, Z
    28f2:	91 81       	ldd	r25, Z+1	; 0x01

000028f4 <.L1^B39>:
    28f4:	01 97       	sbiw	r24, 0x01	; 1
    28f6:	f1 f7       	brne	.-4      	; 0x28f4 <.L1^B39>
    28f8:	9e 01       	movw	r18, r28
    28fa:	25 54       	subi	r18, 0x45	; 69
    28fc:	3f 4f       	sbci	r19, 0xFF	; 255
    28fe:	d9 01       	movw	r26, r18
    2900:	8d 93       	st	X+, r24
    2902:	9c 93       	st	X, r25

00002904 <.Loc.418>:
	...

00002906 <.LBE244>:
			__ticks --;
    2906:	ce 01       	movw	r24, r28
    2908:	87 54       	subi	r24, 0x47	; 71
    290a:	9f 4f       	sbci	r25, 0xFF	; 255
    290c:	9e 01       	movw	r18, r28
    290e:	27 54       	subi	r18, 0x47	; 71
    2910:	3f 4f       	sbci	r19, 0xFF	; 255
    2912:	f9 01       	movw	r30, r18
    2914:	20 81       	ld	r18, Z
    2916:	31 81       	ldd	r19, Z+1	; 0x01
    2918:	21 50       	subi	r18, 0x01	; 1
    291a:	31 09       	sbc	r19, r1
    291c:	dc 01       	movw	r26, r24
    291e:	11 96       	adiw	r26, 0x01	; 1
    2920:	3c 93       	st	X, r19
    2922:	2e 93       	st	-X, r18

00002924 <.L128>:
		while(__ticks)
    2924:	ce 01       	movw	r24, r28
    2926:	87 54       	subi	r24, 0x47	; 71
    2928:	9f 4f       	sbci	r25, 0xFF	; 255
    292a:	fc 01       	movw	r30, r24
    292c:	80 81       	ld	r24, Z
    292e:	91 81       	ldd	r25, Z+1	; 0x01
    2930:	00 97       	sbiw	r24, 0x00	; 0
    2932:	91 f6       	brne	.-92     	; 0x28d8 <.L129>

00002934 <.Loc.421>:
		return;
    2934:	39 c0       	rjmp	.+114    	; 0x29a8 <.L130>

00002936 <.L356>:
		__ticks = (uint16_t)__tmp;
    2936:	8e 01       	movw	r16, r28
    2938:	07 54       	subi	r16, 0x47	; 71
    293a:	1f 4f       	sbci	r17, 0xFF	; 255
    293c:	ce 01       	movw	r24, r28
    293e:	8b 54       	subi	r24, 0x4B	; 75
    2940:	9f 4f       	sbci	r25, 0xFF	; 255
    2942:	dc 01       	movw	r26, r24
    2944:	6d 91       	ld	r22, X+
    2946:	7d 91       	ld	r23, X+
    2948:	8d 91       	ld	r24, X+
    294a:	9c 91       	ld	r25, X
    294c:	0e 94 a9 27 	call	0x4f52	; 0x4f52 <__fixunssfsi>
    2950:	c9 51       	subi	r28, 0x19	; 25
    2952:	dd 4f       	sbci	r29, 0xFD	; 253
    2954:	68 83       	st	Y, r22
    2956:	79 83       	std	Y+1, r23	; 0x01
    2958:	8a 83       	std	Y+2, r24	; 0x02
    295a:	9b 83       	std	Y+3, r25	; 0x03
    295c:	c7 5e       	subi	r28, 0xE7	; 231
    295e:	d2 40       	sbci	r29, 0x02	; 2
    2960:	c9 51       	subi	r28, 0x19	; 25
    2962:	dd 4f       	sbci	r29, 0xFD	; 253
    2964:	88 81       	ld	r24, Y
    2966:	99 81       	ldd	r25, Y+1	; 0x01
    2968:	c7 5e       	subi	r28, 0xE7	; 231
    296a:	d2 40       	sbci	r29, 0x02	; 2
    296c:	f8 01       	movw	r30, r16
    296e:	91 83       	std	Z+1, r25	; 0x01
    2970:	80 83       	st	Z, r24

00002972 <.L125>:
    2972:	ce 01       	movw	r24, r28
    2974:	83 54       	subi	r24, 0x43	; 67
    2976:	9f 4f       	sbci	r25, 0xFF	; 255
    2978:	9e 01       	movw	r18, r28
    297a:	27 54       	subi	r18, 0x47	; 71
    297c:	3f 4f       	sbci	r19, 0xFF	; 255
    297e:	d9 01       	movw	r26, r18
    2980:	2d 91       	ld	r18, X+
    2982:	3c 91       	ld	r19, X
    2984:	fc 01       	movw	r30, r24
    2986:	31 83       	std	Z+1, r19	; 0x01
    2988:	20 83       	st	Z, r18

0000298a <.LBB246>:
    298a:	ce 01       	movw	r24, r28
    298c:	83 54       	subi	r24, 0x43	; 67
    298e:	9f 4f       	sbci	r25, 0xFF	; 255
    2990:	dc 01       	movw	r26, r24
    2992:	8d 91       	ld	r24, X+
    2994:	9c 91       	ld	r25, X

00002996 <.L1^B40>:
    2996:	01 97       	sbiw	r24, 0x01	; 1
    2998:	f1 f7       	brne	.-4      	; 0x2996 <.L1^B40>
    299a:	9e 01       	movw	r18, r28
    299c:	23 54       	subi	r18, 0x43	; 67
    299e:	3f 4f       	sbci	r19, 0xFF	; 255
    29a0:	f9 01       	movw	r30, r18
    29a2:	91 83       	std	Z+1, r25	; 0x01
    29a4:	80 83       	st	Z, r24

000029a6 <.Loc.424>:
	...

000029a8 <.L130>:
            {
                DEBOUNCE;
                if ((PINF & (1<<PF1)) == 0)
    29a8:	8f e2       	ldi	r24, 0x2F	; 47
    29aa:	90 e0       	ldi	r25, 0x00	; 0
    29ac:	dc 01       	movw	r26, r24
    29ae:	8c 91       	ld	r24, X

000029b0 <.Loc.426>:
    29b0:	88 2f       	mov	r24, r24
    29b2:	90 e0       	ldi	r25, 0x00	; 0
    29b4:	82 70       	andi	r24, 0x02	; 2
    29b6:	99 27       	eor	r25, r25

000029b8 <.Loc.427>:
    29b8:	00 97       	sbiw	r24, 0x00	; 0
    29ba:	09 f0       	breq	.+2      	; 0x29be <L0^A+0x2>

000029bc <L0^A>:
    29bc:	16 c1       	rjmp	.+556    	; 0x2bea <.L122>
    29be:	9e 01       	movw	r18, r28
    29c0:	21 54       	subi	r18, 0x41	; 65
    29c2:	3f 4f       	sbci	r19, 0xFF	; 255
    29c4:	80 e0       	ldi	r24, 0x00	; 0
    29c6:	90 e0       	ldi	r25, 0x00	; 0
    29c8:	a0 ef       	ldi	r26, 0xF0	; 240
    29ca:	b1 e4       	ldi	r27, 0x41	; 65
    29cc:	f9 01       	movw	r30, r18
    29ce:	80 83       	st	Z, r24
    29d0:	91 83       	std	Z+1, r25	; 0x01
    29d2:	a2 83       	std	Z+2, r26	; 0x02
    29d4:	b3 83       	std	Z+3, r27	; 0x03

000029d6 <.LBB248>:
	__tmp = ((F_CPU) / 4e3) * __ms;
    29d6:	8e 01       	movw	r16, r28
    29d8:	0d 53       	subi	r16, 0x3D	; 61
    29da:	1f 4f       	sbci	r17, 0xFF	; 255
    29dc:	ce 01       	movw	r24, r28
    29de:	81 54       	subi	r24, 0x41	; 65
    29e0:	9f 4f       	sbci	r25, 0xFF	; 255
    29e2:	20 e0       	ldi	r18, 0x00	; 0
    29e4:	30 e0       	ldi	r19, 0x00	; 0
    29e6:	4a e7       	ldi	r20, 0x7A	; 122
    29e8:	55 e4       	ldi	r21, 0x45	; 69
    29ea:	dc 01       	movw	r26, r24
    29ec:	6d 91       	ld	r22, X+
    29ee:	7d 91       	ld	r23, X+
    29f0:	8d 91       	ld	r24, X+
    29f2:	9c 91       	ld	r25, X
    29f4:	0e 94 2a 28 	call	0x5054	; 0x5054 <__mulsf3>
    29f8:	c5 51       	subi	r28, 0x15	; 21
    29fa:	dd 4f       	sbci	r29, 0xFD	; 253
    29fc:	68 83       	st	Y, r22
    29fe:	79 83       	std	Y+1, r23	; 0x01
    2a00:	8a 83       	std	Y+2, r24	; 0x02
    2a02:	9b 83       	std	Y+3, r25	; 0x03
    2a04:	cb 5e       	subi	r28, 0xEB	; 235
    2a06:	d2 40       	sbci	r29, 0x02	; 2
    2a08:	c5 51       	subi	r28, 0x15	; 21
    2a0a:	dd 4f       	sbci	r29, 0xFD	; 253
    2a0c:	88 81       	ld	r24, Y
    2a0e:	99 81       	ldd	r25, Y+1	; 0x01
    2a10:	aa 81       	ldd	r26, Y+2	; 0x02
    2a12:	bb 81       	ldd	r27, Y+3	; 0x03
    2a14:	cb 5e       	subi	r28, 0xEB	; 235
    2a16:	d2 40       	sbci	r29, 0x02	; 2
    2a18:	f8 01       	movw	r30, r16
    2a1a:	80 83       	st	Z, r24
    2a1c:	91 83       	std	Z+1, r25	; 0x01
    2a1e:	a2 83       	std	Z+2, r26	; 0x02
    2a20:	b3 83       	std	Z+3, r27	; 0x03

00002a22 <.Loc.429>:
	if (__tmp < 1.0)
    2a22:	ce 01       	movw	r24, r28
    2a24:	8d 53       	subi	r24, 0x3D	; 61
    2a26:	9f 4f       	sbci	r25, 0xFF	; 255
    2a28:	20 e0       	ldi	r18, 0x00	; 0
    2a2a:	30 e0       	ldi	r19, 0x00	; 0
    2a2c:	40 e8       	ldi	r20, 0x80	; 128
    2a2e:	5f e3       	ldi	r21, 0x3F	; 63
    2a30:	dc 01       	movw	r26, r24
    2a32:	6d 91       	ld	r22, X+
    2a34:	7d 91       	ld	r23, X+
    2a36:	8d 91       	ld	r24, X+
    2a38:	9c 91       	ld	r25, X
    2a3a:	0e 94 a4 27 	call	0x4f48	; 0x4f48 <__cmpsf2>
    2a3e:	88 23       	and	r24, r24
    2a40:	4c f4       	brge	.+18     	; 0x2a54 <.L357>

00002a42 <.Loc.430>:
		__ticks = 1;
    2a42:	ce 01       	movw	r24, r28
    2a44:	89 53       	subi	r24, 0x39	; 57
    2a46:	9f 4f       	sbci	r25, 0xFF	; 255
    2a48:	21 e0       	ldi	r18, 0x01	; 1
    2a4a:	30 e0       	ldi	r19, 0x00	; 0
    2a4c:	fc 01       	movw	r30, r24
    2a4e:	31 83       	std	Z+1, r19	; 0x01
    2a50:	20 83       	st	Z, r18
    2a52:	a5 c0       	rjmp	.+330    	; 0x2b9e <.L133>

00002a54 <.L357>:
	else if (__tmp > 65535)
    2a54:	ce 01       	movw	r24, r28
    2a56:	8d 53       	subi	r24, 0x3D	; 61
    2a58:	9f 4f       	sbci	r25, 0xFF	; 255
    2a5a:	20 e0       	ldi	r18, 0x00	; 0
    2a5c:	3f ef       	ldi	r19, 0xFF	; 255
    2a5e:	4f e7       	ldi	r20, 0x7F	; 127
    2a60:	57 e4       	ldi	r21, 0x47	; 71
    2a62:	dc 01       	movw	r26, r24
    2a64:	6d 91       	ld	r22, X+
    2a66:	7d 91       	ld	r23, X+
    2a68:	8d 91       	ld	r24, X+
    2a6a:	9c 91       	ld	r25, X
    2a6c:	0e 94 25 28 	call	0x504a	; 0x504a <__gesf2>
    2a70:	88 23       	and	r24, r24
    2a72:	09 f0       	breq	.+2      	; 0x2a76 <L0^A>

00002a74 <L0^A>:
    2a74:	0c f4       	brge	.+2      	; 0x2a78 <.Loc.432>

00002a76 <L0^A>:
    2a76:	75 c0       	rjmp	.+234    	; 0x2b62 <.L358>

00002a78 <.Loc.432>:
		__ticks = (uint16_t) (__ms * 10.0);
    2a78:	ce 01       	movw	r24, r28
    2a7a:	81 54       	subi	r24, 0x41	; 65
    2a7c:	9f 4f       	sbci	r25, 0xFF	; 255
    2a7e:	20 e0       	ldi	r18, 0x00	; 0
    2a80:	30 e0       	ldi	r19, 0x00	; 0
    2a82:	40 e2       	ldi	r20, 0x20	; 32
    2a84:	51 e4       	ldi	r21, 0x41	; 65
    2a86:	fc 01       	movw	r30, r24
    2a88:	60 81       	ld	r22, Z
    2a8a:	71 81       	ldd	r23, Z+1	; 0x01
    2a8c:	82 81       	ldd	r24, Z+2	; 0x02
    2a8e:	93 81       	ldd	r25, Z+3	; 0x03
    2a90:	0e 94 2a 28 	call	0x5054	; 0x5054 <__mulsf3>
    2a94:	c1 51       	subi	r28, 0x11	; 17
    2a96:	dd 4f       	sbci	r29, 0xFD	; 253
    2a98:	68 83       	st	Y, r22
    2a9a:	79 83       	std	Y+1, r23	; 0x01
    2a9c:	8a 83       	std	Y+2, r24	; 0x02
    2a9e:	9b 83       	std	Y+3, r25	; 0x03
    2aa0:	cf 5e       	subi	r28, 0xEF	; 239
    2aa2:	d2 40       	sbci	r29, 0x02	; 2
    2aa4:	c1 51       	subi	r28, 0x11	; 17
    2aa6:	dd 4f       	sbci	r29, 0xFD	; 253
    2aa8:	88 81       	ld	r24, Y
    2aaa:	99 81       	ldd	r25, Y+1	; 0x01
    2aac:	aa 81       	ldd	r26, Y+2	; 0x02
    2aae:	bb 81       	ldd	r27, Y+3	; 0x03
    2ab0:	cf 5e       	subi	r28, 0xEF	; 239
    2ab2:	d2 40       	sbci	r29, 0x02	; 2
    2ab4:	c5 51       	subi	r28, 0x15	; 21
    2ab6:	de 4f       	sbci	r29, 0xFE	; 254
    2ab8:	88 83       	st	Y, r24
    2aba:	99 83       	std	Y+1, r25	; 0x01
    2abc:	aa 83       	std	Y+2, r26	; 0x02
    2abe:	bb 83       	std	Y+3, r27	; 0x03
    2ac0:	cb 5e       	subi	r28, 0xEB	; 235
    2ac2:	d1 40       	sbci	r29, 0x01	; 1

00002ac4 <.Loc.433>:
    2ac4:	8e 01       	movw	r16, r28
    2ac6:	09 53       	subi	r16, 0x39	; 57
    2ac8:	1f 4f       	sbci	r17, 0xFF	; 255
    2aca:	c5 51       	subi	r28, 0x15	; 21
    2acc:	de 4f       	sbci	r29, 0xFE	; 254
    2ace:	68 81       	ld	r22, Y
    2ad0:	79 81       	ldd	r23, Y+1	; 0x01
    2ad2:	8a 81       	ldd	r24, Y+2	; 0x02
    2ad4:	9b 81       	ldd	r25, Y+3	; 0x03
    2ad6:	cb 5e       	subi	r28, 0xEB	; 235
    2ad8:	d1 40       	sbci	r29, 0x01	; 1
    2ada:	0e 94 a9 27 	call	0x4f52	; 0x4f52 <__fixunssfsi>
    2ade:	cd 50       	subi	r28, 0x0D	; 13
    2ae0:	dd 4f       	sbci	r29, 0xFD	; 253
    2ae2:	68 83       	st	Y, r22
    2ae4:	79 83       	std	Y+1, r23	; 0x01
    2ae6:	8a 83       	std	Y+2, r24	; 0x02
    2ae8:	9b 83       	std	Y+3, r25	; 0x03
    2aea:	c3 5f       	subi	r28, 0xF3	; 243
    2aec:	d2 40       	sbci	r29, 0x02	; 2
    2aee:	cd 50       	subi	r28, 0x0D	; 13
    2af0:	dd 4f       	sbci	r29, 0xFD	; 253
    2af2:	e8 81       	ld	r30, Y
    2af4:	f9 81       	ldd	r31, Y+1	; 0x01
    2af6:	c3 5f       	subi	r28, 0xF3	; 243
    2af8:	d2 40       	sbci	r29, 0x02	; 2
    2afa:	d8 01       	movw	r26, r16
    2afc:	11 96       	adiw	r26, 0x01	; 1
    2afe:	fc 93       	st	X, r31
    2b00:	ee 93       	st	-X, r30

00002b02 <.Loc.434>:
		while(__ticks)
    2b02:	26 c0       	rjmp	.+76     	; 0x2b50 <.L136>

00002b04 <.L137>:
    2b04:	ce 01       	movw	r24, r28
    2b06:	87 53       	subi	r24, 0x37	; 55
    2b08:	9f 4f       	sbci	r25, 0xFF	; 255
    2b0a:	20 e9       	ldi	r18, 0x90	; 144
    2b0c:	31 e0       	ldi	r19, 0x01	; 1
    2b0e:	dc 01       	movw	r26, r24
    2b10:	2d 93       	st	X+, r18
    2b12:	3c 93       	st	X, r19

00002b14 <.LBB250>:
    2b14:	ce 01       	movw	r24, r28
    2b16:	87 53       	subi	r24, 0x37	; 55
    2b18:	9f 4f       	sbci	r25, 0xFF	; 255
    2b1a:	fc 01       	movw	r30, r24
    2b1c:	80 81       	ld	r24, Z
    2b1e:	91 81       	ldd	r25, Z+1	; 0x01

00002b20 <.L1^B41>:
    2b20:	01 97       	sbiw	r24, 0x01	; 1
    2b22:	f1 f7       	brne	.-4      	; 0x2b20 <.L1^B41>
    2b24:	9e 01       	movw	r18, r28
    2b26:	27 53       	subi	r18, 0x37	; 55
    2b28:	3f 4f       	sbci	r19, 0xFF	; 255
    2b2a:	d9 01       	movw	r26, r18
    2b2c:	8d 93       	st	X+, r24
    2b2e:	9c 93       	st	X, r25

00002b30 <.Loc.436>:
	...

00002b32 <.LBE250>:
			__ticks --;
    2b32:	ce 01       	movw	r24, r28
    2b34:	89 53       	subi	r24, 0x39	; 57
    2b36:	9f 4f       	sbci	r25, 0xFF	; 255
    2b38:	9e 01       	movw	r18, r28
    2b3a:	29 53       	subi	r18, 0x39	; 57
    2b3c:	3f 4f       	sbci	r19, 0xFF	; 255
    2b3e:	f9 01       	movw	r30, r18
    2b40:	20 81       	ld	r18, Z
    2b42:	31 81       	ldd	r19, Z+1	; 0x01
    2b44:	21 50       	subi	r18, 0x01	; 1
    2b46:	31 09       	sbc	r19, r1
    2b48:	dc 01       	movw	r26, r24
    2b4a:	11 96       	adiw	r26, 0x01	; 1
    2b4c:	3c 93       	st	X, r19
    2b4e:	2e 93       	st	-X, r18

00002b50 <.L136>:
		while(__ticks)
    2b50:	ce 01       	movw	r24, r28
    2b52:	89 53       	subi	r24, 0x39	; 57
    2b54:	9f 4f       	sbci	r25, 0xFF	; 255
    2b56:	fc 01       	movw	r30, r24
    2b58:	80 81       	ld	r24, Z
    2b5a:	91 81       	ldd	r25, Z+1	; 0x01
    2b5c:	00 97       	sbiw	r24, 0x00	; 0
    2b5e:	91 f6       	brne	.-92     	; 0x2b04 <.L137>

00002b60 <.Loc.439>:
		return;
    2b60:	39 c0       	rjmp	.+114    	; 0x2bd4 <.L138>

00002b62 <.L358>:
		__ticks = (uint16_t)__tmp;
    2b62:	8e 01       	movw	r16, r28
    2b64:	09 53       	subi	r16, 0x39	; 57
    2b66:	1f 4f       	sbci	r17, 0xFF	; 255
    2b68:	ce 01       	movw	r24, r28
    2b6a:	8d 53       	subi	r24, 0x3D	; 61
    2b6c:	9f 4f       	sbci	r25, 0xFF	; 255
    2b6e:	dc 01       	movw	r26, r24
    2b70:	6d 91       	ld	r22, X+
    2b72:	7d 91       	ld	r23, X+
    2b74:	8d 91       	ld	r24, X+
    2b76:	9c 91       	ld	r25, X
    2b78:	0e 94 a9 27 	call	0x4f52	; 0x4f52 <__fixunssfsi>
    2b7c:	c9 50       	subi	r28, 0x09	; 9
    2b7e:	dd 4f       	sbci	r29, 0xFD	; 253
    2b80:	68 83       	st	Y, r22
    2b82:	79 83       	std	Y+1, r23	; 0x01
    2b84:	8a 83       	std	Y+2, r24	; 0x02
    2b86:	9b 83       	std	Y+3, r25	; 0x03
    2b88:	c7 5f       	subi	r28, 0xF7	; 247
    2b8a:	d2 40       	sbci	r29, 0x02	; 2
    2b8c:	c9 50       	subi	r28, 0x09	; 9
    2b8e:	dd 4f       	sbci	r29, 0xFD	; 253
    2b90:	88 81       	ld	r24, Y
    2b92:	99 81       	ldd	r25, Y+1	; 0x01
    2b94:	c7 5f       	subi	r28, 0xF7	; 247
    2b96:	d2 40       	sbci	r29, 0x02	; 2
    2b98:	f8 01       	movw	r30, r16
    2b9a:	91 83       	std	Z+1, r25	; 0x01
    2b9c:	80 83       	st	Z, r24

00002b9e <.L133>:
    2b9e:	ce 01       	movw	r24, r28
    2ba0:	85 53       	subi	r24, 0x35	; 53
    2ba2:	9f 4f       	sbci	r25, 0xFF	; 255
    2ba4:	9e 01       	movw	r18, r28
    2ba6:	29 53       	subi	r18, 0x39	; 57
    2ba8:	3f 4f       	sbci	r19, 0xFF	; 255
    2baa:	d9 01       	movw	r26, r18
    2bac:	2d 91       	ld	r18, X+
    2bae:	3c 91       	ld	r19, X
    2bb0:	fc 01       	movw	r30, r24
    2bb2:	31 83       	std	Z+1, r19	; 0x01
    2bb4:	20 83       	st	Z, r18

00002bb6 <.LBB252>:
    2bb6:	ce 01       	movw	r24, r28
    2bb8:	85 53       	subi	r24, 0x35	; 53
    2bba:	9f 4f       	sbci	r25, 0xFF	; 255
    2bbc:	dc 01       	movw	r26, r24
    2bbe:	8d 91       	ld	r24, X+
    2bc0:	9c 91       	ld	r25, X

00002bc2 <.L1^B42>:
    2bc2:	01 97       	sbiw	r24, 0x01	; 1
    2bc4:	f1 f7       	brne	.-4      	; 0x2bc2 <.L1^B42>
    2bc6:	9e 01       	movw	r18, r28
    2bc8:	25 53       	subi	r18, 0x35	; 53
    2bca:	3f 4f       	sbci	r19, 0xFF	; 255
    2bcc:	f9 01       	movw	r30, r18
    2bce:	91 83       	std	Z+1, r25	; 0x01
    2bd0:	80 83       	st	Z, r24

00002bd2 <.Loc.442>:
	...

00002bd4 <.L138>:
                {
                    DEBOUNCE;
                    h_bridge_set_percentage(30);    // start h brug 1 //
    2bd4:	8e e1       	ldi	r24, 0x1E	; 30
    2bd6:	0e 94 9b 01 	call	0x336	; 0x336 <h_bridge_set_percentage>

00002bda <.Loc.444>:
                    h_bridge_set_percentage2(30);   // start h brug 2 //
    2bda:	8e e1       	ldi	r24, 0x1E	; 30
    2bdc:	90 e0       	ldi	r25, 0x00	; 0
    2bde:	0e 94 f3 02 	call	0x5e6	; 0x5e6 <h_bridge_set_percentage2>

00002be2 <.Loc.445>:
                    stand = 3;                      // door naar case 3 //
    2be2:	83 e0       	ldi	r24, 0x03	; 3
    2be4:	90 e0       	ldi	r25, 0x00	; 0
    2be6:	9c 8b       	std	Y+20, r25	; 0x14
    2be8:	8b 8b       	std	Y+19, r24	; 0x13

00002bea <.L122>:
                }
            }
            if ((PINF & (1<<PF2)) != 0)             // reset knop //
    2bea:	8f e2       	ldi	r24, 0x2F	; 47
    2bec:	90 e0       	ldi	r25, 0x00	; 0
    2bee:	dc 01       	movw	r26, r24
    2bf0:	8c 91       	ld	r24, X

00002bf2 <.Loc.447>:
    2bf2:	88 2f       	mov	r24, r24
    2bf4:	90 e0       	ldi	r25, 0x00	; 0
    2bf6:	84 70       	andi	r24, 0x04	; 4
    2bf8:	99 27       	eor	r25, r25

00002bfa <.Loc.448>:
    2bfa:	00 97       	sbiw	r24, 0x00	; 0
    2bfc:	11 f4       	brne	.+4      	; 0x2c02 <L0^A+0x4>

00002bfe <L0^A>:
    2bfe:	0c 94 12 27 	jmp	0x4e24	; 0x4e24 <.L390>
    2c02:	9e 01       	movw	r18, r28
    2c04:	23 53       	subi	r18, 0x33	; 51
    2c06:	3f 4f       	sbci	r19, 0xFF	; 255
    2c08:	80 e0       	ldi	r24, 0x00	; 0
    2c0a:	90 e0       	ldi	r25, 0x00	; 0
    2c0c:	a0 ef       	ldi	r26, 0xF0	; 240
    2c0e:	b1 e4       	ldi	r27, 0x41	; 65
    2c10:	f9 01       	movw	r30, r18
    2c12:	80 83       	st	Z, r24
    2c14:	91 83       	std	Z+1, r25	; 0x01
    2c16:	a2 83       	std	Z+2, r26	; 0x02
    2c18:	b3 83       	std	Z+3, r27	; 0x03

00002c1a <.LBB254>:
	__tmp = ((F_CPU) / 4e3) * __ms;
    2c1a:	8e 01       	movw	r16, r28
    2c1c:	0f 52       	subi	r16, 0x2F	; 47
    2c1e:	1f 4f       	sbci	r17, 0xFF	; 255
    2c20:	ce 01       	movw	r24, r28
    2c22:	83 53       	subi	r24, 0x33	; 51
    2c24:	9f 4f       	sbci	r25, 0xFF	; 255
    2c26:	20 e0       	ldi	r18, 0x00	; 0
    2c28:	30 e0       	ldi	r19, 0x00	; 0
    2c2a:	4a e7       	ldi	r20, 0x7A	; 122
    2c2c:	55 e4       	ldi	r21, 0x45	; 69
    2c2e:	dc 01       	movw	r26, r24
    2c30:	6d 91       	ld	r22, X+
    2c32:	7d 91       	ld	r23, X+
    2c34:	8d 91       	ld	r24, X+
    2c36:	9c 91       	ld	r25, X
    2c38:	0e 94 2a 28 	call	0x5054	; 0x5054 <__mulsf3>
    2c3c:	c5 50       	subi	r28, 0x05	; 5
    2c3e:	dd 4f       	sbci	r29, 0xFD	; 253
    2c40:	68 83       	st	Y, r22
    2c42:	79 83       	std	Y+1, r23	; 0x01
    2c44:	8a 83       	std	Y+2, r24	; 0x02
    2c46:	9b 83       	std	Y+3, r25	; 0x03
    2c48:	cb 5f       	subi	r28, 0xFB	; 251
    2c4a:	d2 40       	sbci	r29, 0x02	; 2
    2c4c:	c5 50       	subi	r28, 0x05	; 5
    2c4e:	dd 4f       	sbci	r29, 0xFD	; 253
    2c50:	88 81       	ld	r24, Y
    2c52:	99 81       	ldd	r25, Y+1	; 0x01
    2c54:	aa 81       	ldd	r26, Y+2	; 0x02
    2c56:	bb 81       	ldd	r27, Y+3	; 0x03
    2c58:	cb 5f       	subi	r28, 0xFB	; 251
    2c5a:	d2 40       	sbci	r29, 0x02	; 2
    2c5c:	f8 01       	movw	r30, r16
    2c5e:	80 83       	st	Z, r24
    2c60:	91 83       	std	Z+1, r25	; 0x01
    2c62:	a2 83       	std	Z+2, r26	; 0x02
    2c64:	b3 83       	std	Z+3, r27	; 0x03

00002c66 <.Loc.450>:
	if (__tmp < 1.0)
    2c66:	ce 01       	movw	r24, r28
    2c68:	8f 52       	subi	r24, 0x2F	; 47
    2c6a:	9f 4f       	sbci	r25, 0xFF	; 255
    2c6c:	20 e0       	ldi	r18, 0x00	; 0
    2c6e:	30 e0       	ldi	r19, 0x00	; 0
    2c70:	40 e8       	ldi	r20, 0x80	; 128
    2c72:	5f e3       	ldi	r21, 0x3F	; 63
    2c74:	dc 01       	movw	r26, r24
    2c76:	6d 91       	ld	r22, X+
    2c78:	7d 91       	ld	r23, X+
    2c7a:	8d 91       	ld	r24, X+
    2c7c:	9c 91       	ld	r25, X
    2c7e:	0e 94 a4 27 	call	0x4f48	; 0x4f48 <__cmpsf2>
    2c82:	88 23       	and	r24, r24
    2c84:	4c f4       	brge	.+18     	; 0x2c98 <.L359>

00002c86 <.Loc.451>:
		__ticks = 1;
    2c86:	ce 01       	movw	r24, r28
    2c88:	8b 52       	subi	r24, 0x2B	; 43
    2c8a:	9f 4f       	sbci	r25, 0xFF	; 255
    2c8c:	21 e0       	ldi	r18, 0x01	; 1
    2c8e:	30 e0       	ldi	r19, 0x00	; 0
    2c90:	fc 01       	movw	r30, r24
    2c92:	31 83       	std	Z+1, r19	; 0x01
    2c94:	20 83       	st	Z, r18
    2c96:	a5 c0       	rjmp	.+330    	; 0x2de2 <.L142>

00002c98 <.L359>:
	else if (__tmp > 65535)
    2c98:	ce 01       	movw	r24, r28
    2c9a:	8f 52       	subi	r24, 0x2F	; 47
    2c9c:	9f 4f       	sbci	r25, 0xFF	; 255
    2c9e:	20 e0       	ldi	r18, 0x00	; 0
    2ca0:	3f ef       	ldi	r19, 0xFF	; 255
    2ca2:	4f e7       	ldi	r20, 0x7F	; 127
    2ca4:	57 e4       	ldi	r21, 0x47	; 71
    2ca6:	dc 01       	movw	r26, r24
    2ca8:	6d 91       	ld	r22, X+
    2caa:	7d 91       	ld	r23, X+
    2cac:	8d 91       	ld	r24, X+
    2cae:	9c 91       	ld	r25, X
    2cb0:	0e 94 25 28 	call	0x504a	; 0x504a <__gesf2>
    2cb4:	88 23       	and	r24, r24
    2cb6:	09 f0       	breq	.+2      	; 0x2cba <L0^A>

00002cb8 <L0^A>:
    2cb8:	0c f4       	brge	.+2      	; 0x2cbc <.Loc.453>

00002cba <L0^A>:
    2cba:	75 c0       	rjmp	.+234    	; 0x2da6 <.L360>

00002cbc <.Loc.453>:
		__ticks = (uint16_t) (__ms * 10.0);
    2cbc:	ce 01       	movw	r24, r28
    2cbe:	83 53       	subi	r24, 0x33	; 51
    2cc0:	9f 4f       	sbci	r25, 0xFF	; 255
    2cc2:	20 e0       	ldi	r18, 0x00	; 0
    2cc4:	30 e0       	ldi	r19, 0x00	; 0
    2cc6:	40 e2       	ldi	r20, 0x20	; 32
    2cc8:	51 e4       	ldi	r21, 0x41	; 65
    2cca:	fc 01       	movw	r30, r24
    2ccc:	60 81       	ld	r22, Z
    2cce:	71 81       	ldd	r23, Z+1	; 0x01
    2cd0:	82 81       	ldd	r24, Z+2	; 0x02
    2cd2:	93 81       	ldd	r25, Z+3	; 0x03
    2cd4:	0e 94 2a 28 	call	0x5054	; 0x5054 <__mulsf3>
    2cd8:	c1 50       	subi	r28, 0x01	; 1
    2cda:	dd 4f       	sbci	r29, 0xFD	; 253
    2cdc:	68 83       	st	Y, r22
    2cde:	79 83       	std	Y+1, r23	; 0x01
    2ce0:	8a 83       	std	Y+2, r24	; 0x02
    2ce2:	9b 83       	std	Y+3, r25	; 0x03
    2ce4:	cf 5f       	subi	r28, 0xFF	; 255
    2ce6:	d2 40       	sbci	r29, 0x02	; 2
    2ce8:	c1 50       	subi	r28, 0x01	; 1
    2cea:	dd 4f       	sbci	r29, 0xFD	; 253
    2cec:	88 81       	ld	r24, Y
    2cee:	99 81       	ldd	r25, Y+1	; 0x01
    2cf0:	aa 81       	ldd	r26, Y+2	; 0x02
    2cf2:	bb 81       	ldd	r27, Y+3	; 0x03
    2cf4:	cf 5f       	subi	r28, 0xFF	; 255
    2cf6:	d2 40       	sbci	r29, 0x02	; 2
    2cf8:	c1 51       	subi	r28, 0x11	; 17
    2cfa:	de 4f       	sbci	r29, 0xFE	; 254
    2cfc:	88 83       	st	Y, r24
    2cfe:	99 83       	std	Y+1, r25	; 0x01
    2d00:	aa 83       	std	Y+2, r26	; 0x02
    2d02:	bb 83       	std	Y+3, r27	; 0x03
    2d04:	cf 5e       	subi	r28, 0xEF	; 239
    2d06:	d1 40       	sbci	r29, 0x01	; 1

00002d08 <.Loc.454>:
    2d08:	8e 01       	movw	r16, r28
    2d0a:	0b 52       	subi	r16, 0x2B	; 43
    2d0c:	1f 4f       	sbci	r17, 0xFF	; 255
    2d0e:	c1 51       	subi	r28, 0x11	; 17
    2d10:	de 4f       	sbci	r29, 0xFE	; 254
    2d12:	68 81       	ld	r22, Y
    2d14:	79 81       	ldd	r23, Y+1	; 0x01
    2d16:	8a 81       	ldd	r24, Y+2	; 0x02
    2d18:	9b 81       	ldd	r25, Y+3	; 0x03
    2d1a:	cf 5e       	subi	r28, 0xEF	; 239
    2d1c:	d1 40       	sbci	r29, 0x01	; 1
    2d1e:	0e 94 a9 27 	call	0x4f52	; 0x4f52 <__fixunssfsi>
    2d22:	cd 5f       	subi	r28, 0xFD	; 253
    2d24:	dc 4f       	sbci	r29, 0xFC	; 252
    2d26:	68 83       	st	Y, r22
    2d28:	79 83       	std	Y+1, r23	; 0x01
    2d2a:	8a 83       	std	Y+2, r24	; 0x02
    2d2c:	9b 83       	std	Y+3, r25	; 0x03
    2d2e:	c3 50       	subi	r28, 0x03	; 3
    2d30:	d3 40       	sbci	r29, 0x03	; 3
    2d32:	cd 5f       	subi	r28, 0xFD	; 253
    2d34:	dc 4f       	sbci	r29, 0xFC	; 252
    2d36:	e8 81       	ld	r30, Y
    2d38:	f9 81       	ldd	r31, Y+1	; 0x01
    2d3a:	c3 50       	subi	r28, 0x03	; 3
    2d3c:	d3 40       	sbci	r29, 0x03	; 3
    2d3e:	d8 01       	movw	r26, r16
    2d40:	11 96       	adiw	r26, 0x01	; 1
    2d42:	fc 93       	st	X, r31
    2d44:	ee 93       	st	-X, r30

00002d46 <.Loc.455>:
		while(__ticks)
    2d46:	26 c0       	rjmp	.+76     	; 0x2d94 <.L145>

00002d48 <.L146>:
    2d48:	ce 01       	movw	r24, r28
    2d4a:	89 52       	subi	r24, 0x29	; 41
    2d4c:	9f 4f       	sbci	r25, 0xFF	; 255
    2d4e:	20 e9       	ldi	r18, 0x90	; 144
    2d50:	31 e0       	ldi	r19, 0x01	; 1
    2d52:	dc 01       	movw	r26, r24
    2d54:	2d 93       	st	X+, r18
    2d56:	3c 93       	st	X, r19

00002d58 <.LBB256>:
    2d58:	ce 01       	movw	r24, r28
    2d5a:	89 52       	subi	r24, 0x29	; 41
    2d5c:	9f 4f       	sbci	r25, 0xFF	; 255
    2d5e:	fc 01       	movw	r30, r24
    2d60:	80 81       	ld	r24, Z
    2d62:	91 81       	ldd	r25, Z+1	; 0x01

00002d64 <.L1^B43>:
    2d64:	01 97       	sbiw	r24, 0x01	; 1
    2d66:	f1 f7       	brne	.-4      	; 0x2d64 <.L1^B43>
    2d68:	9e 01       	movw	r18, r28
    2d6a:	29 52       	subi	r18, 0x29	; 41
    2d6c:	3f 4f       	sbci	r19, 0xFF	; 255
    2d6e:	d9 01       	movw	r26, r18
    2d70:	8d 93       	st	X+, r24
    2d72:	9c 93       	st	X, r25

00002d74 <.Loc.457>:
	...

00002d76 <.LBE256>:
			__ticks --;
    2d76:	ce 01       	movw	r24, r28
    2d78:	8b 52       	subi	r24, 0x2B	; 43
    2d7a:	9f 4f       	sbci	r25, 0xFF	; 255
    2d7c:	9e 01       	movw	r18, r28
    2d7e:	2b 52       	subi	r18, 0x2B	; 43
    2d80:	3f 4f       	sbci	r19, 0xFF	; 255
    2d82:	f9 01       	movw	r30, r18
    2d84:	20 81       	ld	r18, Z
    2d86:	31 81       	ldd	r19, Z+1	; 0x01
    2d88:	21 50       	subi	r18, 0x01	; 1
    2d8a:	31 09       	sbc	r19, r1
    2d8c:	dc 01       	movw	r26, r24
    2d8e:	11 96       	adiw	r26, 0x01	; 1
    2d90:	3c 93       	st	X, r19
    2d92:	2e 93       	st	-X, r18

00002d94 <.L145>:
		while(__ticks)
    2d94:	ce 01       	movw	r24, r28
    2d96:	8b 52       	subi	r24, 0x2B	; 43
    2d98:	9f 4f       	sbci	r25, 0xFF	; 255
    2d9a:	fc 01       	movw	r30, r24
    2d9c:	80 81       	ld	r24, Z
    2d9e:	91 81       	ldd	r25, Z+1	; 0x01
    2da0:	00 97       	sbiw	r24, 0x00	; 0
    2da2:	91 f6       	brne	.-92     	; 0x2d48 <.L146>

00002da4 <.Loc.460>:
		return;
    2da4:	39 c0       	rjmp	.+114    	; 0x2e18 <.L147>

00002da6 <.L360>:
		__ticks = (uint16_t)__tmp;
    2da6:	8e 01       	movw	r16, r28
    2da8:	0b 52       	subi	r16, 0x2B	; 43
    2daa:	1f 4f       	sbci	r17, 0xFF	; 255
    2dac:	ce 01       	movw	r24, r28
    2dae:	8f 52       	subi	r24, 0x2F	; 47
    2db0:	9f 4f       	sbci	r25, 0xFF	; 255
    2db2:	dc 01       	movw	r26, r24
    2db4:	6d 91       	ld	r22, X+
    2db6:	7d 91       	ld	r23, X+
    2db8:	8d 91       	ld	r24, X+
    2dba:	9c 91       	ld	r25, X
    2dbc:	0e 94 a9 27 	call	0x4f52	; 0x4f52 <__fixunssfsi>
    2dc0:	c9 5f       	subi	r28, 0xF9	; 249
    2dc2:	dc 4f       	sbci	r29, 0xFC	; 252
    2dc4:	68 83       	st	Y, r22
    2dc6:	79 83       	std	Y+1, r23	; 0x01
    2dc8:	8a 83       	std	Y+2, r24	; 0x02
    2dca:	9b 83       	std	Y+3, r25	; 0x03
    2dcc:	c7 50       	subi	r28, 0x07	; 7
    2dce:	d3 40       	sbci	r29, 0x03	; 3
    2dd0:	c9 5f       	subi	r28, 0xF9	; 249
    2dd2:	dc 4f       	sbci	r29, 0xFC	; 252
    2dd4:	88 81       	ld	r24, Y
    2dd6:	99 81       	ldd	r25, Y+1	; 0x01
    2dd8:	c7 50       	subi	r28, 0x07	; 7
    2dda:	d3 40       	sbci	r29, 0x03	; 3
    2ddc:	f8 01       	movw	r30, r16
    2dde:	91 83       	std	Z+1, r25	; 0x01
    2de0:	80 83       	st	Z, r24

00002de2 <.L142>:
    2de2:	ce 01       	movw	r24, r28
    2de4:	87 52       	subi	r24, 0x27	; 39
    2de6:	9f 4f       	sbci	r25, 0xFF	; 255
    2de8:	9e 01       	movw	r18, r28
    2dea:	2b 52       	subi	r18, 0x2B	; 43
    2dec:	3f 4f       	sbci	r19, 0xFF	; 255
    2dee:	d9 01       	movw	r26, r18
    2df0:	2d 91       	ld	r18, X+
    2df2:	3c 91       	ld	r19, X
    2df4:	fc 01       	movw	r30, r24
    2df6:	31 83       	std	Z+1, r19	; 0x01
    2df8:	20 83       	st	Z, r18

00002dfa <.LBB258>:
    2dfa:	ce 01       	movw	r24, r28
    2dfc:	87 52       	subi	r24, 0x27	; 39
    2dfe:	9f 4f       	sbci	r25, 0xFF	; 255
    2e00:	dc 01       	movw	r26, r24
    2e02:	8d 91       	ld	r24, X+
    2e04:	9c 91       	ld	r25, X

00002e06 <.L1^B44>:
    2e06:	01 97       	sbiw	r24, 0x01	; 1
    2e08:	f1 f7       	brne	.-4      	; 0x2e06 <.L1^B44>
    2e0a:	9e 01       	movw	r18, r28
    2e0c:	27 52       	subi	r18, 0x27	; 39
    2e0e:	3f 4f       	sbci	r19, 0xFF	; 255
    2e10:	f9 01       	movw	r30, r18
    2e12:	91 83       	std	Z+1, r25	; 0x01
    2e14:	80 83       	st	Z, r24

00002e16 <.Loc.463>:
	...

00002e18 <.L147>:
            {
                DEBOUNCE;
                if ((PINF & (1<<PF2)) == 0)
    2e18:	8f e2       	ldi	r24, 0x2F	; 47
    2e1a:	90 e0       	ldi	r25, 0x00	; 0
    2e1c:	dc 01       	movw	r26, r24
    2e1e:	8c 91       	ld	r24, X

00002e20 <.Loc.465>:
    2e20:	88 2f       	mov	r24, r24
    2e22:	90 e0       	ldi	r25, 0x00	; 0
    2e24:	84 70       	andi	r24, 0x04	; 4
    2e26:	99 27       	eor	r25, r25

00002e28 <.Loc.466>:
    2e28:	00 97       	sbiw	r24, 0x00	; 0
    2e2a:	11 f0       	breq	.+4      	; 0x2e30 <L0^A+0x4>

00002e2c <L0^A>:
    2e2c:	0c 94 12 27 	jmp	0x4e24	; 0x4e24 <.L390>
    2e30:	9e 01       	movw	r18, r28
    2e32:	25 52       	subi	r18, 0x25	; 37
    2e34:	3f 4f       	sbci	r19, 0xFF	; 255
    2e36:	80 e0       	ldi	r24, 0x00	; 0
    2e38:	90 e0       	ldi	r25, 0x00	; 0
    2e3a:	a0 ef       	ldi	r26, 0xF0	; 240
    2e3c:	b1 e4       	ldi	r27, 0x41	; 65
    2e3e:	f9 01       	movw	r30, r18
    2e40:	80 83       	st	Z, r24
    2e42:	91 83       	std	Z+1, r25	; 0x01
    2e44:	a2 83       	std	Z+2, r26	; 0x02
    2e46:	b3 83       	std	Z+3, r27	; 0x03

00002e48 <.LBB260>:
	__tmp = ((F_CPU) / 4e3) * __ms;
    2e48:	8e 01       	movw	r16, r28
    2e4a:	01 52       	subi	r16, 0x21	; 33
    2e4c:	1f 4f       	sbci	r17, 0xFF	; 255
    2e4e:	ce 01       	movw	r24, r28
    2e50:	85 52       	subi	r24, 0x25	; 37
    2e52:	9f 4f       	sbci	r25, 0xFF	; 255
    2e54:	20 e0       	ldi	r18, 0x00	; 0
    2e56:	30 e0       	ldi	r19, 0x00	; 0
    2e58:	4a e7       	ldi	r20, 0x7A	; 122
    2e5a:	55 e4       	ldi	r21, 0x45	; 69
    2e5c:	dc 01       	movw	r26, r24
    2e5e:	6d 91       	ld	r22, X+
    2e60:	7d 91       	ld	r23, X+
    2e62:	8d 91       	ld	r24, X+
    2e64:	9c 91       	ld	r25, X
    2e66:	0e 94 2a 28 	call	0x5054	; 0x5054 <__mulsf3>
    2e6a:	c5 5f       	subi	r28, 0xF5	; 245
    2e6c:	dc 4f       	sbci	r29, 0xFC	; 252
    2e6e:	68 83       	st	Y, r22
    2e70:	79 83       	std	Y+1, r23	; 0x01
    2e72:	8a 83       	std	Y+2, r24	; 0x02
    2e74:	9b 83       	std	Y+3, r25	; 0x03
    2e76:	cb 50       	subi	r28, 0x0B	; 11
    2e78:	d3 40       	sbci	r29, 0x03	; 3
    2e7a:	c5 5f       	subi	r28, 0xF5	; 245
    2e7c:	dc 4f       	sbci	r29, 0xFC	; 252
    2e7e:	88 81       	ld	r24, Y
    2e80:	99 81       	ldd	r25, Y+1	; 0x01
    2e82:	aa 81       	ldd	r26, Y+2	; 0x02
    2e84:	bb 81       	ldd	r27, Y+3	; 0x03
    2e86:	cb 50       	subi	r28, 0x0B	; 11
    2e88:	d3 40       	sbci	r29, 0x03	; 3
    2e8a:	f8 01       	movw	r30, r16
    2e8c:	80 83       	st	Z, r24
    2e8e:	91 83       	std	Z+1, r25	; 0x01
    2e90:	a2 83       	std	Z+2, r26	; 0x02
    2e92:	b3 83       	std	Z+3, r27	; 0x03

00002e94 <.Loc.468>:
	if (__tmp < 1.0)
    2e94:	ce 01       	movw	r24, r28
    2e96:	81 52       	subi	r24, 0x21	; 33
    2e98:	9f 4f       	sbci	r25, 0xFF	; 255
    2e9a:	20 e0       	ldi	r18, 0x00	; 0
    2e9c:	30 e0       	ldi	r19, 0x00	; 0
    2e9e:	40 e8       	ldi	r20, 0x80	; 128
    2ea0:	5f e3       	ldi	r21, 0x3F	; 63
    2ea2:	dc 01       	movw	r26, r24
    2ea4:	6d 91       	ld	r22, X+
    2ea6:	7d 91       	ld	r23, X+
    2ea8:	8d 91       	ld	r24, X+
    2eaa:	9c 91       	ld	r25, X
    2eac:	0e 94 a4 27 	call	0x4f48	; 0x4f48 <__cmpsf2>
    2eb0:	88 23       	and	r24, r24
    2eb2:	4c f4       	brge	.+18     	; 0x2ec6 <.L361>

00002eb4 <.Loc.469>:
		__ticks = 1;
    2eb4:	ce 01       	movw	r24, r28
    2eb6:	8d 51       	subi	r24, 0x1D	; 29
    2eb8:	9f 4f       	sbci	r25, 0xFF	; 255
    2eba:	21 e0       	ldi	r18, 0x01	; 1
    2ebc:	30 e0       	ldi	r19, 0x00	; 0
    2ebe:	fc 01       	movw	r30, r24
    2ec0:	31 83       	std	Z+1, r19	; 0x01
    2ec2:	20 83       	st	Z, r18
    2ec4:	a5 c0       	rjmp	.+330    	; 0x3010 <.L150>

00002ec6 <.L361>:
	else if (__tmp > 65535)
    2ec6:	ce 01       	movw	r24, r28
    2ec8:	81 52       	subi	r24, 0x21	; 33
    2eca:	9f 4f       	sbci	r25, 0xFF	; 255
    2ecc:	20 e0       	ldi	r18, 0x00	; 0
    2ece:	3f ef       	ldi	r19, 0xFF	; 255
    2ed0:	4f e7       	ldi	r20, 0x7F	; 127
    2ed2:	57 e4       	ldi	r21, 0x47	; 71
    2ed4:	dc 01       	movw	r26, r24
    2ed6:	6d 91       	ld	r22, X+
    2ed8:	7d 91       	ld	r23, X+
    2eda:	8d 91       	ld	r24, X+
    2edc:	9c 91       	ld	r25, X
    2ede:	0e 94 25 28 	call	0x504a	; 0x504a <__gesf2>
    2ee2:	88 23       	and	r24, r24
    2ee4:	09 f0       	breq	.+2      	; 0x2ee8 <L0^A>

00002ee6 <L0^A>:
    2ee6:	0c f4       	brge	.+2      	; 0x2eea <.Loc.471>

00002ee8 <L0^A>:
    2ee8:	75 c0       	rjmp	.+234    	; 0x2fd4 <.L362>

00002eea <.Loc.471>:
		__ticks = (uint16_t) (__ms * 10.0);
    2eea:	ce 01       	movw	r24, r28
    2eec:	85 52       	subi	r24, 0x25	; 37
    2eee:	9f 4f       	sbci	r25, 0xFF	; 255
    2ef0:	20 e0       	ldi	r18, 0x00	; 0
    2ef2:	30 e0       	ldi	r19, 0x00	; 0
    2ef4:	40 e2       	ldi	r20, 0x20	; 32
    2ef6:	51 e4       	ldi	r21, 0x41	; 65
    2ef8:	fc 01       	movw	r30, r24
    2efa:	60 81       	ld	r22, Z
    2efc:	71 81       	ldd	r23, Z+1	; 0x01
    2efe:	82 81       	ldd	r24, Z+2	; 0x02
    2f00:	93 81       	ldd	r25, Z+3	; 0x03
    2f02:	0e 94 2a 28 	call	0x5054	; 0x5054 <__mulsf3>
    2f06:	c1 5f       	subi	r28, 0xF1	; 241
    2f08:	dc 4f       	sbci	r29, 0xFC	; 252
    2f0a:	68 83       	st	Y, r22
    2f0c:	79 83       	std	Y+1, r23	; 0x01
    2f0e:	8a 83       	std	Y+2, r24	; 0x02
    2f10:	9b 83       	std	Y+3, r25	; 0x03
    2f12:	cf 50       	subi	r28, 0x0F	; 15
    2f14:	d3 40       	sbci	r29, 0x03	; 3
    2f16:	c1 5f       	subi	r28, 0xF1	; 241
    2f18:	dc 4f       	sbci	r29, 0xFC	; 252
    2f1a:	88 81       	ld	r24, Y
    2f1c:	99 81       	ldd	r25, Y+1	; 0x01
    2f1e:	aa 81       	ldd	r26, Y+2	; 0x02
    2f20:	bb 81       	ldd	r27, Y+3	; 0x03
    2f22:	cf 50       	subi	r28, 0x0F	; 15
    2f24:	d3 40       	sbci	r29, 0x03	; 3
    2f26:	cd 50       	subi	r28, 0x0D	; 13
    2f28:	de 4f       	sbci	r29, 0xFE	; 254
    2f2a:	88 83       	st	Y, r24
    2f2c:	99 83       	std	Y+1, r25	; 0x01
    2f2e:	aa 83       	std	Y+2, r26	; 0x02
    2f30:	bb 83       	std	Y+3, r27	; 0x03
    2f32:	c3 5f       	subi	r28, 0xF3	; 243
    2f34:	d1 40       	sbci	r29, 0x01	; 1

00002f36 <.Loc.472>:
    2f36:	8e 01       	movw	r16, r28
    2f38:	0d 51       	subi	r16, 0x1D	; 29
    2f3a:	1f 4f       	sbci	r17, 0xFF	; 255
    2f3c:	cd 50       	subi	r28, 0x0D	; 13
    2f3e:	de 4f       	sbci	r29, 0xFE	; 254
    2f40:	68 81       	ld	r22, Y
    2f42:	79 81       	ldd	r23, Y+1	; 0x01
    2f44:	8a 81       	ldd	r24, Y+2	; 0x02
    2f46:	9b 81       	ldd	r25, Y+3	; 0x03
    2f48:	c3 5f       	subi	r28, 0xF3	; 243
    2f4a:	d1 40       	sbci	r29, 0x01	; 1
    2f4c:	0e 94 a9 27 	call	0x4f52	; 0x4f52 <__fixunssfsi>
    2f50:	cd 5e       	subi	r28, 0xED	; 237
    2f52:	dc 4f       	sbci	r29, 0xFC	; 252
    2f54:	68 83       	st	Y, r22
    2f56:	79 83       	std	Y+1, r23	; 0x01
    2f58:	8a 83       	std	Y+2, r24	; 0x02
    2f5a:	9b 83       	std	Y+3, r25	; 0x03
    2f5c:	c3 51       	subi	r28, 0x13	; 19
    2f5e:	d3 40       	sbci	r29, 0x03	; 3
    2f60:	cd 5e       	subi	r28, 0xED	; 237
    2f62:	dc 4f       	sbci	r29, 0xFC	; 252
    2f64:	e8 81       	ld	r30, Y
    2f66:	f9 81       	ldd	r31, Y+1	; 0x01
    2f68:	c3 51       	subi	r28, 0x13	; 19
    2f6a:	d3 40       	sbci	r29, 0x03	; 3
    2f6c:	d8 01       	movw	r26, r16
    2f6e:	11 96       	adiw	r26, 0x01	; 1
    2f70:	fc 93       	st	X, r31
    2f72:	ee 93       	st	-X, r30

00002f74 <.Loc.473>:
		while(__ticks)
    2f74:	26 c0       	rjmp	.+76     	; 0x2fc2 <.L153>

00002f76 <.L154>:
    2f76:	ce 01       	movw	r24, r28
    2f78:	8b 51       	subi	r24, 0x1B	; 27
    2f7a:	9f 4f       	sbci	r25, 0xFF	; 255
    2f7c:	20 e9       	ldi	r18, 0x90	; 144
    2f7e:	31 e0       	ldi	r19, 0x01	; 1
    2f80:	dc 01       	movw	r26, r24
    2f82:	2d 93       	st	X+, r18
    2f84:	3c 93       	st	X, r19

00002f86 <.LBB262>:
    2f86:	ce 01       	movw	r24, r28
    2f88:	8b 51       	subi	r24, 0x1B	; 27
    2f8a:	9f 4f       	sbci	r25, 0xFF	; 255
    2f8c:	fc 01       	movw	r30, r24
    2f8e:	80 81       	ld	r24, Z
    2f90:	91 81       	ldd	r25, Z+1	; 0x01

00002f92 <.L1^B45>:
    2f92:	01 97       	sbiw	r24, 0x01	; 1
    2f94:	f1 f7       	brne	.-4      	; 0x2f92 <.L1^B45>
    2f96:	9e 01       	movw	r18, r28
    2f98:	2b 51       	subi	r18, 0x1B	; 27
    2f9a:	3f 4f       	sbci	r19, 0xFF	; 255
    2f9c:	d9 01       	movw	r26, r18
    2f9e:	8d 93       	st	X+, r24
    2fa0:	9c 93       	st	X, r25

00002fa2 <.Loc.475>:
	...

00002fa4 <.LBE262>:
			__ticks --;
    2fa4:	ce 01       	movw	r24, r28
    2fa6:	8d 51       	subi	r24, 0x1D	; 29
    2fa8:	9f 4f       	sbci	r25, 0xFF	; 255
    2faa:	9e 01       	movw	r18, r28
    2fac:	2d 51       	subi	r18, 0x1D	; 29
    2fae:	3f 4f       	sbci	r19, 0xFF	; 255
    2fb0:	f9 01       	movw	r30, r18
    2fb2:	20 81       	ld	r18, Z
    2fb4:	31 81       	ldd	r19, Z+1	; 0x01
    2fb6:	21 50       	subi	r18, 0x01	; 1
    2fb8:	31 09       	sbc	r19, r1
    2fba:	dc 01       	movw	r26, r24
    2fbc:	11 96       	adiw	r26, 0x01	; 1
    2fbe:	3c 93       	st	X, r19
    2fc0:	2e 93       	st	-X, r18

00002fc2 <.L153>:
		while(__ticks)
    2fc2:	ce 01       	movw	r24, r28
    2fc4:	8d 51       	subi	r24, 0x1D	; 29
    2fc6:	9f 4f       	sbci	r25, 0xFF	; 255
    2fc8:	fc 01       	movw	r30, r24
    2fca:	80 81       	ld	r24, Z
    2fcc:	91 81       	ldd	r25, Z+1	; 0x01
    2fce:	00 97       	sbiw	r24, 0x00	; 0
    2fd0:	91 f6       	brne	.-92     	; 0x2f76 <.L154>

00002fd2 <.Loc.478>:
		return;
    2fd2:	3a c0       	rjmp	.+116    	; 0x3048 <.L155>

00002fd4 <.L362>:
		__ticks = (uint16_t)__tmp;
    2fd4:	8e 01       	movw	r16, r28
    2fd6:	0d 51       	subi	r16, 0x1D	; 29
    2fd8:	1f 4f       	sbci	r17, 0xFF	; 255
    2fda:	ce 01       	movw	r24, r28
    2fdc:	81 52       	subi	r24, 0x21	; 33
    2fde:	9f 4f       	sbci	r25, 0xFF	; 255
    2fe0:	dc 01       	movw	r26, r24
    2fe2:	6d 91       	ld	r22, X+
    2fe4:	7d 91       	ld	r23, X+
    2fe6:	8d 91       	ld	r24, X+
    2fe8:	9c 91       	ld	r25, X
    2fea:	0e 94 a9 27 	call	0x4f52	; 0x4f52 <__fixunssfsi>
    2fee:	c9 5e       	subi	r28, 0xE9	; 233
    2ff0:	dc 4f       	sbci	r29, 0xFC	; 252
    2ff2:	68 83       	st	Y, r22
    2ff4:	79 83       	std	Y+1, r23	; 0x01
    2ff6:	8a 83       	std	Y+2, r24	; 0x02
    2ff8:	9b 83       	std	Y+3, r25	; 0x03
    2ffa:	c7 51       	subi	r28, 0x17	; 23
    2ffc:	d3 40       	sbci	r29, 0x03	; 3
    2ffe:	c9 5e       	subi	r28, 0xE9	; 233
    3000:	dc 4f       	sbci	r29, 0xFC	; 252
    3002:	88 81       	ld	r24, Y
    3004:	99 81       	ldd	r25, Y+1	; 0x01
    3006:	c7 51       	subi	r28, 0x17	; 23
    3008:	d3 40       	sbci	r29, 0x03	; 3
    300a:	f8 01       	movw	r30, r16
    300c:	91 83       	std	Z+1, r25	; 0x01
    300e:	80 83       	st	Z, r24

00003010 <.L150>:
    3010:	ce 01       	movw	r24, r28
    3012:	89 51       	subi	r24, 0x19	; 25
    3014:	9f 4f       	sbci	r25, 0xFF	; 255
    3016:	9e 01       	movw	r18, r28
    3018:	2d 51       	subi	r18, 0x1D	; 29
    301a:	3f 4f       	sbci	r19, 0xFF	; 255
    301c:	d9 01       	movw	r26, r18
    301e:	2d 91       	ld	r18, X+
    3020:	3c 91       	ld	r19, X
    3022:	fc 01       	movw	r30, r24
    3024:	31 83       	std	Z+1, r19	; 0x01
    3026:	20 83       	st	Z, r18

00003028 <.LBB264>:
    3028:	ce 01       	movw	r24, r28
    302a:	89 51       	subi	r24, 0x19	; 25
    302c:	9f 4f       	sbci	r25, 0xFF	; 255
    302e:	dc 01       	movw	r26, r24
    3030:	8d 91       	ld	r24, X+
    3032:	9c 91       	ld	r25, X
    3034:	11 97       	sbiw	r26, 0x01	; 1

00003036 <.L1^B46>:
    3036:	01 97       	sbiw	r24, 0x01	; 1
    3038:	f1 f7       	brne	.-4      	; 0x3036 <.L1^B46>
    303a:	9e 01       	movw	r18, r28
    303c:	29 51       	subi	r18, 0x19	; 25
    303e:	3f 4f       	sbci	r19, 0xFF	; 255
    3040:	f9 01       	movw	r30, r18
    3042:	91 83       	std	Z+1, r25	; 0x01
    3044:	80 83       	st	Z, r24

00003046 <.Loc.481>:
	...

00003048 <.L155>:
                {
                    DEBOUNCE;
                    stand = 1;
    3048:	81 e0       	ldi	r24, 0x01	; 1
    304a:	90 e0       	ldi	r25, 0x00	; 0
    304c:	9c 8b       	std	Y+20, r25	; 0x14
    304e:	8b 8b       	std	Y+19, r24	; 0x13

00003050 <.Loc.483>:
                }
            }
            break;
    3050:	0c 94 12 27 	jmp	0x4e24	; 0x4e24 <.L390>

00003054 <.L18>:
        case 3: // naar x en y coordinaten //
            if ((PINK & (1<<PK3)) != 0)             // limit switch rotaties tellen x-as //
    3054:	86 e0       	ldi	r24, 0x06	; 6
    3056:	91 e0       	ldi	r25, 0x01	; 1
    3058:	dc 01       	movw	r26, r24
    305a:	8c 91       	ld	r24, X

0000305c <.Loc.485>:
    305c:	88 2f       	mov	r24, r24
    305e:	90 e0       	ldi	r25, 0x00	; 0
    3060:	88 70       	andi	r24, 0x08	; 8
    3062:	99 27       	eor	r25, r25

00003064 <.Loc.486>:
    3064:	00 97       	sbiw	r24, 0x00	; 0
    3066:	09 f4       	brne	.+2      	; 0x306a <L0^A+0x2>

00003068 <L0^A>:
    3068:	26 c2       	rjmp	.+1100   	; 0x34b6 <.L156>
    306a:	9e 01       	movw	r18, r28
    306c:	27 51       	subi	r18, 0x17	; 23
    306e:	3f 4f       	sbci	r19, 0xFF	; 255
    3070:	80 e0       	ldi	r24, 0x00	; 0
    3072:	90 e0       	ldi	r25, 0x00	; 0
    3074:	a0 ef       	ldi	r26, 0xF0	; 240
    3076:	b1 e4       	ldi	r27, 0x41	; 65
    3078:	f9 01       	movw	r30, r18
    307a:	80 83       	st	Z, r24
    307c:	91 83       	std	Z+1, r25	; 0x01
    307e:	a2 83       	std	Z+2, r26	; 0x02
    3080:	b3 83       	std	Z+3, r27	; 0x03

00003082 <.LBB266>:
	__tmp = ((F_CPU) / 4e3) * __ms;
    3082:	8e 01       	movw	r16, r28
    3084:	03 51       	subi	r16, 0x13	; 19
    3086:	1f 4f       	sbci	r17, 0xFF	; 255
    3088:	ce 01       	movw	r24, r28
    308a:	87 51       	subi	r24, 0x17	; 23
    308c:	9f 4f       	sbci	r25, 0xFF	; 255
    308e:	20 e0       	ldi	r18, 0x00	; 0
    3090:	30 e0       	ldi	r19, 0x00	; 0
    3092:	4a e7       	ldi	r20, 0x7A	; 122
    3094:	55 e4       	ldi	r21, 0x45	; 69
    3096:	dc 01       	movw	r26, r24
    3098:	6d 91       	ld	r22, X+
    309a:	7d 91       	ld	r23, X+
    309c:	8d 91       	ld	r24, X+
    309e:	9c 91       	ld	r25, X
    30a0:	0e 94 2a 28 	call	0x5054	; 0x5054 <__mulsf3>
    30a4:	c5 5e       	subi	r28, 0xE5	; 229
    30a6:	dc 4f       	sbci	r29, 0xFC	; 252
    30a8:	68 83       	st	Y, r22
    30aa:	79 83       	std	Y+1, r23	; 0x01
    30ac:	8a 83       	std	Y+2, r24	; 0x02
    30ae:	9b 83       	std	Y+3, r25	; 0x03
    30b0:	cb 51       	subi	r28, 0x1B	; 27
    30b2:	d3 40       	sbci	r29, 0x03	; 3
    30b4:	c5 5e       	subi	r28, 0xE5	; 229
    30b6:	dc 4f       	sbci	r29, 0xFC	; 252
    30b8:	88 81       	ld	r24, Y
    30ba:	99 81       	ldd	r25, Y+1	; 0x01
    30bc:	aa 81       	ldd	r26, Y+2	; 0x02
    30be:	bb 81       	ldd	r27, Y+3	; 0x03
    30c0:	cb 51       	subi	r28, 0x1B	; 27
    30c2:	d3 40       	sbci	r29, 0x03	; 3
    30c4:	f8 01       	movw	r30, r16
    30c6:	80 83       	st	Z, r24
    30c8:	91 83       	std	Z+1, r25	; 0x01
    30ca:	a2 83       	std	Z+2, r26	; 0x02
    30cc:	b3 83       	std	Z+3, r27	; 0x03

000030ce <.Loc.488>:
	if (__tmp < 1.0)
    30ce:	ce 01       	movw	r24, r28
    30d0:	83 51       	subi	r24, 0x13	; 19
    30d2:	9f 4f       	sbci	r25, 0xFF	; 255
    30d4:	20 e0       	ldi	r18, 0x00	; 0
    30d6:	30 e0       	ldi	r19, 0x00	; 0
    30d8:	40 e8       	ldi	r20, 0x80	; 128
    30da:	5f e3       	ldi	r21, 0x3F	; 63
    30dc:	dc 01       	movw	r26, r24
    30de:	6d 91       	ld	r22, X+
    30e0:	7d 91       	ld	r23, X+
    30e2:	8d 91       	ld	r24, X+
    30e4:	9c 91       	ld	r25, X
    30e6:	0e 94 a4 27 	call	0x4f48	; 0x4f48 <__cmpsf2>
    30ea:	88 23       	and	r24, r24
    30ec:	4c f4       	brge	.+18     	; 0x3100 <.L363>

000030ee <.Loc.489>:
		__ticks = 1;
    30ee:	ce 01       	movw	r24, r28
    30f0:	8f 50       	subi	r24, 0x0F	; 15
    30f2:	9f 4f       	sbci	r25, 0xFF	; 255
    30f4:	21 e0       	ldi	r18, 0x01	; 1
    30f6:	30 e0       	ldi	r19, 0x00	; 0
    30f8:	fc 01       	movw	r30, r24
    30fa:	31 83       	std	Z+1, r19	; 0x01
    30fc:	20 83       	st	Z, r18
    30fe:	a5 c0       	rjmp	.+330    	; 0x324a <.L159>

00003100 <.L363>:
	else if (__tmp > 65535)
    3100:	ce 01       	movw	r24, r28
    3102:	83 51       	subi	r24, 0x13	; 19
    3104:	9f 4f       	sbci	r25, 0xFF	; 255
    3106:	20 e0       	ldi	r18, 0x00	; 0
    3108:	3f ef       	ldi	r19, 0xFF	; 255
    310a:	4f e7       	ldi	r20, 0x7F	; 127
    310c:	57 e4       	ldi	r21, 0x47	; 71
    310e:	dc 01       	movw	r26, r24
    3110:	6d 91       	ld	r22, X+
    3112:	7d 91       	ld	r23, X+
    3114:	8d 91       	ld	r24, X+
    3116:	9c 91       	ld	r25, X
    3118:	0e 94 25 28 	call	0x504a	; 0x504a <__gesf2>
    311c:	88 23       	and	r24, r24
    311e:	09 f0       	breq	.+2      	; 0x3122 <L0^A>

00003120 <L0^A>:
    3120:	0c f4       	brge	.+2      	; 0x3124 <.Loc.491>

00003122 <L0^A>:
    3122:	75 c0       	rjmp	.+234    	; 0x320e <.L364>

00003124 <.Loc.491>:
		__ticks = (uint16_t) (__ms * 10.0);
    3124:	ce 01       	movw	r24, r28
    3126:	87 51       	subi	r24, 0x17	; 23
    3128:	9f 4f       	sbci	r25, 0xFF	; 255
    312a:	20 e0       	ldi	r18, 0x00	; 0
    312c:	30 e0       	ldi	r19, 0x00	; 0
    312e:	40 e2       	ldi	r20, 0x20	; 32
    3130:	51 e4       	ldi	r21, 0x41	; 65
    3132:	fc 01       	movw	r30, r24
    3134:	60 81       	ld	r22, Z
    3136:	71 81       	ldd	r23, Z+1	; 0x01
    3138:	82 81       	ldd	r24, Z+2	; 0x02
    313a:	93 81       	ldd	r25, Z+3	; 0x03
    313c:	0e 94 2a 28 	call	0x5054	; 0x5054 <__mulsf3>
    3140:	c1 5e       	subi	r28, 0xE1	; 225
    3142:	dc 4f       	sbci	r29, 0xFC	; 252
    3144:	68 83       	st	Y, r22
    3146:	79 83       	std	Y+1, r23	; 0x01
    3148:	8a 83       	std	Y+2, r24	; 0x02
    314a:	9b 83       	std	Y+3, r25	; 0x03
    314c:	cf 51       	subi	r28, 0x1F	; 31
    314e:	d3 40       	sbci	r29, 0x03	; 3
    3150:	c1 5e       	subi	r28, 0xE1	; 225
    3152:	dc 4f       	sbci	r29, 0xFC	; 252
    3154:	88 81       	ld	r24, Y
    3156:	99 81       	ldd	r25, Y+1	; 0x01
    3158:	aa 81       	ldd	r26, Y+2	; 0x02
    315a:	bb 81       	ldd	r27, Y+3	; 0x03
    315c:	cf 51       	subi	r28, 0x1F	; 31
    315e:	d3 40       	sbci	r29, 0x03	; 3
    3160:	c9 50       	subi	r28, 0x09	; 9
    3162:	de 4f       	sbci	r29, 0xFE	; 254
    3164:	88 83       	st	Y, r24
    3166:	99 83       	std	Y+1, r25	; 0x01
    3168:	aa 83       	std	Y+2, r26	; 0x02
    316a:	bb 83       	std	Y+3, r27	; 0x03
    316c:	c7 5f       	subi	r28, 0xF7	; 247
    316e:	d1 40       	sbci	r29, 0x01	; 1

00003170 <.Loc.492>:
    3170:	8e 01       	movw	r16, r28
    3172:	0f 50       	subi	r16, 0x0F	; 15
    3174:	1f 4f       	sbci	r17, 0xFF	; 255
    3176:	c9 50       	subi	r28, 0x09	; 9
    3178:	de 4f       	sbci	r29, 0xFE	; 254
    317a:	68 81       	ld	r22, Y
    317c:	79 81       	ldd	r23, Y+1	; 0x01
    317e:	8a 81       	ldd	r24, Y+2	; 0x02
    3180:	9b 81       	ldd	r25, Y+3	; 0x03
    3182:	c7 5f       	subi	r28, 0xF7	; 247
    3184:	d1 40       	sbci	r29, 0x01	; 1
    3186:	0e 94 a9 27 	call	0x4f52	; 0x4f52 <__fixunssfsi>
    318a:	cd 5d       	subi	r28, 0xDD	; 221
    318c:	dc 4f       	sbci	r29, 0xFC	; 252
    318e:	68 83       	st	Y, r22
    3190:	79 83       	std	Y+1, r23	; 0x01
    3192:	8a 83       	std	Y+2, r24	; 0x02
    3194:	9b 83       	std	Y+3, r25	; 0x03
    3196:	c3 52       	subi	r28, 0x23	; 35
    3198:	d3 40       	sbci	r29, 0x03	; 3
    319a:	cd 5d       	subi	r28, 0xDD	; 221
    319c:	dc 4f       	sbci	r29, 0xFC	; 252
    319e:	e8 81       	ld	r30, Y
    31a0:	f9 81       	ldd	r31, Y+1	; 0x01
    31a2:	c3 52       	subi	r28, 0x23	; 35
    31a4:	d3 40       	sbci	r29, 0x03	; 3
    31a6:	d8 01       	movw	r26, r16
    31a8:	11 96       	adiw	r26, 0x01	; 1
    31aa:	fc 93       	st	X, r31
    31ac:	ee 93       	st	-X, r30

000031ae <.Loc.493>:
		while(__ticks)
    31ae:	26 c0       	rjmp	.+76     	; 0x31fc <.L162>

000031b0 <.L163>:
    31b0:	ce 01       	movw	r24, r28
    31b2:	8d 50       	subi	r24, 0x0D	; 13
    31b4:	9f 4f       	sbci	r25, 0xFF	; 255
    31b6:	20 e9       	ldi	r18, 0x90	; 144
    31b8:	31 e0       	ldi	r19, 0x01	; 1
    31ba:	dc 01       	movw	r26, r24
    31bc:	2d 93       	st	X+, r18
    31be:	3c 93       	st	X, r19

000031c0 <.LBB268>:
    31c0:	ce 01       	movw	r24, r28
    31c2:	8d 50       	subi	r24, 0x0D	; 13
    31c4:	9f 4f       	sbci	r25, 0xFF	; 255
    31c6:	fc 01       	movw	r30, r24
    31c8:	80 81       	ld	r24, Z
    31ca:	91 81       	ldd	r25, Z+1	; 0x01

000031cc <.L1^B47>:
    31cc:	01 97       	sbiw	r24, 0x01	; 1
    31ce:	f1 f7       	brne	.-4      	; 0x31cc <.L1^B47>
    31d0:	9e 01       	movw	r18, r28
    31d2:	2d 50       	subi	r18, 0x0D	; 13
    31d4:	3f 4f       	sbci	r19, 0xFF	; 255
    31d6:	d9 01       	movw	r26, r18
    31d8:	8d 93       	st	X+, r24
    31da:	9c 93       	st	X, r25

000031dc <.Loc.495>:
	...

000031de <.LBE268>:
			__ticks --;
    31de:	ce 01       	movw	r24, r28
    31e0:	8f 50       	subi	r24, 0x0F	; 15
    31e2:	9f 4f       	sbci	r25, 0xFF	; 255
    31e4:	9e 01       	movw	r18, r28
    31e6:	2f 50       	subi	r18, 0x0F	; 15
    31e8:	3f 4f       	sbci	r19, 0xFF	; 255
    31ea:	f9 01       	movw	r30, r18
    31ec:	20 81       	ld	r18, Z
    31ee:	31 81       	ldd	r19, Z+1	; 0x01
    31f0:	21 50       	subi	r18, 0x01	; 1
    31f2:	31 09       	sbc	r19, r1
    31f4:	dc 01       	movw	r26, r24
    31f6:	11 96       	adiw	r26, 0x01	; 1
    31f8:	3c 93       	st	X, r19
    31fa:	2e 93       	st	-X, r18

000031fc <.L162>:
		while(__ticks)
    31fc:	ce 01       	movw	r24, r28
    31fe:	8f 50       	subi	r24, 0x0F	; 15
    3200:	9f 4f       	sbci	r25, 0xFF	; 255
    3202:	fc 01       	movw	r30, r24
    3204:	80 81       	ld	r24, Z
    3206:	91 81       	ldd	r25, Z+1	; 0x01
    3208:	00 97       	sbiw	r24, 0x00	; 0
    320a:	91 f6       	brne	.-92     	; 0x31b0 <.L163>

0000320c <.Loc.498>:
		return;
    320c:	39 c0       	rjmp	.+114    	; 0x3280 <.L164>

0000320e <.L364>:
		__ticks = (uint16_t)__tmp;
    320e:	8e 01       	movw	r16, r28
    3210:	0f 50       	subi	r16, 0x0F	; 15
    3212:	1f 4f       	sbci	r17, 0xFF	; 255
    3214:	ce 01       	movw	r24, r28
    3216:	83 51       	subi	r24, 0x13	; 19
    3218:	9f 4f       	sbci	r25, 0xFF	; 255
    321a:	dc 01       	movw	r26, r24
    321c:	6d 91       	ld	r22, X+
    321e:	7d 91       	ld	r23, X+
    3220:	8d 91       	ld	r24, X+
    3222:	9c 91       	ld	r25, X
    3224:	0e 94 a9 27 	call	0x4f52	; 0x4f52 <__fixunssfsi>
    3228:	c9 5d       	subi	r28, 0xD9	; 217
    322a:	dc 4f       	sbci	r29, 0xFC	; 252
    322c:	68 83       	st	Y, r22
    322e:	79 83       	std	Y+1, r23	; 0x01
    3230:	8a 83       	std	Y+2, r24	; 0x02
    3232:	9b 83       	std	Y+3, r25	; 0x03
    3234:	c7 52       	subi	r28, 0x27	; 39
    3236:	d3 40       	sbci	r29, 0x03	; 3
    3238:	c9 5d       	subi	r28, 0xD9	; 217
    323a:	dc 4f       	sbci	r29, 0xFC	; 252
    323c:	88 81       	ld	r24, Y
    323e:	99 81       	ldd	r25, Y+1	; 0x01
    3240:	c7 52       	subi	r28, 0x27	; 39
    3242:	d3 40       	sbci	r29, 0x03	; 3
    3244:	f8 01       	movw	r30, r16
    3246:	91 83       	std	Z+1, r25	; 0x01
    3248:	80 83       	st	Z, r24

0000324a <.L159>:
    324a:	ce 01       	movw	r24, r28
    324c:	8b 50       	subi	r24, 0x0B	; 11
    324e:	9f 4f       	sbci	r25, 0xFF	; 255
    3250:	9e 01       	movw	r18, r28
    3252:	2f 50       	subi	r18, 0x0F	; 15
    3254:	3f 4f       	sbci	r19, 0xFF	; 255
    3256:	d9 01       	movw	r26, r18
    3258:	2d 91       	ld	r18, X+
    325a:	3c 91       	ld	r19, X
    325c:	fc 01       	movw	r30, r24
    325e:	31 83       	std	Z+1, r19	; 0x01
    3260:	20 83       	st	Z, r18

00003262 <.LBB270>:
    3262:	ce 01       	movw	r24, r28
    3264:	8b 50       	subi	r24, 0x0B	; 11
    3266:	9f 4f       	sbci	r25, 0xFF	; 255
    3268:	dc 01       	movw	r26, r24
    326a:	8d 91       	ld	r24, X+
    326c:	9c 91       	ld	r25, X

0000326e <.L1^B48>:
    326e:	01 97       	sbiw	r24, 0x01	; 1
    3270:	f1 f7       	brne	.-4      	; 0x326e <.L1^B48>
    3272:	9e 01       	movw	r18, r28
    3274:	2b 50       	subi	r18, 0x0B	; 11
    3276:	3f 4f       	sbci	r19, 0xFF	; 255
    3278:	f9 01       	movw	r30, r18
    327a:	91 83       	std	Z+1, r25	; 0x01
    327c:	80 83       	st	Z, r24

0000327e <.Loc.501>:
	...

00003280 <.L164>:
            {
                DEBOUNCE;
                if ((PINK & (1<<PK3)) == 0)
    3280:	86 e0       	ldi	r24, 0x06	; 6
    3282:	91 e0       	ldi	r25, 0x01	; 1
    3284:	dc 01       	movw	r26, r24
    3286:	8c 91       	ld	r24, X

00003288 <.Loc.503>:
    3288:	88 2f       	mov	r24, r24
    328a:	90 e0       	ldi	r25, 0x00	; 0
    328c:	88 70       	andi	r24, 0x08	; 8
    328e:	99 27       	eor	r25, r25

00003290 <.Loc.504>:
    3290:	00 97       	sbiw	r24, 0x00	; 0
    3292:	09 f0       	breq	.+2      	; 0x3296 <L0^A+0x2>

00003294 <L0^A>:
    3294:	10 c1       	rjmp	.+544    	; 0x34b6 <.L156>
    3296:	9e 01       	movw	r18, r28
    3298:	29 50       	subi	r18, 0x09	; 9
    329a:	3f 4f       	sbci	r19, 0xFF	; 255
    329c:	80 e0       	ldi	r24, 0x00	; 0
    329e:	90 e0       	ldi	r25, 0x00	; 0
    32a0:	a0 ef       	ldi	r26, 0xF0	; 240
    32a2:	b1 e4       	ldi	r27, 0x41	; 65
    32a4:	f9 01       	movw	r30, r18
    32a6:	80 83       	st	Z, r24
    32a8:	91 83       	std	Z+1, r25	; 0x01
    32aa:	a2 83       	std	Z+2, r26	; 0x02
    32ac:	b3 83       	std	Z+3, r27	; 0x03

000032ae <.LBB272>:
	__tmp = ((F_CPU) / 4e3) * __ms;
    32ae:	8e 01       	movw	r16, r28
    32b0:	05 50       	subi	r16, 0x05	; 5
    32b2:	1f 4f       	sbci	r17, 0xFF	; 255
    32b4:	ce 01       	movw	r24, r28
    32b6:	89 50       	subi	r24, 0x09	; 9
    32b8:	9f 4f       	sbci	r25, 0xFF	; 255
    32ba:	20 e0       	ldi	r18, 0x00	; 0
    32bc:	30 e0       	ldi	r19, 0x00	; 0
    32be:	4a e7       	ldi	r20, 0x7A	; 122
    32c0:	55 e4       	ldi	r21, 0x45	; 69
    32c2:	dc 01       	movw	r26, r24
    32c4:	6d 91       	ld	r22, X+
    32c6:	7d 91       	ld	r23, X+
    32c8:	8d 91       	ld	r24, X+
    32ca:	9c 91       	ld	r25, X
    32cc:	0e 94 2a 28 	call	0x5054	; 0x5054 <__mulsf3>
    32d0:	c5 5d       	subi	r28, 0xD5	; 213
    32d2:	dc 4f       	sbci	r29, 0xFC	; 252
    32d4:	68 83       	st	Y, r22
    32d6:	79 83       	std	Y+1, r23	; 0x01
    32d8:	8a 83       	std	Y+2, r24	; 0x02
    32da:	9b 83       	std	Y+3, r25	; 0x03
    32dc:	cb 52       	subi	r28, 0x2B	; 43
    32de:	d3 40       	sbci	r29, 0x03	; 3
    32e0:	c5 5d       	subi	r28, 0xD5	; 213
    32e2:	dc 4f       	sbci	r29, 0xFC	; 252
    32e4:	88 81       	ld	r24, Y
    32e6:	99 81       	ldd	r25, Y+1	; 0x01
    32e8:	aa 81       	ldd	r26, Y+2	; 0x02
    32ea:	bb 81       	ldd	r27, Y+3	; 0x03
    32ec:	cb 52       	subi	r28, 0x2B	; 43
    32ee:	d3 40       	sbci	r29, 0x03	; 3
    32f0:	f8 01       	movw	r30, r16
    32f2:	80 83       	st	Z, r24
    32f4:	91 83       	std	Z+1, r25	; 0x01
    32f6:	a2 83       	std	Z+2, r26	; 0x02
    32f8:	b3 83       	std	Z+3, r27	; 0x03

000032fa <.Loc.506>:
	if (__tmp < 1.0)
    32fa:	ce 01       	movw	r24, r28
    32fc:	85 50       	subi	r24, 0x05	; 5
    32fe:	9f 4f       	sbci	r25, 0xFF	; 255
    3300:	20 e0       	ldi	r18, 0x00	; 0
    3302:	30 e0       	ldi	r19, 0x00	; 0
    3304:	40 e8       	ldi	r20, 0x80	; 128
    3306:	5f e3       	ldi	r21, 0x3F	; 63
    3308:	dc 01       	movw	r26, r24
    330a:	6d 91       	ld	r22, X+
    330c:	7d 91       	ld	r23, X+
    330e:	8d 91       	ld	r24, X+
    3310:	9c 91       	ld	r25, X
    3312:	0e 94 a4 27 	call	0x4f48	; 0x4f48 <__cmpsf2>
    3316:	88 23       	and	r24, r24
    3318:	4c f4       	brge	.+18     	; 0x332c <.L365>

0000331a <.Loc.507>:
		__ticks = 1;
    331a:	ce 01       	movw	r24, r28
    331c:	81 50       	subi	r24, 0x01	; 1
    331e:	9f 4f       	sbci	r25, 0xFF	; 255
    3320:	21 e0       	ldi	r18, 0x01	; 1
    3322:	30 e0       	ldi	r19, 0x00	; 0
    3324:	fc 01       	movw	r30, r24
    3326:	31 83       	std	Z+1, r19	; 0x01
    3328:	20 83       	st	Z, r18
    332a:	a5 c0       	rjmp	.+330    	; 0x3476 <.L167>

0000332c <.L365>:
	else if (__tmp > 65535)
    332c:	ce 01       	movw	r24, r28
    332e:	85 50       	subi	r24, 0x05	; 5
    3330:	9f 4f       	sbci	r25, 0xFF	; 255
    3332:	20 e0       	ldi	r18, 0x00	; 0
    3334:	3f ef       	ldi	r19, 0xFF	; 255
    3336:	4f e7       	ldi	r20, 0x7F	; 127
    3338:	57 e4       	ldi	r21, 0x47	; 71
    333a:	dc 01       	movw	r26, r24
    333c:	6d 91       	ld	r22, X+
    333e:	7d 91       	ld	r23, X+
    3340:	8d 91       	ld	r24, X+
    3342:	9c 91       	ld	r25, X
    3344:	0e 94 25 28 	call	0x504a	; 0x504a <__gesf2>
    3348:	88 23       	and	r24, r24
    334a:	09 f0       	breq	.+2      	; 0x334e <L0^A>

0000334c <L0^A>:
    334c:	0c f4       	brge	.+2      	; 0x3350 <.Loc.509>

0000334e <L0^A>:
    334e:	75 c0       	rjmp	.+234    	; 0x343a <.L366>

00003350 <.Loc.509>:
		__ticks = (uint16_t) (__ms * 10.0);
    3350:	ce 01       	movw	r24, r28
    3352:	89 50       	subi	r24, 0x09	; 9
    3354:	9f 4f       	sbci	r25, 0xFF	; 255
    3356:	20 e0       	ldi	r18, 0x00	; 0
    3358:	30 e0       	ldi	r19, 0x00	; 0
    335a:	40 e2       	ldi	r20, 0x20	; 32
    335c:	51 e4       	ldi	r21, 0x41	; 65
    335e:	fc 01       	movw	r30, r24
    3360:	60 81       	ld	r22, Z
    3362:	71 81       	ldd	r23, Z+1	; 0x01
    3364:	82 81       	ldd	r24, Z+2	; 0x02
    3366:	93 81       	ldd	r25, Z+3	; 0x03
    3368:	0e 94 2a 28 	call	0x5054	; 0x5054 <__mulsf3>
    336c:	c1 5d       	subi	r28, 0xD1	; 209
    336e:	dc 4f       	sbci	r29, 0xFC	; 252
    3370:	68 83       	st	Y, r22
    3372:	79 83       	std	Y+1, r23	; 0x01
    3374:	8a 83       	std	Y+2, r24	; 0x02
    3376:	9b 83       	std	Y+3, r25	; 0x03
    3378:	cf 52       	subi	r28, 0x2F	; 47
    337a:	d3 40       	sbci	r29, 0x03	; 3
    337c:	c1 5d       	subi	r28, 0xD1	; 209
    337e:	dc 4f       	sbci	r29, 0xFC	; 252
    3380:	88 81       	ld	r24, Y
    3382:	99 81       	ldd	r25, Y+1	; 0x01
    3384:	aa 81       	ldd	r26, Y+2	; 0x02
    3386:	bb 81       	ldd	r27, Y+3	; 0x03
    3388:	cf 52       	subi	r28, 0x2F	; 47
    338a:	d3 40       	sbci	r29, 0x03	; 3
    338c:	c5 50       	subi	r28, 0x05	; 5
    338e:	de 4f       	sbci	r29, 0xFE	; 254
    3390:	88 83       	st	Y, r24
    3392:	99 83       	std	Y+1, r25	; 0x01
    3394:	aa 83       	std	Y+2, r26	; 0x02
    3396:	bb 83       	std	Y+3, r27	; 0x03
    3398:	cb 5f       	subi	r28, 0xFB	; 251
    339a:	d1 40       	sbci	r29, 0x01	; 1

0000339c <.Loc.510>:
    339c:	8e 01       	movw	r16, r28
    339e:	01 50       	subi	r16, 0x01	; 1
    33a0:	1f 4f       	sbci	r17, 0xFF	; 255
    33a2:	c5 50       	subi	r28, 0x05	; 5
    33a4:	de 4f       	sbci	r29, 0xFE	; 254
    33a6:	68 81       	ld	r22, Y
    33a8:	79 81       	ldd	r23, Y+1	; 0x01
    33aa:	8a 81       	ldd	r24, Y+2	; 0x02
    33ac:	9b 81       	ldd	r25, Y+3	; 0x03
    33ae:	cb 5f       	subi	r28, 0xFB	; 251
    33b0:	d1 40       	sbci	r29, 0x01	; 1
    33b2:	0e 94 a9 27 	call	0x4f52	; 0x4f52 <__fixunssfsi>
    33b6:	cd 5c       	subi	r28, 0xCD	; 205
    33b8:	dc 4f       	sbci	r29, 0xFC	; 252
    33ba:	68 83       	st	Y, r22
    33bc:	79 83       	std	Y+1, r23	; 0x01
    33be:	8a 83       	std	Y+2, r24	; 0x02
    33c0:	9b 83       	std	Y+3, r25	; 0x03
    33c2:	c3 53       	subi	r28, 0x33	; 51
    33c4:	d3 40       	sbci	r29, 0x03	; 3
    33c6:	cd 5c       	subi	r28, 0xCD	; 205
    33c8:	dc 4f       	sbci	r29, 0xFC	; 252
    33ca:	e8 81       	ld	r30, Y
    33cc:	f9 81       	ldd	r31, Y+1	; 0x01
    33ce:	c3 53       	subi	r28, 0x33	; 51
    33d0:	d3 40       	sbci	r29, 0x03	; 3
    33d2:	d8 01       	movw	r26, r16
    33d4:	11 96       	adiw	r26, 0x01	; 1
    33d6:	fc 93       	st	X, r31
    33d8:	ee 93       	st	-X, r30

000033da <.Loc.511>:
		while(__ticks)
    33da:	26 c0       	rjmp	.+76     	; 0x3428 <.L170>

000033dc <.L171>:
    33dc:	ce 01       	movw	r24, r28
    33de:	8f 5f       	subi	r24, 0xFF	; 255
    33e0:	9e 4f       	sbci	r25, 0xFE	; 254
    33e2:	20 e9       	ldi	r18, 0x90	; 144
    33e4:	31 e0       	ldi	r19, 0x01	; 1
    33e6:	dc 01       	movw	r26, r24
    33e8:	2d 93       	st	X+, r18
    33ea:	3c 93       	st	X, r19

000033ec <.LBB274>:
    33ec:	ce 01       	movw	r24, r28
    33ee:	8f 5f       	subi	r24, 0xFF	; 255
    33f0:	9e 4f       	sbci	r25, 0xFE	; 254
    33f2:	fc 01       	movw	r30, r24
    33f4:	80 81       	ld	r24, Z
    33f6:	91 81       	ldd	r25, Z+1	; 0x01

000033f8 <.L1^B49>:
    33f8:	01 97       	sbiw	r24, 0x01	; 1
    33fa:	f1 f7       	brne	.-4      	; 0x33f8 <.L1^B49>
    33fc:	9e 01       	movw	r18, r28
    33fe:	2f 5f       	subi	r18, 0xFF	; 255
    3400:	3e 4f       	sbci	r19, 0xFE	; 254
    3402:	d9 01       	movw	r26, r18
    3404:	8d 93       	st	X+, r24
    3406:	9c 93       	st	X, r25

00003408 <.Loc.513>:
	...

0000340a <.LBE274>:
			__ticks --;
    340a:	ce 01       	movw	r24, r28
    340c:	81 50       	subi	r24, 0x01	; 1
    340e:	9f 4f       	sbci	r25, 0xFF	; 255
    3410:	9e 01       	movw	r18, r28
    3412:	21 50       	subi	r18, 0x01	; 1
    3414:	3f 4f       	sbci	r19, 0xFF	; 255
    3416:	f9 01       	movw	r30, r18
    3418:	20 81       	ld	r18, Z
    341a:	31 81       	ldd	r19, Z+1	; 0x01
    341c:	21 50       	subi	r18, 0x01	; 1
    341e:	31 09       	sbc	r19, r1
    3420:	dc 01       	movw	r26, r24
    3422:	11 96       	adiw	r26, 0x01	; 1
    3424:	3c 93       	st	X, r19
    3426:	2e 93       	st	-X, r18

00003428 <.L170>:
		while(__ticks)
    3428:	ce 01       	movw	r24, r28
    342a:	81 50       	subi	r24, 0x01	; 1
    342c:	9f 4f       	sbci	r25, 0xFF	; 255
    342e:	fc 01       	movw	r30, r24
    3430:	80 81       	ld	r24, Z
    3432:	91 81       	ldd	r25, Z+1	; 0x01
    3434:	00 97       	sbiw	r24, 0x00	; 0
    3436:	91 f6       	brne	.-92     	; 0x33dc <.L171>

00003438 <.Loc.516>:
		return;
    3438:	39 c0       	rjmp	.+114    	; 0x34ac <.L172>

0000343a <.L366>:
		__ticks = (uint16_t)__tmp;
    343a:	8e 01       	movw	r16, r28
    343c:	01 50       	subi	r16, 0x01	; 1
    343e:	1f 4f       	sbci	r17, 0xFF	; 255
    3440:	ce 01       	movw	r24, r28
    3442:	85 50       	subi	r24, 0x05	; 5
    3444:	9f 4f       	sbci	r25, 0xFF	; 255
    3446:	dc 01       	movw	r26, r24
    3448:	6d 91       	ld	r22, X+
    344a:	7d 91       	ld	r23, X+
    344c:	8d 91       	ld	r24, X+
    344e:	9c 91       	ld	r25, X
    3450:	0e 94 a9 27 	call	0x4f52	; 0x4f52 <__fixunssfsi>
    3454:	c9 5c       	subi	r28, 0xC9	; 201
    3456:	dc 4f       	sbci	r29, 0xFC	; 252
    3458:	68 83       	st	Y, r22
    345a:	79 83       	std	Y+1, r23	; 0x01
    345c:	8a 83       	std	Y+2, r24	; 0x02
    345e:	9b 83       	std	Y+3, r25	; 0x03
    3460:	c7 53       	subi	r28, 0x37	; 55
    3462:	d3 40       	sbci	r29, 0x03	; 3
    3464:	c9 5c       	subi	r28, 0xC9	; 201
    3466:	dc 4f       	sbci	r29, 0xFC	; 252
    3468:	88 81       	ld	r24, Y
    346a:	99 81       	ldd	r25, Y+1	; 0x01
    346c:	c7 53       	subi	r28, 0x37	; 55
    346e:	d3 40       	sbci	r29, 0x03	; 3
    3470:	f8 01       	movw	r30, r16
    3472:	91 83       	std	Z+1, r25	; 0x01
    3474:	80 83       	st	Z, r24

00003476 <.L167>:
    3476:	ce 01       	movw	r24, r28
    3478:	8d 5f       	subi	r24, 0xFD	; 253
    347a:	9e 4f       	sbci	r25, 0xFE	; 254
    347c:	9e 01       	movw	r18, r28
    347e:	21 50       	subi	r18, 0x01	; 1
    3480:	3f 4f       	sbci	r19, 0xFF	; 255
    3482:	d9 01       	movw	r26, r18
    3484:	2d 91       	ld	r18, X+
    3486:	3c 91       	ld	r19, X
    3488:	fc 01       	movw	r30, r24
    348a:	31 83       	std	Z+1, r19	; 0x01
    348c:	20 83       	st	Z, r18

0000348e <.LBB276>:
    348e:	ce 01       	movw	r24, r28
    3490:	8d 5f       	subi	r24, 0xFD	; 253
    3492:	9e 4f       	sbci	r25, 0xFE	; 254
    3494:	dc 01       	movw	r26, r24
    3496:	8d 91       	ld	r24, X+
    3498:	9c 91       	ld	r25, X

0000349a <.L1^B50>:
    349a:	01 97       	sbiw	r24, 0x01	; 1
    349c:	f1 f7       	brne	.-4      	; 0x349a <.L1^B50>
    349e:	9e 01       	movw	r18, r28
    34a0:	2d 5f       	subi	r18, 0xFD	; 253
    34a2:	3e 4f       	sbci	r19, 0xFE	; 254
    34a4:	f9 01       	movw	r30, r18
    34a6:	91 83       	std	Z+1, r25	; 0x01
    34a8:	80 83       	st	Z, r24

000034aa <.Loc.519>:
	...

000034ac <.L172>:
                {
                    DEBOUNCE;
                    rotatiex++;                     // optellen van rotaties x-as //
    34ac:	89 81       	ldd	r24, Y+1	; 0x01
    34ae:	9a 81       	ldd	r25, Y+2	; 0x02
    34b0:	01 96       	adiw	r24, 0x01	; 1
    34b2:	9a 83       	std	Y+2, r25	; 0x02
    34b4:	89 83       	std	Y+1, r24	; 0x01

000034b6 <.L156>:
                }
            }
            if ((PINK & (1<<PK4)) != 0)             // limit switch rotaties tellen y-as //
    34b6:	86 e0       	ldi	r24, 0x06	; 6
    34b8:	91 e0       	ldi	r25, 0x01	; 1
    34ba:	dc 01       	movw	r26, r24
    34bc:	8c 91       	ld	r24, X

000034be <.Loc.522>:
    34be:	88 2f       	mov	r24, r24
    34c0:	90 e0       	ldi	r25, 0x00	; 0
    34c2:	80 71       	andi	r24, 0x10	; 16
    34c4:	99 27       	eor	r25, r25

000034c6 <.Loc.523>:
    34c6:	00 97       	sbiw	r24, 0x00	; 0
    34c8:	09 f4       	brne	.+2      	; 0x34cc <L0^A+0x2>

000034ca <L0^A>:
    34ca:	27 c2       	rjmp	.+1102   	; 0x391a <.L173>
    34cc:	9e 01       	movw	r18, r28
    34ce:	2b 5f       	subi	r18, 0xFB	; 251
    34d0:	3e 4f       	sbci	r19, 0xFE	; 254
    34d2:	80 e0       	ldi	r24, 0x00	; 0
    34d4:	90 e0       	ldi	r25, 0x00	; 0
    34d6:	a0 ef       	ldi	r26, 0xF0	; 240
    34d8:	b1 e4       	ldi	r27, 0x41	; 65
    34da:	f9 01       	movw	r30, r18
    34dc:	80 83       	st	Z, r24
    34de:	91 83       	std	Z+1, r25	; 0x01
    34e0:	a2 83       	std	Z+2, r26	; 0x02
    34e2:	b3 83       	std	Z+3, r27	; 0x03

000034e4 <.LBB278>:
	__tmp = ((F_CPU) / 4e3) * __ms;
    34e4:	8e 01       	movw	r16, r28
    34e6:	07 5f       	subi	r16, 0xF7	; 247
    34e8:	1e 4f       	sbci	r17, 0xFE	; 254
    34ea:	ce 01       	movw	r24, r28
    34ec:	8b 5f       	subi	r24, 0xFB	; 251
    34ee:	9e 4f       	sbci	r25, 0xFE	; 254
    34f0:	20 e0       	ldi	r18, 0x00	; 0
    34f2:	30 e0       	ldi	r19, 0x00	; 0
    34f4:	4a e7       	ldi	r20, 0x7A	; 122
    34f6:	55 e4       	ldi	r21, 0x45	; 69
    34f8:	dc 01       	movw	r26, r24
    34fa:	6d 91       	ld	r22, X+
    34fc:	7d 91       	ld	r23, X+
    34fe:	8d 91       	ld	r24, X+
    3500:	9c 91       	ld	r25, X
    3502:	0e 94 2a 28 	call	0x5054	; 0x5054 <__mulsf3>
    3506:	c5 5c       	subi	r28, 0xC5	; 197
    3508:	dc 4f       	sbci	r29, 0xFC	; 252
    350a:	68 83       	st	Y, r22
    350c:	79 83       	std	Y+1, r23	; 0x01
    350e:	8a 83       	std	Y+2, r24	; 0x02
    3510:	9b 83       	std	Y+3, r25	; 0x03
    3512:	cb 53       	subi	r28, 0x3B	; 59
    3514:	d3 40       	sbci	r29, 0x03	; 3
    3516:	c5 5c       	subi	r28, 0xC5	; 197
    3518:	dc 4f       	sbci	r29, 0xFC	; 252
    351a:	88 81       	ld	r24, Y
    351c:	99 81       	ldd	r25, Y+1	; 0x01
    351e:	aa 81       	ldd	r26, Y+2	; 0x02
    3520:	bb 81       	ldd	r27, Y+3	; 0x03
    3522:	cb 53       	subi	r28, 0x3B	; 59
    3524:	d3 40       	sbci	r29, 0x03	; 3
    3526:	f8 01       	movw	r30, r16
    3528:	80 83       	st	Z, r24
    352a:	91 83       	std	Z+1, r25	; 0x01
    352c:	a2 83       	std	Z+2, r26	; 0x02
    352e:	b3 83       	std	Z+3, r27	; 0x03

00003530 <.Loc.525>:
	if (__tmp < 1.0)
    3530:	ce 01       	movw	r24, r28
    3532:	87 5f       	subi	r24, 0xF7	; 247
    3534:	9e 4f       	sbci	r25, 0xFE	; 254
    3536:	20 e0       	ldi	r18, 0x00	; 0
    3538:	30 e0       	ldi	r19, 0x00	; 0
    353a:	40 e8       	ldi	r20, 0x80	; 128
    353c:	5f e3       	ldi	r21, 0x3F	; 63
    353e:	dc 01       	movw	r26, r24
    3540:	6d 91       	ld	r22, X+
    3542:	7d 91       	ld	r23, X+
    3544:	8d 91       	ld	r24, X+
    3546:	9c 91       	ld	r25, X
    3548:	0e 94 a4 27 	call	0x4f48	; 0x4f48 <__cmpsf2>
    354c:	88 23       	and	r24, r24
    354e:	4c f4       	brge	.+18     	; 0x3562 <.L367>

00003550 <.Loc.526>:
		__ticks = 1;
    3550:	ce 01       	movw	r24, r28
    3552:	83 5f       	subi	r24, 0xF3	; 243
    3554:	9e 4f       	sbci	r25, 0xFE	; 254
    3556:	21 e0       	ldi	r18, 0x01	; 1
    3558:	30 e0       	ldi	r19, 0x00	; 0
    355a:	fc 01       	movw	r30, r24
    355c:	31 83       	std	Z+1, r19	; 0x01
    355e:	20 83       	st	Z, r18
    3560:	a5 c0       	rjmp	.+330    	; 0x36ac <.L176>

00003562 <.L367>:
	else if (__tmp > 65535)
    3562:	ce 01       	movw	r24, r28
    3564:	87 5f       	subi	r24, 0xF7	; 247
    3566:	9e 4f       	sbci	r25, 0xFE	; 254
    3568:	20 e0       	ldi	r18, 0x00	; 0
    356a:	3f ef       	ldi	r19, 0xFF	; 255
    356c:	4f e7       	ldi	r20, 0x7F	; 127
    356e:	57 e4       	ldi	r21, 0x47	; 71
    3570:	dc 01       	movw	r26, r24
    3572:	6d 91       	ld	r22, X+
    3574:	7d 91       	ld	r23, X+
    3576:	8d 91       	ld	r24, X+
    3578:	9c 91       	ld	r25, X
    357a:	0e 94 25 28 	call	0x504a	; 0x504a <__gesf2>
    357e:	88 23       	and	r24, r24
    3580:	09 f0       	breq	.+2      	; 0x3584 <L0^A>

00003582 <L0^A>:
    3582:	0c f4       	brge	.+2      	; 0x3586 <.Loc.528>

00003584 <L0^A>:
    3584:	75 c0       	rjmp	.+234    	; 0x3670 <.L368>

00003586 <.Loc.528>:
		__ticks = (uint16_t) (__ms * 10.0);
    3586:	ce 01       	movw	r24, r28
    3588:	8b 5f       	subi	r24, 0xFB	; 251
    358a:	9e 4f       	sbci	r25, 0xFE	; 254
    358c:	20 e0       	ldi	r18, 0x00	; 0
    358e:	30 e0       	ldi	r19, 0x00	; 0
    3590:	40 e2       	ldi	r20, 0x20	; 32
    3592:	51 e4       	ldi	r21, 0x41	; 65
    3594:	fc 01       	movw	r30, r24
    3596:	60 81       	ld	r22, Z
    3598:	71 81       	ldd	r23, Z+1	; 0x01
    359a:	82 81       	ldd	r24, Z+2	; 0x02
    359c:	93 81       	ldd	r25, Z+3	; 0x03
    359e:	0e 94 2a 28 	call	0x5054	; 0x5054 <__mulsf3>
    35a2:	c1 5c       	subi	r28, 0xC1	; 193
    35a4:	dc 4f       	sbci	r29, 0xFC	; 252
    35a6:	68 83       	st	Y, r22
    35a8:	79 83       	std	Y+1, r23	; 0x01
    35aa:	8a 83       	std	Y+2, r24	; 0x02
    35ac:	9b 83       	std	Y+3, r25	; 0x03
    35ae:	cf 53       	subi	r28, 0x3F	; 63
    35b0:	d3 40       	sbci	r29, 0x03	; 3
    35b2:	c1 5c       	subi	r28, 0xC1	; 193
    35b4:	dc 4f       	sbci	r29, 0xFC	; 252
    35b6:	88 81       	ld	r24, Y
    35b8:	99 81       	ldd	r25, Y+1	; 0x01
    35ba:	aa 81       	ldd	r26, Y+2	; 0x02
    35bc:	bb 81       	ldd	r27, Y+3	; 0x03
    35be:	cf 53       	subi	r28, 0x3F	; 63
    35c0:	d3 40       	sbci	r29, 0x03	; 3
    35c2:	c1 50       	subi	r28, 0x01	; 1
    35c4:	de 4f       	sbci	r29, 0xFE	; 254
    35c6:	88 83       	st	Y, r24
    35c8:	99 83       	std	Y+1, r25	; 0x01
    35ca:	aa 83       	std	Y+2, r26	; 0x02
    35cc:	bb 83       	std	Y+3, r27	; 0x03
    35ce:	cf 5f       	subi	r28, 0xFF	; 255
    35d0:	d1 40       	sbci	r29, 0x01	; 1

000035d2 <.Loc.529>:
    35d2:	8e 01       	movw	r16, r28
    35d4:	03 5f       	subi	r16, 0xF3	; 243
    35d6:	1e 4f       	sbci	r17, 0xFE	; 254
    35d8:	c1 50       	subi	r28, 0x01	; 1
    35da:	de 4f       	sbci	r29, 0xFE	; 254
    35dc:	68 81       	ld	r22, Y
    35de:	79 81       	ldd	r23, Y+1	; 0x01
    35e0:	8a 81       	ldd	r24, Y+2	; 0x02
    35e2:	9b 81       	ldd	r25, Y+3	; 0x03
    35e4:	cf 5f       	subi	r28, 0xFF	; 255
    35e6:	d1 40       	sbci	r29, 0x01	; 1
    35e8:	0e 94 a9 27 	call	0x4f52	; 0x4f52 <__fixunssfsi>
    35ec:	cd 5b       	subi	r28, 0xBD	; 189
    35ee:	dc 4f       	sbci	r29, 0xFC	; 252
    35f0:	68 83       	st	Y, r22
    35f2:	79 83       	std	Y+1, r23	; 0x01
    35f4:	8a 83       	std	Y+2, r24	; 0x02
    35f6:	9b 83       	std	Y+3, r25	; 0x03
    35f8:	c3 54       	subi	r28, 0x43	; 67
    35fa:	d3 40       	sbci	r29, 0x03	; 3
    35fc:	cd 5b       	subi	r28, 0xBD	; 189
    35fe:	dc 4f       	sbci	r29, 0xFC	; 252
    3600:	e8 81       	ld	r30, Y
    3602:	f9 81       	ldd	r31, Y+1	; 0x01
    3604:	c3 54       	subi	r28, 0x43	; 67
    3606:	d3 40       	sbci	r29, 0x03	; 3
    3608:	d8 01       	movw	r26, r16
    360a:	11 96       	adiw	r26, 0x01	; 1
    360c:	fc 93       	st	X, r31
    360e:	ee 93       	st	-X, r30

00003610 <.Loc.530>:
		while(__ticks)
    3610:	26 c0       	rjmp	.+76     	; 0x365e <.L179>

00003612 <.L180>:
    3612:	ce 01       	movw	r24, r28
    3614:	81 5f       	subi	r24, 0xF1	; 241
    3616:	9e 4f       	sbci	r25, 0xFE	; 254
    3618:	20 e9       	ldi	r18, 0x90	; 144
    361a:	31 e0       	ldi	r19, 0x01	; 1
    361c:	dc 01       	movw	r26, r24
    361e:	2d 93       	st	X+, r18
    3620:	3c 93       	st	X, r19

00003622 <.LBB280>:
    3622:	ce 01       	movw	r24, r28
    3624:	81 5f       	subi	r24, 0xF1	; 241
    3626:	9e 4f       	sbci	r25, 0xFE	; 254
    3628:	fc 01       	movw	r30, r24
    362a:	80 81       	ld	r24, Z
    362c:	91 81       	ldd	r25, Z+1	; 0x01

0000362e <.L1^B51>:
    362e:	01 97       	sbiw	r24, 0x01	; 1
    3630:	f1 f7       	brne	.-4      	; 0x362e <.L1^B51>
    3632:	9e 01       	movw	r18, r28
    3634:	21 5f       	subi	r18, 0xF1	; 241
    3636:	3e 4f       	sbci	r19, 0xFE	; 254
    3638:	d9 01       	movw	r26, r18
    363a:	8d 93       	st	X+, r24
    363c:	9c 93       	st	X, r25

0000363e <.Loc.532>:
	...

00003640 <.LBE280>:
			__ticks --;
    3640:	ce 01       	movw	r24, r28
    3642:	83 5f       	subi	r24, 0xF3	; 243
    3644:	9e 4f       	sbci	r25, 0xFE	; 254
    3646:	9e 01       	movw	r18, r28
    3648:	23 5f       	subi	r18, 0xF3	; 243
    364a:	3e 4f       	sbci	r19, 0xFE	; 254
    364c:	f9 01       	movw	r30, r18
    364e:	20 81       	ld	r18, Z
    3650:	31 81       	ldd	r19, Z+1	; 0x01
    3652:	21 50       	subi	r18, 0x01	; 1
    3654:	31 09       	sbc	r19, r1
    3656:	dc 01       	movw	r26, r24
    3658:	11 96       	adiw	r26, 0x01	; 1
    365a:	3c 93       	st	X, r19
    365c:	2e 93       	st	-X, r18

0000365e <.L179>:
		while(__ticks)
    365e:	ce 01       	movw	r24, r28
    3660:	83 5f       	subi	r24, 0xF3	; 243
    3662:	9e 4f       	sbci	r25, 0xFE	; 254
    3664:	fc 01       	movw	r30, r24
    3666:	80 81       	ld	r24, Z
    3668:	91 81       	ldd	r25, Z+1	; 0x01
    366a:	00 97       	sbiw	r24, 0x00	; 0
    366c:	91 f6       	brne	.-92     	; 0x3612 <.L180>

0000366e <.Loc.535>:
		return;
    366e:	39 c0       	rjmp	.+114    	; 0x36e2 <.L181>

00003670 <.L368>:
		__ticks = (uint16_t)__tmp;
    3670:	8e 01       	movw	r16, r28
    3672:	03 5f       	subi	r16, 0xF3	; 243
    3674:	1e 4f       	sbci	r17, 0xFE	; 254
    3676:	ce 01       	movw	r24, r28
    3678:	87 5f       	subi	r24, 0xF7	; 247
    367a:	9e 4f       	sbci	r25, 0xFE	; 254
    367c:	dc 01       	movw	r26, r24
    367e:	6d 91       	ld	r22, X+
    3680:	7d 91       	ld	r23, X+
    3682:	8d 91       	ld	r24, X+
    3684:	9c 91       	ld	r25, X
    3686:	0e 94 a9 27 	call	0x4f52	; 0x4f52 <__fixunssfsi>
    368a:	c9 5b       	subi	r28, 0xB9	; 185
    368c:	dc 4f       	sbci	r29, 0xFC	; 252
    368e:	68 83       	st	Y, r22
    3690:	79 83       	std	Y+1, r23	; 0x01
    3692:	8a 83       	std	Y+2, r24	; 0x02
    3694:	9b 83       	std	Y+3, r25	; 0x03
    3696:	c7 54       	subi	r28, 0x47	; 71
    3698:	d3 40       	sbci	r29, 0x03	; 3
    369a:	c9 5b       	subi	r28, 0xB9	; 185
    369c:	dc 4f       	sbci	r29, 0xFC	; 252
    369e:	88 81       	ld	r24, Y
    36a0:	99 81       	ldd	r25, Y+1	; 0x01
    36a2:	c7 54       	subi	r28, 0x47	; 71
    36a4:	d3 40       	sbci	r29, 0x03	; 3
    36a6:	f8 01       	movw	r30, r16
    36a8:	91 83       	std	Z+1, r25	; 0x01
    36aa:	80 83       	st	Z, r24

000036ac <.L176>:
    36ac:	ce 01       	movw	r24, r28
    36ae:	8f 5e       	subi	r24, 0xEF	; 239
    36b0:	9e 4f       	sbci	r25, 0xFE	; 254
    36b2:	9e 01       	movw	r18, r28
    36b4:	23 5f       	subi	r18, 0xF3	; 243
    36b6:	3e 4f       	sbci	r19, 0xFE	; 254
    36b8:	d9 01       	movw	r26, r18
    36ba:	2d 91       	ld	r18, X+
    36bc:	3c 91       	ld	r19, X
    36be:	fc 01       	movw	r30, r24
    36c0:	31 83       	std	Z+1, r19	; 0x01
    36c2:	20 83       	st	Z, r18

000036c4 <.LBB282>:
    36c4:	ce 01       	movw	r24, r28
    36c6:	8f 5e       	subi	r24, 0xEF	; 239
    36c8:	9e 4f       	sbci	r25, 0xFE	; 254
    36ca:	dc 01       	movw	r26, r24
    36cc:	8d 91       	ld	r24, X+
    36ce:	9c 91       	ld	r25, X

000036d0 <.L1^B52>:
    36d0:	01 97       	sbiw	r24, 0x01	; 1
    36d2:	f1 f7       	brne	.-4      	; 0x36d0 <.L1^B52>
    36d4:	9e 01       	movw	r18, r28
    36d6:	2f 5e       	subi	r18, 0xEF	; 239
    36d8:	3e 4f       	sbci	r19, 0xFE	; 254
    36da:	f9 01       	movw	r30, r18
    36dc:	91 83       	std	Z+1, r25	; 0x01
    36de:	80 83       	st	Z, r24

000036e0 <.Loc.538>:
	...

000036e2 <.L181>:
            {
                DEBOUNCE;
                if ((PINK & (1<<PK4)) == 0)
    36e2:	86 e0       	ldi	r24, 0x06	; 6
    36e4:	91 e0       	ldi	r25, 0x01	; 1
    36e6:	dc 01       	movw	r26, r24
    36e8:	8c 91       	ld	r24, X

000036ea <.Loc.540>:
    36ea:	88 2f       	mov	r24, r24
    36ec:	90 e0       	ldi	r25, 0x00	; 0
    36ee:	80 71       	andi	r24, 0x10	; 16
    36f0:	99 27       	eor	r25, r25

000036f2 <.Loc.541>:
    36f2:	00 97       	sbiw	r24, 0x00	; 0
    36f4:	09 f0       	breq	.+2      	; 0x36f8 <L0^A+0x2>

000036f6 <L0^A>:
    36f6:	11 c1       	rjmp	.+546    	; 0x391a <.L173>
    36f8:	9e 01       	movw	r18, r28
    36fa:	2d 5e       	subi	r18, 0xED	; 237
    36fc:	3e 4f       	sbci	r19, 0xFE	; 254
    36fe:	80 e0       	ldi	r24, 0x00	; 0
    3700:	90 e0       	ldi	r25, 0x00	; 0
    3702:	a0 ef       	ldi	r26, 0xF0	; 240
    3704:	b1 e4       	ldi	r27, 0x41	; 65
    3706:	f9 01       	movw	r30, r18
    3708:	80 83       	st	Z, r24
    370a:	91 83       	std	Z+1, r25	; 0x01
    370c:	a2 83       	std	Z+2, r26	; 0x02
    370e:	b3 83       	std	Z+3, r27	; 0x03

00003710 <.LBB284>:
	__tmp = ((F_CPU) / 4e3) * __ms;
    3710:	8e 01       	movw	r16, r28
    3712:	09 5e       	subi	r16, 0xE9	; 233
    3714:	1e 4f       	sbci	r17, 0xFE	; 254
    3716:	ce 01       	movw	r24, r28
    3718:	8d 5e       	subi	r24, 0xED	; 237
    371a:	9e 4f       	sbci	r25, 0xFE	; 254
    371c:	20 e0       	ldi	r18, 0x00	; 0
    371e:	30 e0       	ldi	r19, 0x00	; 0
    3720:	4a e7       	ldi	r20, 0x7A	; 122
    3722:	55 e4       	ldi	r21, 0x45	; 69
    3724:	dc 01       	movw	r26, r24
    3726:	6d 91       	ld	r22, X+
    3728:	7d 91       	ld	r23, X+
    372a:	8d 91       	ld	r24, X+
    372c:	9c 91       	ld	r25, X
    372e:	0e 94 2a 28 	call	0x5054	; 0x5054 <__mulsf3>
    3732:	c5 5b       	subi	r28, 0xB5	; 181
    3734:	dc 4f       	sbci	r29, 0xFC	; 252
    3736:	68 83       	st	Y, r22
    3738:	79 83       	std	Y+1, r23	; 0x01
    373a:	8a 83       	std	Y+2, r24	; 0x02
    373c:	9b 83       	std	Y+3, r25	; 0x03
    373e:	cb 54       	subi	r28, 0x4B	; 75
    3740:	d3 40       	sbci	r29, 0x03	; 3
    3742:	c5 5b       	subi	r28, 0xB5	; 181
    3744:	dc 4f       	sbci	r29, 0xFC	; 252
    3746:	88 81       	ld	r24, Y
    3748:	99 81       	ldd	r25, Y+1	; 0x01
    374a:	aa 81       	ldd	r26, Y+2	; 0x02
    374c:	bb 81       	ldd	r27, Y+3	; 0x03
    374e:	cb 54       	subi	r28, 0x4B	; 75
    3750:	d3 40       	sbci	r29, 0x03	; 3
    3752:	f8 01       	movw	r30, r16
    3754:	80 83       	st	Z, r24
    3756:	91 83       	std	Z+1, r25	; 0x01
    3758:	a2 83       	std	Z+2, r26	; 0x02
    375a:	b3 83       	std	Z+3, r27	; 0x03

0000375c <.Loc.543>:
	if (__tmp < 1.0)
    375c:	ce 01       	movw	r24, r28
    375e:	89 5e       	subi	r24, 0xE9	; 233
    3760:	9e 4f       	sbci	r25, 0xFE	; 254
    3762:	20 e0       	ldi	r18, 0x00	; 0
    3764:	30 e0       	ldi	r19, 0x00	; 0
    3766:	40 e8       	ldi	r20, 0x80	; 128
    3768:	5f e3       	ldi	r21, 0x3F	; 63
    376a:	dc 01       	movw	r26, r24
    376c:	6d 91       	ld	r22, X+
    376e:	7d 91       	ld	r23, X+
    3770:	8d 91       	ld	r24, X+
    3772:	9c 91       	ld	r25, X
    3774:	0e 94 a4 27 	call	0x4f48	; 0x4f48 <__cmpsf2>
    3778:	88 23       	and	r24, r24
    377a:	4c f4       	brge	.+18     	; 0x378e <.L369>

0000377c <.Loc.544>:
		__ticks = 1;
    377c:	ce 01       	movw	r24, r28
    377e:	85 5e       	subi	r24, 0xE5	; 229
    3780:	9e 4f       	sbci	r25, 0xFE	; 254
    3782:	21 e0       	ldi	r18, 0x01	; 1
    3784:	30 e0       	ldi	r19, 0x00	; 0
    3786:	fc 01       	movw	r30, r24
    3788:	31 83       	std	Z+1, r19	; 0x01
    378a:	20 83       	st	Z, r18
    378c:	a5 c0       	rjmp	.+330    	; 0x38d8 <.L184>

0000378e <.L369>:
	else if (__tmp > 65535)
    378e:	ce 01       	movw	r24, r28
    3790:	89 5e       	subi	r24, 0xE9	; 233
    3792:	9e 4f       	sbci	r25, 0xFE	; 254
    3794:	20 e0       	ldi	r18, 0x00	; 0
    3796:	3f ef       	ldi	r19, 0xFF	; 255
    3798:	4f e7       	ldi	r20, 0x7F	; 127
    379a:	57 e4       	ldi	r21, 0x47	; 71
    379c:	dc 01       	movw	r26, r24
    379e:	6d 91       	ld	r22, X+
    37a0:	7d 91       	ld	r23, X+
    37a2:	8d 91       	ld	r24, X+
    37a4:	9c 91       	ld	r25, X
    37a6:	0e 94 25 28 	call	0x504a	; 0x504a <__gesf2>
    37aa:	88 23       	and	r24, r24
    37ac:	09 f0       	breq	.+2      	; 0x37b0 <L0^A>

000037ae <L0^A>:
    37ae:	0c f4       	brge	.+2      	; 0x37b2 <.Loc.546>

000037b0 <L0^A>:
    37b0:	75 c0       	rjmp	.+234    	; 0x389c <.L370>

000037b2 <.Loc.546>:
		__ticks = (uint16_t) (__ms * 10.0);
    37b2:	ce 01       	movw	r24, r28
    37b4:	8d 5e       	subi	r24, 0xED	; 237
    37b6:	9e 4f       	sbci	r25, 0xFE	; 254
    37b8:	20 e0       	ldi	r18, 0x00	; 0
    37ba:	30 e0       	ldi	r19, 0x00	; 0
    37bc:	40 e2       	ldi	r20, 0x20	; 32
    37be:	51 e4       	ldi	r21, 0x41	; 65
    37c0:	fc 01       	movw	r30, r24
    37c2:	60 81       	ld	r22, Z
    37c4:	71 81       	ldd	r23, Z+1	; 0x01
    37c6:	82 81       	ldd	r24, Z+2	; 0x02
    37c8:	93 81       	ldd	r25, Z+3	; 0x03
    37ca:	0e 94 2a 28 	call	0x5054	; 0x5054 <__mulsf3>
    37ce:	c1 5b       	subi	r28, 0xB1	; 177
    37d0:	dc 4f       	sbci	r29, 0xFC	; 252
    37d2:	68 83       	st	Y, r22
    37d4:	79 83       	std	Y+1, r23	; 0x01
    37d6:	8a 83       	std	Y+2, r24	; 0x02
    37d8:	9b 83       	std	Y+3, r25	; 0x03
    37da:	cf 54       	subi	r28, 0x4F	; 79
    37dc:	d3 40       	sbci	r29, 0x03	; 3
    37de:	c1 5b       	subi	r28, 0xB1	; 177
    37e0:	dc 4f       	sbci	r29, 0xFC	; 252
    37e2:	88 81       	ld	r24, Y
    37e4:	99 81       	ldd	r25, Y+1	; 0x01
    37e6:	aa 81       	ldd	r26, Y+2	; 0x02
    37e8:	bb 81       	ldd	r27, Y+3	; 0x03
    37ea:	cf 54       	subi	r28, 0x4F	; 79
    37ec:	d3 40       	sbci	r29, 0x03	; 3
    37ee:	cd 5f       	subi	r28, 0xFD	; 253
    37f0:	dd 4f       	sbci	r29, 0xFD	; 253
    37f2:	88 83       	st	Y, r24
    37f4:	99 83       	std	Y+1, r25	; 0x01
    37f6:	aa 83       	std	Y+2, r26	; 0x02
    37f8:	bb 83       	std	Y+3, r27	; 0x03
    37fa:	c3 50       	subi	r28, 0x03	; 3
    37fc:	d2 40       	sbci	r29, 0x02	; 2

000037fe <.Loc.547>:
    37fe:	8e 01       	movw	r16, r28
    3800:	05 5e       	subi	r16, 0xE5	; 229
    3802:	1e 4f       	sbci	r17, 0xFE	; 254
    3804:	cd 5f       	subi	r28, 0xFD	; 253
    3806:	dd 4f       	sbci	r29, 0xFD	; 253
    3808:	68 81       	ld	r22, Y
    380a:	79 81       	ldd	r23, Y+1	; 0x01
    380c:	8a 81       	ldd	r24, Y+2	; 0x02
    380e:	9b 81       	ldd	r25, Y+3	; 0x03
    3810:	c3 50       	subi	r28, 0x03	; 3
    3812:	d2 40       	sbci	r29, 0x02	; 2
    3814:	0e 94 a9 27 	call	0x4f52	; 0x4f52 <__fixunssfsi>
    3818:	cd 5a       	subi	r28, 0xAD	; 173
    381a:	dc 4f       	sbci	r29, 0xFC	; 252
    381c:	68 83       	st	Y, r22
    381e:	79 83       	std	Y+1, r23	; 0x01
    3820:	8a 83       	std	Y+2, r24	; 0x02
    3822:	9b 83       	std	Y+3, r25	; 0x03
    3824:	c3 55       	subi	r28, 0x53	; 83
    3826:	d3 40       	sbci	r29, 0x03	; 3
    3828:	cd 5a       	subi	r28, 0xAD	; 173
    382a:	dc 4f       	sbci	r29, 0xFC	; 252
    382c:	e8 81       	ld	r30, Y
    382e:	f9 81       	ldd	r31, Y+1	; 0x01
    3830:	c3 55       	subi	r28, 0x53	; 83
    3832:	d3 40       	sbci	r29, 0x03	; 3
    3834:	d8 01       	movw	r26, r16
    3836:	11 96       	adiw	r26, 0x01	; 1
    3838:	fc 93       	st	X, r31
    383a:	ee 93       	st	-X, r30

0000383c <.Loc.548>:
		while(__ticks)
    383c:	26 c0       	rjmp	.+76     	; 0x388a <.L187>

0000383e <.L188>:
    383e:	ce 01       	movw	r24, r28
    3840:	83 5e       	subi	r24, 0xE3	; 227
    3842:	9e 4f       	sbci	r25, 0xFE	; 254
    3844:	20 e9       	ldi	r18, 0x90	; 144
    3846:	31 e0       	ldi	r19, 0x01	; 1
    3848:	dc 01       	movw	r26, r24
    384a:	2d 93       	st	X+, r18
    384c:	3c 93       	st	X, r19

0000384e <.LBB286>:
    384e:	ce 01       	movw	r24, r28
    3850:	83 5e       	subi	r24, 0xE3	; 227
    3852:	9e 4f       	sbci	r25, 0xFE	; 254
    3854:	fc 01       	movw	r30, r24
    3856:	80 81       	ld	r24, Z
    3858:	91 81       	ldd	r25, Z+1	; 0x01

0000385a <.L1^B53>:
    385a:	01 97       	sbiw	r24, 0x01	; 1
    385c:	f1 f7       	brne	.-4      	; 0x385a <.L1^B53>
    385e:	9e 01       	movw	r18, r28
    3860:	23 5e       	subi	r18, 0xE3	; 227
    3862:	3e 4f       	sbci	r19, 0xFE	; 254
    3864:	d9 01       	movw	r26, r18
    3866:	8d 93       	st	X+, r24
    3868:	9c 93       	st	X, r25

0000386a <.Loc.550>:
	...

0000386c <.LBE286>:
			__ticks --;
    386c:	ce 01       	movw	r24, r28
    386e:	85 5e       	subi	r24, 0xE5	; 229
    3870:	9e 4f       	sbci	r25, 0xFE	; 254
    3872:	9e 01       	movw	r18, r28
    3874:	25 5e       	subi	r18, 0xE5	; 229
    3876:	3e 4f       	sbci	r19, 0xFE	; 254
    3878:	f9 01       	movw	r30, r18
    387a:	20 81       	ld	r18, Z
    387c:	31 81       	ldd	r19, Z+1	; 0x01
    387e:	21 50       	subi	r18, 0x01	; 1
    3880:	31 09       	sbc	r19, r1
    3882:	dc 01       	movw	r26, r24
    3884:	11 96       	adiw	r26, 0x01	; 1
    3886:	3c 93       	st	X, r19
    3888:	2e 93       	st	-X, r18

0000388a <.L187>:
		while(__ticks)
    388a:	ce 01       	movw	r24, r28
    388c:	85 5e       	subi	r24, 0xE5	; 229
    388e:	9e 4f       	sbci	r25, 0xFE	; 254
    3890:	fc 01       	movw	r30, r24
    3892:	80 81       	ld	r24, Z
    3894:	91 81       	ldd	r25, Z+1	; 0x01
    3896:	00 97       	sbiw	r24, 0x00	; 0
    3898:	91 f6       	brne	.-92     	; 0x383e <.L188>

0000389a <.Loc.553>:
		return;
    389a:	3a c0       	rjmp	.+116    	; 0x3910 <.L189>

0000389c <.L370>:
		__ticks = (uint16_t)__tmp;
    389c:	8e 01       	movw	r16, r28
    389e:	05 5e       	subi	r16, 0xE5	; 229
    38a0:	1e 4f       	sbci	r17, 0xFE	; 254
    38a2:	ce 01       	movw	r24, r28
    38a4:	89 5e       	subi	r24, 0xE9	; 233
    38a6:	9e 4f       	sbci	r25, 0xFE	; 254
    38a8:	dc 01       	movw	r26, r24
    38aa:	6d 91       	ld	r22, X+
    38ac:	7d 91       	ld	r23, X+
    38ae:	8d 91       	ld	r24, X+
    38b0:	9c 91       	ld	r25, X
    38b2:	0e 94 a9 27 	call	0x4f52	; 0x4f52 <__fixunssfsi>
    38b6:	c9 5a       	subi	r28, 0xA9	; 169
    38b8:	dc 4f       	sbci	r29, 0xFC	; 252
    38ba:	68 83       	st	Y, r22
    38bc:	79 83       	std	Y+1, r23	; 0x01
    38be:	8a 83       	std	Y+2, r24	; 0x02
    38c0:	9b 83       	std	Y+3, r25	; 0x03
    38c2:	c7 55       	subi	r28, 0x57	; 87
    38c4:	d3 40       	sbci	r29, 0x03	; 3
    38c6:	c9 5a       	subi	r28, 0xA9	; 169
    38c8:	dc 4f       	sbci	r29, 0xFC	; 252
    38ca:	88 81       	ld	r24, Y
    38cc:	99 81       	ldd	r25, Y+1	; 0x01
    38ce:	c7 55       	subi	r28, 0x57	; 87
    38d0:	d3 40       	sbci	r29, 0x03	; 3
    38d2:	f8 01       	movw	r30, r16
    38d4:	91 83       	std	Z+1, r25	; 0x01
    38d6:	80 83       	st	Z, r24

000038d8 <.L184>:
    38d8:	ce 01       	movw	r24, r28
    38da:	81 5e       	subi	r24, 0xE1	; 225
    38dc:	9e 4f       	sbci	r25, 0xFE	; 254
    38de:	9e 01       	movw	r18, r28
    38e0:	25 5e       	subi	r18, 0xE5	; 229
    38e2:	3e 4f       	sbci	r19, 0xFE	; 254
    38e4:	d9 01       	movw	r26, r18
    38e6:	2d 91       	ld	r18, X+
    38e8:	3c 91       	ld	r19, X
    38ea:	fc 01       	movw	r30, r24
    38ec:	31 83       	std	Z+1, r19	; 0x01
    38ee:	20 83       	st	Z, r18

000038f0 <.LBB288>:
    38f0:	ce 01       	movw	r24, r28
    38f2:	81 5e       	subi	r24, 0xE1	; 225
    38f4:	9e 4f       	sbci	r25, 0xFE	; 254
    38f6:	dc 01       	movw	r26, r24
    38f8:	8d 91       	ld	r24, X+
    38fa:	9c 91       	ld	r25, X
    38fc:	11 97       	sbiw	r26, 0x01	; 1

000038fe <.L1^B54>:
    38fe:	01 97       	sbiw	r24, 0x01	; 1
    3900:	f1 f7       	brne	.-4      	; 0x38fe <.L1^B54>
    3902:	9e 01       	movw	r18, r28
    3904:	21 5e       	subi	r18, 0xE1	; 225
    3906:	3e 4f       	sbci	r19, 0xFE	; 254
    3908:	f9 01       	movw	r30, r18
    390a:	91 83       	std	Z+1, r25	; 0x01
    390c:	80 83       	st	Z, r24

0000390e <.Loc.556>:
	...

00003910 <.L189>:
                {
                    DEBOUNCE;
                    rotatiey++;                     // optellen van rotaties y-as //
    3910:	8b 81       	ldd	r24, Y+3	; 0x03
    3912:	9c 81       	ldd	r25, Y+4	; 0x04
    3914:	01 96       	adiw	r24, 0x01	; 1
    3916:	9c 83       	std	Y+4, r25	; 0x04
    3918:	8b 83       	std	Y+3, r24	; 0x03

0000391a <.L173>:
                }
            }
            if (x == rotatiex)                // rotaties met coordinaten vergelijken van de x-as //
    391a:	2d 81       	ldd	r18, Y+5	; 0x05
    391c:	3e 81       	ldd	r19, Y+6	; 0x06
    391e:	89 81       	ldd	r24, Y+1	; 0x01
    3920:	9a 81       	ldd	r25, Y+2	; 0x02
    3922:	28 17       	cp	r18, r24
    3924:	39 07       	cpc	r19, r25
    3926:	39 f4       	brne	.+14     	; 0x3936 <.L190>

00003928 <.Loc.559>:
            {
                h_bridge_set_percentage(0);         // h brug van de x-as uit //
    3928:	80 e0       	ldi	r24, 0x00	; 0
    392a:	0e 94 9b 01 	call	0x336	; 0x336 <h_bridge_set_percentage>

0000392e <.Loc.560>:
                xKlaar = 1;
    392e:	81 e0       	ldi	r24, 0x01	; 1
    3930:	90 e0       	ldi	r25, 0x00	; 0
    3932:	98 8b       	std	Y+16, r25	; 0x10
    3934:	8f 87       	std	Y+15, r24	; 0x0f

00003936 <.L190>:
            }
            if (y == rotatiey)                // rotaties met coordinaten vergalijken van de y-as //
    3936:	2f 81       	ldd	r18, Y+7	; 0x07
    3938:	38 85       	ldd	r19, Y+8	; 0x08
    393a:	8b 81       	ldd	r24, Y+3	; 0x03
    393c:	9c 81       	ldd	r25, Y+4	; 0x04
    393e:	28 17       	cp	r18, r24
    3940:	39 07       	cpc	r19, r25
    3942:	41 f4       	brne	.+16     	; 0x3954 <.L191>

00003944 <.Loc.562>:
            {
                h_bridge_set_percentage2(0);        // h brug van de y-as uit //
    3944:	80 e0       	ldi	r24, 0x00	; 0
    3946:	90 e0       	ldi	r25, 0x00	; 0
    3948:	0e 94 f3 02 	call	0x5e6	; 0x5e6 <h_bridge_set_percentage2>

0000394c <.Loc.563>:
                yKlaar = 1;
    394c:	81 e0       	ldi	r24, 0x01	; 1
    394e:	90 e0       	ldi	r25, 0x00	; 0
    3950:	9a 8b       	std	Y+18, r25	; 0x12
    3952:	89 8b       	std	Y+17, r24	; 0x11

00003954 <.L191>:
            }
            if (rotatiex == 2)                      // limit switch wordt niet geregistreerd wanneer die ingedrukt wordt gehouden x-as //
    3954:	89 81       	ldd	r24, Y+1	; 0x01
    3956:	9a 81       	ldd	r25, Y+2	; 0x02
    3958:	82 30       	cpi	r24, 0x02	; 2
    395a:	91 05       	cpc	r25, r1
    395c:	11 f4       	brne	.+4      	; 0x3962 <.L192>

0000395e <.Loc.565>:
            {
                knop_ingedruktx = 0;
    395e:	1a 86       	std	Y+10, r1	; 0x0a
    3960:	19 86       	std	Y+9, r1	; 0x09

00003962 <.L192>:
            }
            if (rotatiey == 2)                      // limit switch wordt niet geregistreerd wanneer die ingedrukt wordt gehouden y-as //
    3962:	8b 81       	ldd	r24, Y+3	; 0x03
    3964:	9c 81       	ldd	r25, Y+4	; 0x04
    3966:	82 30       	cpi	r24, 0x02	; 2
    3968:	91 05       	cpc	r25, r1
    396a:	11 f4       	brne	.+4      	; 0x3970 <.L193>

0000396c <.Loc.567>:
            {
                knop_ingedrukty = 0;
    396c:	1c 86       	std	Y+12, r1	; 0x0c
    396e:	1b 86       	std	Y+11, r1	; 0x0b

00003970 <.L193>:
            }
            if ((PINK & (1<<PK0)) && knop_ingedruktx == 0)   // limit switch zet de h brug op de x-as uit //
    3970:	86 e0       	ldi	r24, 0x06	; 6
    3972:	91 e0       	ldi	r25, 0x01	; 1
    3974:	dc 01       	movw	r26, r24
    3976:	8c 91       	ld	r24, X

00003978 <.Loc.569>:
    3978:	88 2f       	mov	r24, r24
    397a:	90 e0       	ldi	r25, 0x00	; 0
    397c:	81 70       	andi	r24, 0x01	; 1
    397e:	99 27       	eor	r25, r25

00003980 <.Loc.570>:
    3980:	00 97       	sbiw	r24, 0x00	; 0
    3982:	09 f4       	brne	.+2      	; 0x3986 <.Loc.571>

00003984 <L0^A>:
    3984:	17 c1       	rjmp	.+558    	; 0x3bb4 <.L194>

00003986 <.Loc.571>:
    3986:	89 85       	ldd	r24, Y+9	; 0x09
    3988:	9a 85       	ldd	r25, Y+10	; 0x0a
    398a:	00 97       	sbiw	r24, 0x00	; 0
    398c:	09 f0       	breq	.+2      	; 0x3990 <L0^A+0x2>

0000398e <L0^A>:
    398e:	12 c1       	rjmp	.+548    	; 0x3bb4 <.L194>
    3990:	9e 01       	movw	r18, r28
    3992:	2f 5d       	subi	r18, 0xDF	; 223
    3994:	3e 4f       	sbci	r19, 0xFE	; 254
    3996:	80 e0       	ldi	r24, 0x00	; 0
    3998:	90 e0       	ldi	r25, 0x00	; 0
    399a:	a0 ef       	ldi	r26, 0xF0	; 240
    399c:	b1 e4       	ldi	r27, 0x41	; 65
    399e:	f9 01       	movw	r30, r18
    39a0:	80 83       	st	Z, r24
    39a2:	91 83       	std	Z+1, r25	; 0x01
    39a4:	a2 83       	std	Z+2, r26	; 0x02
    39a6:	b3 83       	std	Z+3, r27	; 0x03

000039a8 <.LBB290>:
	__tmp = ((F_CPU) / 4e3) * __ms;
    39a8:	8e 01       	movw	r16, r28
    39aa:	0b 5d       	subi	r16, 0xDB	; 219
    39ac:	1e 4f       	sbci	r17, 0xFE	; 254
    39ae:	ce 01       	movw	r24, r28
    39b0:	8f 5d       	subi	r24, 0xDF	; 223
    39b2:	9e 4f       	sbci	r25, 0xFE	; 254
    39b4:	20 e0       	ldi	r18, 0x00	; 0
    39b6:	30 e0       	ldi	r19, 0x00	; 0
    39b8:	4a e7       	ldi	r20, 0x7A	; 122
    39ba:	55 e4       	ldi	r21, 0x45	; 69
    39bc:	dc 01       	movw	r26, r24
    39be:	6d 91       	ld	r22, X+
    39c0:	7d 91       	ld	r23, X+
    39c2:	8d 91       	ld	r24, X+
    39c4:	9c 91       	ld	r25, X
    39c6:	0e 94 2a 28 	call	0x5054	; 0x5054 <__mulsf3>
    39ca:	c5 5a       	subi	r28, 0xA5	; 165
    39cc:	dc 4f       	sbci	r29, 0xFC	; 252
    39ce:	68 83       	st	Y, r22
    39d0:	79 83       	std	Y+1, r23	; 0x01
    39d2:	8a 83       	std	Y+2, r24	; 0x02
    39d4:	9b 83       	std	Y+3, r25	; 0x03
    39d6:	cb 55       	subi	r28, 0x5B	; 91
    39d8:	d3 40       	sbci	r29, 0x03	; 3
    39da:	c5 5a       	subi	r28, 0xA5	; 165
    39dc:	dc 4f       	sbci	r29, 0xFC	; 252
    39de:	88 81       	ld	r24, Y
    39e0:	99 81       	ldd	r25, Y+1	; 0x01
    39e2:	aa 81       	ldd	r26, Y+2	; 0x02
    39e4:	bb 81       	ldd	r27, Y+3	; 0x03
    39e6:	cb 55       	subi	r28, 0x5B	; 91
    39e8:	d3 40       	sbci	r29, 0x03	; 3
    39ea:	f8 01       	movw	r30, r16
    39ec:	80 83       	st	Z, r24
    39ee:	91 83       	std	Z+1, r25	; 0x01
    39f0:	a2 83       	std	Z+2, r26	; 0x02
    39f2:	b3 83       	std	Z+3, r27	; 0x03

000039f4 <.Loc.573>:
	if (__tmp < 1.0)
    39f4:	ce 01       	movw	r24, r28
    39f6:	8b 5d       	subi	r24, 0xDB	; 219
    39f8:	9e 4f       	sbci	r25, 0xFE	; 254
    39fa:	20 e0       	ldi	r18, 0x00	; 0
    39fc:	30 e0       	ldi	r19, 0x00	; 0
    39fe:	40 e8       	ldi	r20, 0x80	; 128
    3a00:	5f e3       	ldi	r21, 0x3F	; 63
    3a02:	dc 01       	movw	r26, r24
    3a04:	6d 91       	ld	r22, X+
    3a06:	7d 91       	ld	r23, X+
    3a08:	8d 91       	ld	r24, X+
    3a0a:	9c 91       	ld	r25, X
    3a0c:	0e 94 a4 27 	call	0x4f48	; 0x4f48 <__cmpsf2>
    3a10:	88 23       	and	r24, r24
    3a12:	4c f4       	brge	.+18     	; 0x3a26 <.L371>

00003a14 <.Loc.574>:
		__ticks = 1;
    3a14:	ce 01       	movw	r24, r28
    3a16:	87 5d       	subi	r24, 0xD7	; 215
    3a18:	9e 4f       	sbci	r25, 0xFE	; 254
    3a1a:	21 e0       	ldi	r18, 0x01	; 1
    3a1c:	30 e0       	ldi	r19, 0x00	; 0
    3a1e:	fc 01       	movw	r30, r24
    3a20:	31 83       	std	Z+1, r19	; 0x01
    3a22:	20 83       	st	Z, r18
    3a24:	a5 c0       	rjmp	.+330    	; 0x3b70 <.L197>

00003a26 <.L371>:
	else if (__tmp > 65535)
    3a26:	ce 01       	movw	r24, r28
    3a28:	8b 5d       	subi	r24, 0xDB	; 219
    3a2a:	9e 4f       	sbci	r25, 0xFE	; 254
    3a2c:	20 e0       	ldi	r18, 0x00	; 0
    3a2e:	3f ef       	ldi	r19, 0xFF	; 255
    3a30:	4f e7       	ldi	r20, 0x7F	; 127
    3a32:	57 e4       	ldi	r21, 0x47	; 71
    3a34:	dc 01       	movw	r26, r24
    3a36:	6d 91       	ld	r22, X+
    3a38:	7d 91       	ld	r23, X+
    3a3a:	8d 91       	ld	r24, X+
    3a3c:	9c 91       	ld	r25, X
    3a3e:	0e 94 25 28 	call	0x504a	; 0x504a <__gesf2>
    3a42:	88 23       	and	r24, r24
    3a44:	09 f0       	breq	.+2      	; 0x3a48 <L0^A>

00003a46 <L0^A>:
    3a46:	0c f4       	brge	.+2      	; 0x3a4a <.Loc.576>

00003a48 <L0^A>:
    3a48:	75 c0       	rjmp	.+234    	; 0x3b34 <.L372>

00003a4a <.Loc.576>:
		__ticks = (uint16_t) (__ms * 10.0);
    3a4a:	ce 01       	movw	r24, r28
    3a4c:	8f 5d       	subi	r24, 0xDF	; 223
    3a4e:	9e 4f       	sbci	r25, 0xFE	; 254
    3a50:	20 e0       	ldi	r18, 0x00	; 0
    3a52:	30 e0       	ldi	r19, 0x00	; 0
    3a54:	40 e2       	ldi	r20, 0x20	; 32
    3a56:	51 e4       	ldi	r21, 0x41	; 65
    3a58:	fc 01       	movw	r30, r24
    3a5a:	60 81       	ld	r22, Z
    3a5c:	71 81       	ldd	r23, Z+1	; 0x01
    3a5e:	82 81       	ldd	r24, Z+2	; 0x02
    3a60:	93 81       	ldd	r25, Z+3	; 0x03
    3a62:	0e 94 2a 28 	call	0x5054	; 0x5054 <__mulsf3>
    3a66:	c1 5a       	subi	r28, 0xA1	; 161
    3a68:	dc 4f       	sbci	r29, 0xFC	; 252
    3a6a:	68 83       	st	Y, r22
    3a6c:	79 83       	std	Y+1, r23	; 0x01
    3a6e:	8a 83       	std	Y+2, r24	; 0x02
    3a70:	9b 83       	std	Y+3, r25	; 0x03
    3a72:	cf 55       	subi	r28, 0x5F	; 95
    3a74:	d3 40       	sbci	r29, 0x03	; 3
    3a76:	c1 5a       	subi	r28, 0xA1	; 161
    3a78:	dc 4f       	sbci	r29, 0xFC	; 252
    3a7a:	88 81       	ld	r24, Y
    3a7c:	99 81       	ldd	r25, Y+1	; 0x01
    3a7e:	aa 81       	ldd	r26, Y+2	; 0x02
    3a80:	bb 81       	ldd	r27, Y+3	; 0x03
    3a82:	cf 55       	subi	r28, 0x5F	; 95
    3a84:	d3 40       	sbci	r29, 0x03	; 3
    3a86:	c9 5f       	subi	r28, 0xF9	; 249
    3a88:	dd 4f       	sbci	r29, 0xFD	; 253
    3a8a:	88 83       	st	Y, r24
    3a8c:	99 83       	std	Y+1, r25	; 0x01
    3a8e:	aa 83       	std	Y+2, r26	; 0x02
    3a90:	bb 83       	std	Y+3, r27	; 0x03
    3a92:	c7 50       	subi	r28, 0x07	; 7
    3a94:	d2 40       	sbci	r29, 0x02	; 2

00003a96 <.Loc.577>:
    3a96:	8e 01       	movw	r16, r28
    3a98:	07 5d       	subi	r16, 0xD7	; 215
    3a9a:	1e 4f       	sbci	r17, 0xFE	; 254
    3a9c:	c9 5f       	subi	r28, 0xF9	; 249
    3a9e:	dd 4f       	sbci	r29, 0xFD	; 253
    3aa0:	68 81       	ld	r22, Y
    3aa2:	79 81       	ldd	r23, Y+1	; 0x01
    3aa4:	8a 81       	ldd	r24, Y+2	; 0x02
    3aa6:	9b 81       	ldd	r25, Y+3	; 0x03
    3aa8:	c7 50       	subi	r28, 0x07	; 7
    3aaa:	d2 40       	sbci	r29, 0x02	; 2
    3aac:	0e 94 a9 27 	call	0x4f52	; 0x4f52 <__fixunssfsi>
    3ab0:	cd 59       	subi	r28, 0x9D	; 157
    3ab2:	dc 4f       	sbci	r29, 0xFC	; 252
    3ab4:	68 83       	st	Y, r22
    3ab6:	79 83       	std	Y+1, r23	; 0x01
    3ab8:	8a 83       	std	Y+2, r24	; 0x02
    3aba:	9b 83       	std	Y+3, r25	; 0x03
    3abc:	c3 56       	subi	r28, 0x63	; 99
    3abe:	d3 40       	sbci	r29, 0x03	; 3
    3ac0:	cd 59       	subi	r28, 0x9D	; 157
    3ac2:	dc 4f       	sbci	r29, 0xFC	; 252
    3ac4:	e8 81       	ld	r30, Y
    3ac6:	f9 81       	ldd	r31, Y+1	; 0x01
    3ac8:	c3 56       	subi	r28, 0x63	; 99
    3aca:	d3 40       	sbci	r29, 0x03	; 3
    3acc:	d8 01       	movw	r26, r16
    3ace:	11 96       	adiw	r26, 0x01	; 1
    3ad0:	fc 93       	st	X, r31
    3ad2:	ee 93       	st	-X, r30

00003ad4 <.Loc.578>:
		while(__ticks)
    3ad4:	26 c0       	rjmp	.+76     	; 0x3b22 <.L200>

00003ad6 <.L201>:
    3ad6:	ce 01       	movw	r24, r28
    3ad8:	85 5d       	subi	r24, 0xD5	; 213
    3ada:	9e 4f       	sbci	r25, 0xFE	; 254
    3adc:	20 e9       	ldi	r18, 0x90	; 144
    3ade:	31 e0       	ldi	r19, 0x01	; 1
    3ae0:	dc 01       	movw	r26, r24
    3ae2:	2d 93       	st	X+, r18
    3ae4:	3c 93       	st	X, r19

00003ae6 <.LBB292>:
    3ae6:	ce 01       	movw	r24, r28
    3ae8:	85 5d       	subi	r24, 0xD5	; 213
    3aea:	9e 4f       	sbci	r25, 0xFE	; 254
    3aec:	fc 01       	movw	r30, r24
    3aee:	80 81       	ld	r24, Z
    3af0:	91 81       	ldd	r25, Z+1	; 0x01

00003af2 <.L1^B55>:
    3af2:	01 97       	sbiw	r24, 0x01	; 1
    3af4:	f1 f7       	brne	.-4      	; 0x3af2 <.L1^B55>
    3af6:	9e 01       	movw	r18, r28
    3af8:	25 5d       	subi	r18, 0xD5	; 213
    3afa:	3e 4f       	sbci	r19, 0xFE	; 254
    3afc:	d9 01       	movw	r26, r18
    3afe:	8d 93       	st	X+, r24
    3b00:	9c 93       	st	X, r25

00003b02 <.Loc.580>:
	...

00003b04 <.LBE292>:
			__ticks --;
    3b04:	ce 01       	movw	r24, r28
    3b06:	87 5d       	subi	r24, 0xD7	; 215
    3b08:	9e 4f       	sbci	r25, 0xFE	; 254
    3b0a:	9e 01       	movw	r18, r28
    3b0c:	27 5d       	subi	r18, 0xD7	; 215
    3b0e:	3e 4f       	sbci	r19, 0xFE	; 254
    3b10:	f9 01       	movw	r30, r18
    3b12:	20 81       	ld	r18, Z
    3b14:	31 81       	ldd	r19, Z+1	; 0x01
    3b16:	21 50       	subi	r18, 0x01	; 1
    3b18:	31 09       	sbc	r19, r1
    3b1a:	dc 01       	movw	r26, r24
    3b1c:	11 96       	adiw	r26, 0x01	; 1
    3b1e:	3c 93       	st	X, r19
    3b20:	2e 93       	st	-X, r18

00003b22 <.L200>:
		while(__ticks)
    3b22:	ce 01       	movw	r24, r28
    3b24:	87 5d       	subi	r24, 0xD7	; 215
    3b26:	9e 4f       	sbci	r25, 0xFE	; 254
    3b28:	fc 01       	movw	r30, r24
    3b2a:	80 81       	ld	r24, Z
    3b2c:	91 81       	ldd	r25, Z+1	; 0x01
    3b2e:	00 97       	sbiw	r24, 0x00	; 0
    3b30:	91 f6       	brne	.-92     	; 0x3ad6 <.L201>

00003b32 <.Loc.583>:
		return;
    3b32:	39 c0       	rjmp	.+114    	; 0x3ba6 <.L202>

00003b34 <.L372>:
		__ticks = (uint16_t)__tmp;
    3b34:	8e 01       	movw	r16, r28
    3b36:	07 5d       	subi	r16, 0xD7	; 215
    3b38:	1e 4f       	sbci	r17, 0xFE	; 254
    3b3a:	ce 01       	movw	r24, r28
    3b3c:	8b 5d       	subi	r24, 0xDB	; 219
    3b3e:	9e 4f       	sbci	r25, 0xFE	; 254
    3b40:	dc 01       	movw	r26, r24
    3b42:	6d 91       	ld	r22, X+
    3b44:	7d 91       	ld	r23, X+
    3b46:	8d 91       	ld	r24, X+
    3b48:	9c 91       	ld	r25, X
    3b4a:	0e 94 a9 27 	call	0x4f52	; 0x4f52 <__fixunssfsi>
    3b4e:	c9 59       	subi	r28, 0x99	; 153
    3b50:	dc 4f       	sbci	r29, 0xFC	; 252
    3b52:	68 83       	st	Y, r22
    3b54:	79 83       	std	Y+1, r23	; 0x01
    3b56:	8a 83       	std	Y+2, r24	; 0x02
    3b58:	9b 83       	std	Y+3, r25	; 0x03
    3b5a:	c7 56       	subi	r28, 0x67	; 103
    3b5c:	d3 40       	sbci	r29, 0x03	; 3
    3b5e:	c9 59       	subi	r28, 0x99	; 153
    3b60:	dc 4f       	sbci	r29, 0xFC	; 252
    3b62:	88 81       	ld	r24, Y
    3b64:	99 81       	ldd	r25, Y+1	; 0x01
    3b66:	c7 56       	subi	r28, 0x67	; 103
    3b68:	d3 40       	sbci	r29, 0x03	; 3
    3b6a:	f8 01       	movw	r30, r16
    3b6c:	91 83       	std	Z+1, r25	; 0x01
    3b6e:	80 83       	st	Z, r24

00003b70 <.L197>:
    3b70:	ce 01       	movw	r24, r28
    3b72:	83 5d       	subi	r24, 0xD3	; 211
    3b74:	9e 4f       	sbci	r25, 0xFE	; 254
    3b76:	9e 01       	movw	r18, r28
    3b78:	27 5d       	subi	r18, 0xD7	; 215
    3b7a:	3e 4f       	sbci	r19, 0xFE	; 254
    3b7c:	d9 01       	movw	r26, r18
    3b7e:	2d 91       	ld	r18, X+
    3b80:	3c 91       	ld	r19, X
    3b82:	fc 01       	movw	r30, r24
    3b84:	31 83       	std	Z+1, r19	; 0x01
    3b86:	20 83       	st	Z, r18

00003b88 <.LBB294>:
    3b88:	ce 01       	movw	r24, r28
    3b8a:	83 5d       	subi	r24, 0xD3	; 211
    3b8c:	9e 4f       	sbci	r25, 0xFE	; 254
    3b8e:	dc 01       	movw	r26, r24
    3b90:	8d 91       	ld	r24, X+
    3b92:	9c 91       	ld	r25, X

00003b94 <.L1^B56>:
    3b94:	01 97       	sbiw	r24, 0x01	; 1
    3b96:	f1 f7       	brne	.-4      	; 0x3b94 <.L1^B56>
    3b98:	9e 01       	movw	r18, r28
    3b9a:	23 5d       	subi	r18, 0xD3	; 211
    3b9c:	3e 4f       	sbci	r19, 0xFE	; 254
    3b9e:	f9 01       	movw	r30, r18
    3ba0:	91 83       	std	Z+1, r25	; 0x01
    3ba2:	80 83       	st	Z, r24

00003ba4 <.Loc.586>:
	...

00003ba6 <.L202>:
            {
                DEBOUNCE;
                h_bridge_set_percentage(0);         // h brug uit na limit switch x-as //
    3ba6:	80 e0       	ldi	r24, 0x00	; 0
    3ba8:	0e 94 9b 01 	call	0x336	; 0x336 <h_bridge_set_percentage>

00003bac <.Loc.588>:
                knop_ingedruktx = 1;
    3bac:	81 e0       	ldi	r24, 0x01	; 1
    3bae:	90 e0       	ldi	r25, 0x00	; 0
    3bb0:	9a 87       	std	Y+10, r25	; 0x0a
    3bb2:	89 87       	std	Y+9, r24	; 0x09

00003bb4 <.L194>:
            }
            if ((PINK & (1<<PK1)) && knop_ingedrukty == 0)   // limit switch zet de h brug op de y-as uit //
    3bb4:	86 e0       	ldi	r24, 0x06	; 6
    3bb6:	91 e0       	ldi	r25, 0x01	; 1
    3bb8:	dc 01       	movw	r26, r24
    3bba:	8c 91       	ld	r24, X

00003bbc <.Loc.590>:
    3bbc:	88 2f       	mov	r24, r24
    3bbe:	90 e0       	ldi	r25, 0x00	; 0
    3bc0:	82 70       	andi	r24, 0x02	; 2
    3bc2:	99 27       	eor	r25, r25

00003bc4 <.Loc.591>:
    3bc4:	00 97       	sbiw	r24, 0x00	; 0
    3bc6:	09 f4       	brne	.+2      	; 0x3bca <.Loc.592>

00003bc8 <L0^A>:
    3bc8:	18 c1       	rjmp	.+560    	; 0x3dfa <.L203>

00003bca <.Loc.592>:
    3bca:	8b 85       	ldd	r24, Y+11	; 0x0b
    3bcc:	9c 85       	ldd	r25, Y+12	; 0x0c
    3bce:	00 97       	sbiw	r24, 0x00	; 0
    3bd0:	09 f0       	breq	.+2      	; 0x3bd4 <L0^A+0x2>

00003bd2 <L0^A>:
    3bd2:	13 c1       	rjmp	.+550    	; 0x3dfa <.L203>
    3bd4:	9e 01       	movw	r18, r28
    3bd6:	21 5d       	subi	r18, 0xD1	; 209
    3bd8:	3e 4f       	sbci	r19, 0xFE	; 254
    3bda:	80 e0       	ldi	r24, 0x00	; 0
    3bdc:	90 e0       	ldi	r25, 0x00	; 0
    3bde:	a0 ef       	ldi	r26, 0xF0	; 240
    3be0:	b1 e4       	ldi	r27, 0x41	; 65
    3be2:	f9 01       	movw	r30, r18
    3be4:	80 83       	st	Z, r24
    3be6:	91 83       	std	Z+1, r25	; 0x01
    3be8:	a2 83       	std	Z+2, r26	; 0x02
    3bea:	b3 83       	std	Z+3, r27	; 0x03

00003bec <.LBB296>:
	__tmp = ((F_CPU) / 4e3) * __ms;
    3bec:	8e 01       	movw	r16, r28
    3bee:	0d 5c       	subi	r16, 0xCD	; 205
    3bf0:	1e 4f       	sbci	r17, 0xFE	; 254
    3bf2:	ce 01       	movw	r24, r28
    3bf4:	81 5d       	subi	r24, 0xD1	; 209
    3bf6:	9e 4f       	sbci	r25, 0xFE	; 254
    3bf8:	20 e0       	ldi	r18, 0x00	; 0
    3bfa:	30 e0       	ldi	r19, 0x00	; 0
    3bfc:	4a e7       	ldi	r20, 0x7A	; 122
    3bfe:	55 e4       	ldi	r21, 0x45	; 69
    3c00:	dc 01       	movw	r26, r24
    3c02:	6d 91       	ld	r22, X+
    3c04:	7d 91       	ld	r23, X+
    3c06:	8d 91       	ld	r24, X+
    3c08:	9c 91       	ld	r25, X
    3c0a:	0e 94 2a 28 	call	0x5054	; 0x5054 <__mulsf3>
    3c0e:	c5 59       	subi	r28, 0x95	; 149
    3c10:	dc 4f       	sbci	r29, 0xFC	; 252
    3c12:	68 83       	st	Y, r22
    3c14:	79 83       	std	Y+1, r23	; 0x01
    3c16:	8a 83       	std	Y+2, r24	; 0x02
    3c18:	9b 83       	std	Y+3, r25	; 0x03
    3c1a:	cb 56       	subi	r28, 0x6B	; 107
    3c1c:	d3 40       	sbci	r29, 0x03	; 3
    3c1e:	c5 59       	subi	r28, 0x95	; 149
    3c20:	dc 4f       	sbci	r29, 0xFC	; 252
    3c22:	88 81       	ld	r24, Y
    3c24:	99 81       	ldd	r25, Y+1	; 0x01
    3c26:	aa 81       	ldd	r26, Y+2	; 0x02
    3c28:	bb 81       	ldd	r27, Y+3	; 0x03
    3c2a:	cb 56       	subi	r28, 0x6B	; 107
    3c2c:	d3 40       	sbci	r29, 0x03	; 3
    3c2e:	f8 01       	movw	r30, r16
    3c30:	80 83       	st	Z, r24
    3c32:	91 83       	std	Z+1, r25	; 0x01
    3c34:	a2 83       	std	Z+2, r26	; 0x02
    3c36:	b3 83       	std	Z+3, r27	; 0x03

00003c38 <.Loc.594>:
	if (__tmp < 1.0)
    3c38:	ce 01       	movw	r24, r28
    3c3a:	8d 5c       	subi	r24, 0xCD	; 205
    3c3c:	9e 4f       	sbci	r25, 0xFE	; 254
    3c3e:	20 e0       	ldi	r18, 0x00	; 0
    3c40:	30 e0       	ldi	r19, 0x00	; 0
    3c42:	40 e8       	ldi	r20, 0x80	; 128
    3c44:	5f e3       	ldi	r21, 0x3F	; 63
    3c46:	dc 01       	movw	r26, r24
    3c48:	6d 91       	ld	r22, X+
    3c4a:	7d 91       	ld	r23, X+
    3c4c:	8d 91       	ld	r24, X+
    3c4e:	9c 91       	ld	r25, X
    3c50:	0e 94 a4 27 	call	0x4f48	; 0x4f48 <__cmpsf2>
    3c54:	88 23       	and	r24, r24
    3c56:	4c f4       	brge	.+18     	; 0x3c6a <.L373>

00003c58 <.Loc.595>:
		__ticks = 1;
    3c58:	ce 01       	movw	r24, r28
    3c5a:	89 5c       	subi	r24, 0xC9	; 201
    3c5c:	9e 4f       	sbci	r25, 0xFE	; 254
    3c5e:	21 e0       	ldi	r18, 0x01	; 1
    3c60:	30 e0       	ldi	r19, 0x00	; 0
    3c62:	fc 01       	movw	r30, r24
    3c64:	31 83       	std	Z+1, r19	; 0x01
    3c66:	20 83       	st	Z, r18
    3c68:	a5 c0       	rjmp	.+330    	; 0x3db4 <.L206>

00003c6a <.L373>:
	else if (__tmp > 65535)
    3c6a:	ce 01       	movw	r24, r28
    3c6c:	8d 5c       	subi	r24, 0xCD	; 205
    3c6e:	9e 4f       	sbci	r25, 0xFE	; 254
    3c70:	20 e0       	ldi	r18, 0x00	; 0
    3c72:	3f ef       	ldi	r19, 0xFF	; 255
    3c74:	4f e7       	ldi	r20, 0x7F	; 127
    3c76:	57 e4       	ldi	r21, 0x47	; 71
    3c78:	dc 01       	movw	r26, r24
    3c7a:	6d 91       	ld	r22, X+
    3c7c:	7d 91       	ld	r23, X+
    3c7e:	8d 91       	ld	r24, X+
    3c80:	9c 91       	ld	r25, X
    3c82:	0e 94 25 28 	call	0x504a	; 0x504a <__gesf2>
    3c86:	88 23       	and	r24, r24
    3c88:	09 f0       	breq	.+2      	; 0x3c8c <L0^A>

00003c8a <L0^A>:
    3c8a:	0c f4       	brge	.+2      	; 0x3c8e <.Loc.597>

00003c8c <L0^A>:
    3c8c:	75 c0       	rjmp	.+234    	; 0x3d78 <.L374>

00003c8e <.Loc.597>:
		__ticks = (uint16_t) (__ms * 10.0);
    3c8e:	ce 01       	movw	r24, r28
    3c90:	81 5d       	subi	r24, 0xD1	; 209
    3c92:	9e 4f       	sbci	r25, 0xFE	; 254
    3c94:	20 e0       	ldi	r18, 0x00	; 0
    3c96:	30 e0       	ldi	r19, 0x00	; 0
    3c98:	40 e2       	ldi	r20, 0x20	; 32
    3c9a:	51 e4       	ldi	r21, 0x41	; 65
    3c9c:	fc 01       	movw	r30, r24
    3c9e:	60 81       	ld	r22, Z
    3ca0:	71 81       	ldd	r23, Z+1	; 0x01
    3ca2:	82 81       	ldd	r24, Z+2	; 0x02
    3ca4:	93 81       	ldd	r25, Z+3	; 0x03
    3ca6:	0e 94 2a 28 	call	0x5054	; 0x5054 <__mulsf3>
    3caa:	c1 59       	subi	r28, 0x91	; 145
    3cac:	dc 4f       	sbci	r29, 0xFC	; 252
    3cae:	68 83       	st	Y, r22
    3cb0:	79 83       	std	Y+1, r23	; 0x01
    3cb2:	8a 83       	std	Y+2, r24	; 0x02
    3cb4:	9b 83       	std	Y+3, r25	; 0x03
    3cb6:	cf 56       	subi	r28, 0x6F	; 111
    3cb8:	d3 40       	sbci	r29, 0x03	; 3
    3cba:	c1 59       	subi	r28, 0x91	; 145
    3cbc:	dc 4f       	sbci	r29, 0xFC	; 252
    3cbe:	88 81       	ld	r24, Y
    3cc0:	99 81       	ldd	r25, Y+1	; 0x01
    3cc2:	aa 81       	ldd	r26, Y+2	; 0x02
    3cc4:	bb 81       	ldd	r27, Y+3	; 0x03
    3cc6:	cf 56       	subi	r28, 0x6F	; 111
    3cc8:	d3 40       	sbci	r29, 0x03	; 3
    3cca:	c5 5f       	subi	r28, 0xF5	; 245
    3ccc:	dd 4f       	sbci	r29, 0xFD	; 253
    3cce:	88 83       	st	Y, r24
    3cd0:	99 83       	std	Y+1, r25	; 0x01
    3cd2:	aa 83       	std	Y+2, r26	; 0x02
    3cd4:	bb 83       	std	Y+3, r27	; 0x03
    3cd6:	cb 50       	subi	r28, 0x0B	; 11
    3cd8:	d2 40       	sbci	r29, 0x02	; 2

00003cda <.Loc.598>:
    3cda:	8e 01       	movw	r16, r28
    3cdc:	09 5c       	subi	r16, 0xC9	; 201
    3cde:	1e 4f       	sbci	r17, 0xFE	; 254
    3ce0:	c5 5f       	subi	r28, 0xF5	; 245
    3ce2:	dd 4f       	sbci	r29, 0xFD	; 253
    3ce4:	68 81       	ld	r22, Y
    3ce6:	79 81       	ldd	r23, Y+1	; 0x01
    3ce8:	8a 81       	ldd	r24, Y+2	; 0x02
    3cea:	9b 81       	ldd	r25, Y+3	; 0x03
    3cec:	cb 50       	subi	r28, 0x0B	; 11
    3cee:	d2 40       	sbci	r29, 0x02	; 2
    3cf0:	0e 94 a9 27 	call	0x4f52	; 0x4f52 <__fixunssfsi>
    3cf4:	cd 58       	subi	r28, 0x8D	; 141
    3cf6:	dc 4f       	sbci	r29, 0xFC	; 252
    3cf8:	68 83       	st	Y, r22
    3cfa:	79 83       	std	Y+1, r23	; 0x01
    3cfc:	8a 83       	std	Y+2, r24	; 0x02
    3cfe:	9b 83       	std	Y+3, r25	; 0x03
    3d00:	c3 57       	subi	r28, 0x73	; 115
    3d02:	d3 40       	sbci	r29, 0x03	; 3
    3d04:	cd 58       	subi	r28, 0x8D	; 141
    3d06:	dc 4f       	sbci	r29, 0xFC	; 252
    3d08:	e8 81       	ld	r30, Y
    3d0a:	f9 81       	ldd	r31, Y+1	; 0x01
    3d0c:	c3 57       	subi	r28, 0x73	; 115
    3d0e:	d3 40       	sbci	r29, 0x03	; 3
    3d10:	d8 01       	movw	r26, r16
    3d12:	11 96       	adiw	r26, 0x01	; 1
    3d14:	fc 93       	st	X, r31
    3d16:	ee 93       	st	-X, r30

00003d18 <.Loc.599>:
		while(__ticks)
    3d18:	26 c0       	rjmp	.+76     	; 0x3d66 <.L209>

00003d1a <.L210>:
    3d1a:	ce 01       	movw	r24, r28
    3d1c:	87 5c       	subi	r24, 0xC7	; 199
    3d1e:	9e 4f       	sbci	r25, 0xFE	; 254
    3d20:	20 e9       	ldi	r18, 0x90	; 144
    3d22:	31 e0       	ldi	r19, 0x01	; 1
    3d24:	dc 01       	movw	r26, r24
    3d26:	2d 93       	st	X+, r18
    3d28:	3c 93       	st	X, r19

00003d2a <.LBB298>:
    3d2a:	ce 01       	movw	r24, r28
    3d2c:	87 5c       	subi	r24, 0xC7	; 199
    3d2e:	9e 4f       	sbci	r25, 0xFE	; 254
    3d30:	fc 01       	movw	r30, r24
    3d32:	80 81       	ld	r24, Z
    3d34:	91 81       	ldd	r25, Z+1	; 0x01

00003d36 <.L1^B57>:
    3d36:	01 97       	sbiw	r24, 0x01	; 1
    3d38:	f1 f7       	brne	.-4      	; 0x3d36 <.L1^B57>
    3d3a:	9e 01       	movw	r18, r28
    3d3c:	27 5c       	subi	r18, 0xC7	; 199
    3d3e:	3e 4f       	sbci	r19, 0xFE	; 254
    3d40:	d9 01       	movw	r26, r18
    3d42:	8d 93       	st	X+, r24
    3d44:	9c 93       	st	X, r25

00003d46 <.Loc.601>:
	...

00003d48 <.LBE298>:
			__ticks --;
    3d48:	ce 01       	movw	r24, r28
    3d4a:	89 5c       	subi	r24, 0xC9	; 201
    3d4c:	9e 4f       	sbci	r25, 0xFE	; 254
    3d4e:	9e 01       	movw	r18, r28
    3d50:	29 5c       	subi	r18, 0xC9	; 201
    3d52:	3e 4f       	sbci	r19, 0xFE	; 254
    3d54:	f9 01       	movw	r30, r18
    3d56:	20 81       	ld	r18, Z
    3d58:	31 81       	ldd	r19, Z+1	; 0x01
    3d5a:	21 50       	subi	r18, 0x01	; 1
    3d5c:	31 09       	sbc	r19, r1
    3d5e:	dc 01       	movw	r26, r24
    3d60:	11 96       	adiw	r26, 0x01	; 1
    3d62:	3c 93       	st	X, r19
    3d64:	2e 93       	st	-X, r18

00003d66 <.L209>:
		while(__ticks)
    3d66:	ce 01       	movw	r24, r28
    3d68:	89 5c       	subi	r24, 0xC9	; 201
    3d6a:	9e 4f       	sbci	r25, 0xFE	; 254
    3d6c:	fc 01       	movw	r30, r24
    3d6e:	80 81       	ld	r24, Z
    3d70:	91 81       	ldd	r25, Z+1	; 0x01
    3d72:	00 97       	sbiw	r24, 0x00	; 0
    3d74:	91 f6       	brne	.-92     	; 0x3d1a <.L210>

00003d76 <.Loc.604>:
		return;
    3d76:	39 c0       	rjmp	.+114    	; 0x3dea <.L211>

00003d78 <.L374>:
		__ticks = (uint16_t)__tmp;
    3d78:	8e 01       	movw	r16, r28
    3d7a:	09 5c       	subi	r16, 0xC9	; 201
    3d7c:	1e 4f       	sbci	r17, 0xFE	; 254
    3d7e:	ce 01       	movw	r24, r28
    3d80:	8d 5c       	subi	r24, 0xCD	; 205
    3d82:	9e 4f       	sbci	r25, 0xFE	; 254
    3d84:	dc 01       	movw	r26, r24
    3d86:	6d 91       	ld	r22, X+
    3d88:	7d 91       	ld	r23, X+
    3d8a:	8d 91       	ld	r24, X+
    3d8c:	9c 91       	ld	r25, X
    3d8e:	0e 94 a9 27 	call	0x4f52	; 0x4f52 <__fixunssfsi>
    3d92:	c9 58       	subi	r28, 0x89	; 137
    3d94:	dc 4f       	sbci	r29, 0xFC	; 252
    3d96:	68 83       	st	Y, r22
    3d98:	79 83       	std	Y+1, r23	; 0x01
    3d9a:	8a 83       	std	Y+2, r24	; 0x02
    3d9c:	9b 83       	std	Y+3, r25	; 0x03
    3d9e:	c7 57       	subi	r28, 0x77	; 119
    3da0:	d3 40       	sbci	r29, 0x03	; 3
    3da2:	c9 58       	subi	r28, 0x89	; 137
    3da4:	dc 4f       	sbci	r29, 0xFC	; 252
    3da6:	88 81       	ld	r24, Y
    3da8:	99 81       	ldd	r25, Y+1	; 0x01
    3daa:	c7 57       	subi	r28, 0x77	; 119
    3dac:	d3 40       	sbci	r29, 0x03	; 3
    3dae:	f8 01       	movw	r30, r16
    3db0:	91 83       	std	Z+1, r25	; 0x01
    3db2:	80 83       	st	Z, r24

00003db4 <.L206>:
    3db4:	ce 01       	movw	r24, r28
    3db6:	85 5c       	subi	r24, 0xC5	; 197
    3db8:	9e 4f       	sbci	r25, 0xFE	; 254
    3dba:	9e 01       	movw	r18, r28
    3dbc:	29 5c       	subi	r18, 0xC9	; 201
    3dbe:	3e 4f       	sbci	r19, 0xFE	; 254
    3dc0:	d9 01       	movw	r26, r18
    3dc2:	2d 91       	ld	r18, X+
    3dc4:	3c 91       	ld	r19, X
    3dc6:	fc 01       	movw	r30, r24
    3dc8:	31 83       	std	Z+1, r19	; 0x01
    3dca:	20 83       	st	Z, r18

00003dcc <.LBB300>:
    3dcc:	ce 01       	movw	r24, r28
    3dce:	85 5c       	subi	r24, 0xC5	; 197
    3dd0:	9e 4f       	sbci	r25, 0xFE	; 254
    3dd2:	dc 01       	movw	r26, r24
    3dd4:	8d 91       	ld	r24, X+
    3dd6:	9c 91       	ld	r25, X

00003dd8 <.L1^B58>:
    3dd8:	01 97       	sbiw	r24, 0x01	; 1
    3dda:	f1 f7       	brne	.-4      	; 0x3dd8 <.L1^B58>
    3ddc:	9e 01       	movw	r18, r28
    3dde:	25 5c       	subi	r18, 0xC5	; 197
    3de0:	3e 4f       	sbci	r19, 0xFE	; 254
    3de2:	f9 01       	movw	r30, r18
    3de4:	91 83       	std	Z+1, r25	; 0x01
    3de6:	80 83       	st	Z, r24

00003de8 <.Loc.607>:
	...

00003dea <.L211>:
            {
                DEBOUNCE;
                h_bridge_set_percentage2(0);        // h brug uit na limit switch y-as //
    3dea:	80 e0       	ldi	r24, 0x00	; 0
    3dec:	90 e0       	ldi	r25, 0x00	; 0
    3dee:	0e 94 f3 02 	call	0x5e6	; 0x5e6 <h_bridge_set_percentage2>

00003df2 <.Loc.609>:
                knop_ingedrukty = 1;
    3df2:	81 e0       	ldi	r24, 0x01	; 1
    3df4:	90 e0       	ldi	r25, 0x00	; 0
    3df6:	9c 87       	std	Y+12, r25	; 0x0c
    3df8:	8b 87       	std	Y+11, r24	; 0x0b

00003dfa <.L203>:
            }

            if ((PINF & (1<<PF2)) != 0)                 // reset knop //
    3dfa:	8f e2       	ldi	r24, 0x2F	; 47
    3dfc:	90 e0       	ldi	r25, 0x00	; 0
    3dfe:	dc 01       	movw	r26, r24
    3e00:	8c 91       	ld	r24, X

00003e02 <.Loc.611>:
    3e02:	88 2f       	mov	r24, r24
    3e04:	90 e0       	ldi	r25, 0x00	; 0
    3e06:	84 70       	andi	r24, 0x04	; 4
    3e08:	99 27       	eor	r25, r25

00003e0a <.Loc.612>:
    3e0a:	00 97       	sbiw	r24, 0x00	; 0
    3e0c:	09 f4       	brne	.+2      	; 0x3e10 <L0^A+0x2>

00003e0e <L0^A>:
    3e0e:	2c c2       	rjmp	.+1112   	; 0x4268 <.L212>
    3e10:	9e 01       	movw	r18, r28
    3e12:	23 5c       	subi	r18, 0xC3	; 195
    3e14:	3e 4f       	sbci	r19, 0xFE	; 254
    3e16:	80 e0       	ldi	r24, 0x00	; 0
    3e18:	90 e0       	ldi	r25, 0x00	; 0
    3e1a:	a0 ef       	ldi	r26, 0xF0	; 240
    3e1c:	b1 e4       	ldi	r27, 0x41	; 65
    3e1e:	f9 01       	movw	r30, r18
    3e20:	80 83       	st	Z, r24
    3e22:	91 83       	std	Z+1, r25	; 0x01
    3e24:	a2 83       	std	Z+2, r26	; 0x02
    3e26:	b3 83       	std	Z+3, r27	; 0x03

00003e28 <.LBB302>:
	__tmp = ((F_CPU) / 4e3) * __ms;
    3e28:	8e 01       	movw	r16, r28
    3e2a:	0f 5b       	subi	r16, 0xBF	; 191
    3e2c:	1e 4f       	sbci	r17, 0xFE	; 254
    3e2e:	ce 01       	movw	r24, r28
    3e30:	83 5c       	subi	r24, 0xC3	; 195
    3e32:	9e 4f       	sbci	r25, 0xFE	; 254
    3e34:	20 e0       	ldi	r18, 0x00	; 0
    3e36:	30 e0       	ldi	r19, 0x00	; 0
    3e38:	4a e7       	ldi	r20, 0x7A	; 122
    3e3a:	55 e4       	ldi	r21, 0x45	; 69
    3e3c:	dc 01       	movw	r26, r24
    3e3e:	6d 91       	ld	r22, X+
    3e40:	7d 91       	ld	r23, X+
    3e42:	8d 91       	ld	r24, X+
    3e44:	9c 91       	ld	r25, X
    3e46:	0e 94 2a 28 	call	0x5054	; 0x5054 <__mulsf3>
    3e4a:	c5 58       	subi	r28, 0x85	; 133
    3e4c:	dc 4f       	sbci	r29, 0xFC	; 252
    3e4e:	68 83       	st	Y, r22
    3e50:	79 83       	std	Y+1, r23	; 0x01
    3e52:	8a 83       	std	Y+2, r24	; 0x02
    3e54:	9b 83       	std	Y+3, r25	; 0x03
    3e56:	cb 57       	subi	r28, 0x7B	; 123
    3e58:	d3 40       	sbci	r29, 0x03	; 3
    3e5a:	c5 58       	subi	r28, 0x85	; 133
    3e5c:	dc 4f       	sbci	r29, 0xFC	; 252
    3e5e:	88 81       	ld	r24, Y
    3e60:	99 81       	ldd	r25, Y+1	; 0x01
    3e62:	aa 81       	ldd	r26, Y+2	; 0x02
    3e64:	bb 81       	ldd	r27, Y+3	; 0x03
    3e66:	cb 57       	subi	r28, 0x7B	; 123
    3e68:	d3 40       	sbci	r29, 0x03	; 3
    3e6a:	f8 01       	movw	r30, r16
    3e6c:	80 83       	st	Z, r24
    3e6e:	91 83       	std	Z+1, r25	; 0x01
    3e70:	a2 83       	std	Z+2, r26	; 0x02
    3e72:	b3 83       	std	Z+3, r27	; 0x03

00003e74 <.Loc.614>:
	if (__tmp < 1.0)
    3e74:	ce 01       	movw	r24, r28
    3e76:	8f 5b       	subi	r24, 0xBF	; 191
    3e78:	9e 4f       	sbci	r25, 0xFE	; 254
    3e7a:	20 e0       	ldi	r18, 0x00	; 0
    3e7c:	30 e0       	ldi	r19, 0x00	; 0
    3e7e:	40 e8       	ldi	r20, 0x80	; 128
    3e80:	5f e3       	ldi	r21, 0x3F	; 63
    3e82:	dc 01       	movw	r26, r24
    3e84:	6d 91       	ld	r22, X+
    3e86:	7d 91       	ld	r23, X+
    3e88:	8d 91       	ld	r24, X+
    3e8a:	9c 91       	ld	r25, X
    3e8c:	0e 94 a4 27 	call	0x4f48	; 0x4f48 <__cmpsf2>
    3e90:	88 23       	and	r24, r24
    3e92:	4c f4       	brge	.+18     	; 0x3ea6 <.L375>

00003e94 <.Loc.615>:
		__ticks = 1;
    3e94:	ce 01       	movw	r24, r28
    3e96:	8b 5b       	subi	r24, 0xBB	; 187
    3e98:	9e 4f       	sbci	r25, 0xFE	; 254
    3e9a:	21 e0       	ldi	r18, 0x01	; 1
    3e9c:	30 e0       	ldi	r19, 0x00	; 0
    3e9e:	fc 01       	movw	r30, r24
    3ea0:	31 83       	std	Z+1, r19	; 0x01
    3ea2:	20 83       	st	Z, r18
    3ea4:	a5 c0       	rjmp	.+330    	; 0x3ff0 <.L215>

00003ea6 <.L375>:
	else if (__tmp > 65535)
    3ea6:	ce 01       	movw	r24, r28
    3ea8:	8f 5b       	subi	r24, 0xBF	; 191
    3eaa:	9e 4f       	sbci	r25, 0xFE	; 254
    3eac:	20 e0       	ldi	r18, 0x00	; 0
    3eae:	3f ef       	ldi	r19, 0xFF	; 255
    3eb0:	4f e7       	ldi	r20, 0x7F	; 127
    3eb2:	57 e4       	ldi	r21, 0x47	; 71
    3eb4:	dc 01       	movw	r26, r24
    3eb6:	6d 91       	ld	r22, X+
    3eb8:	7d 91       	ld	r23, X+
    3eba:	8d 91       	ld	r24, X+
    3ebc:	9c 91       	ld	r25, X
    3ebe:	0e 94 25 28 	call	0x504a	; 0x504a <__gesf2>
    3ec2:	88 23       	and	r24, r24
    3ec4:	09 f0       	breq	.+2      	; 0x3ec8 <L0^A>

00003ec6 <L0^A>:
    3ec6:	0c f4       	brge	.+2      	; 0x3eca <.Loc.617>

00003ec8 <L0^A>:
    3ec8:	75 c0       	rjmp	.+234    	; 0x3fb4 <.L376>

00003eca <.Loc.617>:
		__ticks = (uint16_t) (__ms * 10.0);
    3eca:	ce 01       	movw	r24, r28
    3ecc:	83 5c       	subi	r24, 0xC3	; 195
    3ece:	9e 4f       	sbci	r25, 0xFE	; 254
    3ed0:	20 e0       	ldi	r18, 0x00	; 0
    3ed2:	30 e0       	ldi	r19, 0x00	; 0
    3ed4:	40 e2       	ldi	r20, 0x20	; 32
    3ed6:	51 e4       	ldi	r21, 0x41	; 65
    3ed8:	fc 01       	movw	r30, r24
    3eda:	60 81       	ld	r22, Z
    3edc:	71 81       	ldd	r23, Z+1	; 0x01
    3ede:	82 81       	ldd	r24, Z+2	; 0x02
    3ee0:	93 81       	ldd	r25, Z+3	; 0x03
    3ee2:	0e 94 2a 28 	call	0x5054	; 0x5054 <__mulsf3>
    3ee6:	c1 58       	subi	r28, 0x81	; 129
    3ee8:	dc 4f       	sbci	r29, 0xFC	; 252
    3eea:	68 83       	st	Y, r22
    3eec:	79 83       	std	Y+1, r23	; 0x01
    3eee:	8a 83       	std	Y+2, r24	; 0x02
    3ef0:	9b 83       	std	Y+3, r25	; 0x03
    3ef2:	cf 57       	subi	r28, 0x7F	; 127
    3ef4:	d3 40       	sbci	r29, 0x03	; 3
    3ef6:	c1 58       	subi	r28, 0x81	; 129
    3ef8:	dc 4f       	sbci	r29, 0xFC	; 252
    3efa:	88 81       	ld	r24, Y
    3efc:	99 81       	ldd	r25, Y+1	; 0x01
    3efe:	aa 81       	ldd	r26, Y+2	; 0x02
    3f00:	bb 81       	ldd	r27, Y+3	; 0x03
    3f02:	cf 57       	subi	r28, 0x7F	; 127
    3f04:	d3 40       	sbci	r29, 0x03	; 3
    3f06:	c1 5f       	subi	r28, 0xF1	; 241
    3f08:	dd 4f       	sbci	r29, 0xFD	; 253
    3f0a:	88 83       	st	Y, r24
    3f0c:	99 83       	std	Y+1, r25	; 0x01
    3f0e:	aa 83       	std	Y+2, r26	; 0x02
    3f10:	bb 83       	std	Y+3, r27	; 0x03
    3f12:	cf 50       	subi	r28, 0x0F	; 15
    3f14:	d2 40       	sbci	r29, 0x02	; 2

00003f16 <.Loc.618>:
    3f16:	8e 01       	movw	r16, r28
    3f18:	0b 5b       	subi	r16, 0xBB	; 187
    3f1a:	1e 4f       	sbci	r17, 0xFE	; 254
    3f1c:	c1 5f       	subi	r28, 0xF1	; 241
    3f1e:	dd 4f       	sbci	r29, 0xFD	; 253
    3f20:	68 81       	ld	r22, Y
    3f22:	79 81       	ldd	r23, Y+1	; 0x01
    3f24:	8a 81       	ldd	r24, Y+2	; 0x02
    3f26:	9b 81       	ldd	r25, Y+3	; 0x03
    3f28:	cf 50       	subi	r28, 0x0F	; 15
    3f2a:	d2 40       	sbci	r29, 0x02	; 2
    3f2c:	0e 94 a9 27 	call	0x4f52	; 0x4f52 <__fixunssfsi>
    3f30:	cd 57       	subi	r28, 0x7D	; 125
    3f32:	dc 4f       	sbci	r29, 0xFC	; 252
    3f34:	68 83       	st	Y, r22
    3f36:	79 83       	std	Y+1, r23	; 0x01
    3f38:	8a 83       	std	Y+2, r24	; 0x02
    3f3a:	9b 83       	std	Y+3, r25	; 0x03
    3f3c:	c3 58       	subi	r28, 0x83	; 131
    3f3e:	d3 40       	sbci	r29, 0x03	; 3
    3f40:	cd 57       	subi	r28, 0x7D	; 125
    3f42:	dc 4f       	sbci	r29, 0xFC	; 252
    3f44:	e8 81       	ld	r30, Y
    3f46:	f9 81       	ldd	r31, Y+1	; 0x01
    3f48:	c3 58       	subi	r28, 0x83	; 131
    3f4a:	d3 40       	sbci	r29, 0x03	; 3
    3f4c:	d8 01       	movw	r26, r16
    3f4e:	11 96       	adiw	r26, 0x01	; 1
    3f50:	fc 93       	st	X, r31
    3f52:	ee 93       	st	-X, r30

00003f54 <.Loc.619>:
		while(__ticks)
    3f54:	26 c0       	rjmp	.+76     	; 0x3fa2 <.L218>

00003f56 <.L219>:
    3f56:	ce 01       	movw	r24, r28
    3f58:	89 5b       	subi	r24, 0xB9	; 185
    3f5a:	9e 4f       	sbci	r25, 0xFE	; 254
    3f5c:	20 e9       	ldi	r18, 0x90	; 144
    3f5e:	31 e0       	ldi	r19, 0x01	; 1
    3f60:	dc 01       	movw	r26, r24
    3f62:	2d 93       	st	X+, r18
    3f64:	3c 93       	st	X, r19

00003f66 <.LBB304>:
    3f66:	ce 01       	movw	r24, r28
    3f68:	89 5b       	subi	r24, 0xB9	; 185
    3f6a:	9e 4f       	sbci	r25, 0xFE	; 254
    3f6c:	fc 01       	movw	r30, r24
    3f6e:	80 81       	ld	r24, Z
    3f70:	91 81       	ldd	r25, Z+1	; 0x01

00003f72 <.L1^B59>:
    3f72:	01 97       	sbiw	r24, 0x01	; 1
    3f74:	f1 f7       	brne	.-4      	; 0x3f72 <.L1^B59>
    3f76:	9e 01       	movw	r18, r28
    3f78:	29 5b       	subi	r18, 0xB9	; 185
    3f7a:	3e 4f       	sbci	r19, 0xFE	; 254
    3f7c:	d9 01       	movw	r26, r18
    3f7e:	8d 93       	st	X+, r24
    3f80:	9c 93       	st	X, r25

00003f82 <.Loc.621>:
	...

00003f84 <.LBE304>:
			__ticks --;
    3f84:	ce 01       	movw	r24, r28
    3f86:	8b 5b       	subi	r24, 0xBB	; 187
    3f88:	9e 4f       	sbci	r25, 0xFE	; 254
    3f8a:	9e 01       	movw	r18, r28
    3f8c:	2b 5b       	subi	r18, 0xBB	; 187
    3f8e:	3e 4f       	sbci	r19, 0xFE	; 254
    3f90:	f9 01       	movw	r30, r18
    3f92:	20 81       	ld	r18, Z
    3f94:	31 81       	ldd	r19, Z+1	; 0x01
    3f96:	21 50       	subi	r18, 0x01	; 1
    3f98:	31 09       	sbc	r19, r1
    3f9a:	dc 01       	movw	r26, r24
    3f9c:	11 96       	adiw	r26, 0x01	; 1
    3f9e:	3c 93       	st	X, r19
    3fa0:	2e 93       	st	-X, r18

00003fa2 <.L218>:
		while(__ticks)
    3fa2:	ce 01       	movw	r24, r28
    3fa4:	8b 5b       	subi	r24, 0xBB	; 187
    3fa6:	9e 4f       	sbci	r25, 0xFE	; 254
    3fa8:	fc 01       	movw	r30, r24
    3faa:	80 81       	ld	r24, Z
    3fac:	91 81       	ldd	r25, Z+1	; 0x01
    3fae:	00 97       	sbiw	r24, 0x00	; 0
    3fb0:	91 f6       	brne	.-92     	; 0x3f56 <.L219>

00003fb2 <.Loc.624>:
		return;
    3fb2:	39 c0       	rjmp	.+114    	; 0x4026 <.L220>

00003fb4 <.L376>:
		__ticks = (uint16_t)__tmp;
    3fb4:	8e 01       	movw	r16, r28
    3fb6:	0b 5b       	subi	r16, 0xBB	; 187
    3fb8:	1e 4f       	sbci	r17, 0xFE	; 254
    3fba:	ce 01       	movw	r24, r28
    3fbc:	8f 5b       	subi	r24, 0xBF	; 191
    3fbe:	9e 4f       	sbci	r25, 0xFE	; 254
    3fc0:	dc 01       	movw	r26, r24
    3fc2:	6d 91       	ld	r22, X+
    3fc4:	7d 91       	ld	r23, X+
    3fc6:	8d 91       	ld	r24, X+
    3fc8:	9c 91       	ld	r25, X
    3fca:	0e 94 a9 27 	call	0x4f52	; 0x4f52 <__fixunssfsi>
    3fce:	c9 57       	subi	r28, 0x79	; 121
    3fd0:	dc 4f       	sbci	r29, 0xFC	; 252
    3fd2:	68 83       	st	Y, r22
    3fd4:	79 83       	std	Y+1, r23	; 0x01
    3fd6:	8a 83       	std	Y+2, r24	; 0x02
    3fd8:	9b 83       	std	Y+3, r25	; 0x03
    3fda:	c7 58       	subi	r28, 0x87	; 135
    3fdc:	d3 40       	sbci	r29, 0x03	; 3
    3fde:	c9 57       	subi	r28, 0x79	; 121
    3fe0:	dc 4f       	sbci	r29, 0xFC	; 252
    3fe2:	88 81       	ld	r24, Y
    3fe4:	99 81       	ldd	r25, Y+1	; 0x01
    3fe6:	c7 58       	subi	r28, 0x87	; 135
    3fe8:	d3 40       	sbci	r29, 0x03	; 3
    3fea:	f8 01       	movw	r30, r16
    3fec:	91 83       	std	Z+1, r25	; 0x01
    3fee:	80 83       	st	Z, r24

00003ff0 <.L215>:
    3ff0:	ce 01       	movw	r24, r28
    3ff2:	87 5b       	subi	r24, 0xB7	; 183
    3ff4:	9e 4f       	sbci	r25, 0xFE	; 254
    3ff6:	9e 01       	movw	r18, r28
    3ff8:	2b 5b       	subi	r18, 0xBB	; 187
    3ffa:	3e 4f       	sbci	r19, 0xFE	; 254
    3ffc:	d9 01       	movw	r26, r18
    3ffe:	2d 91       	ld	r18, X+
    4000:	3c 91       	ld	r19, X
    4002:	fc 01       	movw	r30, r24
    4004:	31 83       	std	Z+1, r19	; 0x01
    4006:	20 83       	st	Z, r18

00004008 <.LBB306>:
    4008:	ce 01       	movw	r24, r28
    400a:	87 5b       	subi	r24, 0xB7	; 183
    400c:	9e 4f       	sbci	r25, 0xFE	; 254
    400e:	dc 01       	movw	r26, r24
    4010:	8d 91       	ld	r24, X+
    4012:	9c 91       	ld	r25, X

00004014 <.L1^B60>:
    4014:	01 97       	sbiw	r24, 0x01	; 1
    4016:	f1 f7       	brne	.-4      	; 0x4014 <.L1^B60>
    4018:	9e 01       	movw	r18, r28
    401a:	27 5b       	subi	r18, 0xB7	; 183
    401c:	3e 4f       	sbci	r19, 0xFE	; 254
    401e:	f9 01       	movw	r30, r18
    4020:	91 83       	std	Z+1, r25	; 0x01
    4022:	80 83       	st	Z, r24

00004024 <.Loc.627>:
	...

00004026 <.L220>:
            {
                DEBOUNCE;
                if ((PINF & (1<<PF2)) == 0)
    4026:	8f e2       	ldi	r24, 0x2F	; 47
    4028:	90 e0       	ldi	r25, 0x00	; 0
    402a:	dc 01       	movw	r26, r24
    402c:	8c 91       	ld	r24, X

0000402e <.Loc.629>:
    402e:	88 2f       	mov	r24, r24
    4030:	90 e0       	ldi	r25, 0x00	; 0
    4032:	84 70       	andi	r24, 0x04	; 4
    4034:	99 27       	eor	r25, r25

00004036 <.Loc.630>:
    4036:	00 97       	sbiw	r24, 0x00	; 0
    4038:	09 f0       	breq	.+2      	; 0x403c <L0^A+0x2>

0000403a <L0^A>:
    403a:	16 c1       	rjmp	.+556    	; 0x4268 <.L212>
    403c:	9e 01       	movw	r18, r28
    403e:	25 5b       	subi	r18, 0xB5	; 181
    4040:	3e 4f       	sbci	r19, 0xFE	; 254
    4042:	80 e0       	ldi	r24, 0x00	; 0
    4044:	90 e0       	ldi	r25, 0x00	; 0
    4046:	a0 ef       	ldi	r26, 0xF0	; 240
    4048:	b1 e4       	ldi	r27, 0x41	; 65
    404a:	f9 01       	movw	r30, r18
    404c:	80 83       	st	Z, r24
    404e:	91 83       	std	Z+1, r25	; 0x01
    4050:	a2 83       	std	Z+2, r26	; 0x02
    4052:	b3 83       	std	Z+3, r27	; 0x03

00004054 <.LBB308>:
	__tmp = ((F_CPU) / 4e3) * __ms;
    4054:	8e 01       	movw	r16, r28
    4056:	01 5b       	subi	r16, 0xB1	; 177
    4058:	1e 4f       	sbci	r17, 0xFE	; 254
    405a:	ce 01       	movw	r24, r28
    405c:	85 5b       	subi	r24, 0xB5	; 181
    405e:	9e 4f       	sbci	r25, 0xFE	; 254
    4060:	20 e0       	ldi	r18, 0x00	; 0
    4062:	30 e0       	ldi	r19, 0x00	; 0
    4064:	4a e7       	ldi	r20, 0x7A	; 122
    4066:	55 e4       	ldi	r21, 0x45	; 69
    4068:	dc 01       	movw	r26, r24
    406a:	6d 91       	ld	r22, X+
    406c:	7d 91       	ld	r23, X+
    406e:	8d 91       	ld	r24, X+
    4070:	9c 91       	ld	r25, X
    4072:	0e 94 2a 28 	call	0x5054	; 0x5054 <__mulsf3>
    4076:	c5 57       	subi	r28, 0x75	; 117
    4078:	dc 4f       	sbci	r29, 0xFC	; 252
    407a:	68 83       	st	Y, r22
    407c:	79 83       	std	Y+1, r23	; 0x01
    407e:	8a 83       	std	Y+2, r24	; 0x02
    4080:	9b 83       	std	Y+3, r25	; 0x03
    4082:	cb 58       	subi	r28, 0x8B	; 139
    4084:	d3 40       	sbci	r29, 0x03	; 3
    4086:	c5 57       	subi	r28, 0x75	; 117
    4088:	dc 4f       	sbci	r29, 0xFC	; 252
    408a:	88 81       	ld	r24, Y
    408c:	99 81       	ldd	r25, Y+1	; 0x01
    408e:	aa 81       	ldd	r26, Y+2	; 0x02
    4090:	bb 81       	ldd	r27, Y+3	; 0x03
    4092:	cb 58       	subi	r28, 0x8B	; 139
    4094:	d3 40       	sbci	r29, 0x03	; 3
    4096:	f8 01       	movw	r30, r16
    4098:	80 83       	st	Z, r24
    409a:	91 83       	std	Z+1, r25	; 0x01
    409c:	a2 83       	std	Z+2, r26	; 0x02
    409e:	b3 83       	std	Z+3, r27	; 0x03

000040a0 <.Loc.632>:
	if (__tmp < 1.0)
    40a0:	ce 01       	movw	r24, r28
    40a2:	81 5b       	subi	r24, 0xB1	; 177
    40a4:	9e 4f       	sbci	r25, 0xFE	; 254
    40a6:	20 e0       	ldi	r18, 0x00	; 0
    40a8:	30 e0       	ldi	r19, 0x00	; 0
    40aa:	40 e8       	ldi	r20, 0x80	; 128
    40ac:	5f e3       	ldi	r21, 0x3F	; 63
    40ae:	dc 01       	movw	r26, r24
    40b0:	6d 91       	ld	r22, X+
    40b2:	7d 91       	ld	r23, X+
    40b4:	8d 91       	ld	r24, X+
    40b6:	9c 91       	ld	r25, X
    40b8:	0e 94 a4 27 	call	0x4f48	; 0x4f48 <__cmpsf2>
    40bc:	88 23       	and	r24, r24
    40be:	4c f4       	brge	.+18     	; 0x40d2 <.L377>

000040c0 <.Loc.633>:
		__ticks = 1;
    40c0:	ce 01       	movw	r24, r28
    40c2:	8d 5a       	subi	r24, 0xAD	; 173
    40c4:	9e 4f       	sbci	r25, 0xFE	; 254
    40c6:	21 e0       	ldi	r18, 0x01	; 1
    40c8:	30 e0       	ldi	r19, 0x00	; 0
    40ca:	fc 01       	movw	r30, r24
    40cc:	31 83       	std	Z+1, r19	; 0x01
    40ce:	20 83       	st	Z, r18
    40d0:	a5 c0       	rjmp	.+330    	; 0x421c <.L223>

000040d2 <.L377>:
	else if (__tmp > 65535)
    40d2:	ce 01       	movw	r24, r28
    40d4:	81 5b       	subi	r24, 0xB1	; 177
    40d6:	9e 4f       	sbci	r25, 0xFE	; 254
    40d8:	20 e0       	ldi	r18, 0x00	; 0
    40da:	3f ef       	ldi	r19, 0xFF	; 255
    40dc:	4f e7       	ldi	r20, 0x7F	; 127
    40de:	57 e4       	ldi	r21, 0x47	; 71
    40e0:	dc 01       	movw	r26, r24
    40e2:	6d 91       	ld	r22, X+
    40e4:	7d 91       	ld	r23, X+
    40e6:	8d 91       	ld	r24, X+
    40e8:	9c 91       	ld	r25, X
    40ea:	0e 94 25 28 	call	0x504a	; 0x504a <__gesf2>
    40ee:	88 23       	and	r24, r24
    40f0:	09 f0       	breq	.+2      	; 0x40f4 <L0^A>

000040f2 <L0^A>:
    40f2:	0c f4       	brge	.+2      	; 0x40f6 <.Loc.635>

000040f4 <L0^A>:
    40f4:	75 c0       	rjmp	.+234    	; 0x41e0 <.L378>

000040f6 <.Loc.635>:
		__ticks = (uint16_t) (__ms * 10.0);
    40f6:	ce 01       	movw	r24, r28
    40f8:	85 5b       	subi	r24, 0xB5	; 181
    40fa:	9e 4f       	sbci	r25, 0xFE	; 254
    40fc:	20 e0       	ldi	r18, 0x00	; 0
    40fe:	30 e0       	ldi	r19, 0x00	; 0
    4100:	40 e2       	ldi	r20, 0x20	; 32
    4102:	51 e4       	ldi	r21, 0x41	; 65
    4104:	fc 01       	movw	r30, r24
    4106:	60 81       	ld	r22, Z
    4108:	71 81       	ldd	r23, Z+1	; 0x01
    410a:	82 81       	ldd	r24, Z+2	; 0x02
    410c:	93 81       	ldd	r25, Z+3	; 0x03
    410e:	0e 94 2a 28 	call	0x5054	; 0x5054 <__mulsf3>
    4112:	c1 57       	subi	r28, 0x71	; 113
    4114:	dc 4f       	sbci	r29, 0xFC	; 252
    4116:	68 83       	st	Y, r22
    4118:	79 83       	std	Y+1, r23	; 0x01
    411a:	8a 83       	std	Y+2, r24	; 0x02
    411c:	9b 83       	std	Y+3, r25	; 0x03
    411e:	cf 58       	subi	r28, 0x8F	; 143
    4120:	d3 40       	sbci	r29, 0x03	; 3
    4122:	c1 57       	subi	r28, 0x71	; 113
    4124:	dc 4f       	sbci	r29, 0xFC	; 252
    4126:	88 81       	ld	r24, Y
    4128:	99 81       	ldd	r25, Y+1	; 0x01
    412a:	aa 81       	ldd	r26, Y+2	; 0x02
    412c:	bb 81       	ldd	r27, Y+3	; 0x03
    412e:	cf 58       	subi	r28, 0x8F	; 143
    4130:	d3 40       	sbci	r29, 0x03	; 3
    4132:	cd 5e       	subi	r28, 0xED	; 237
    4134:	dd 4f       	sbci	r29, 0xFD	; 253
    4136:	88 83       	st	Y, r24
    4138:	99 83       	std	Y+1, r25	; 0x01
    413a:	aa 83       	std	Y+2, r26	; 0x02
    413c:	bb 83       	std	Y+3, r27	; 0x03
    413e:	c3 51       	subi	r28, 0x13	; 19
    4140:	d2 40       	sbci	r29, 0x02	; 2

00004142 <.Loc.636>:
    4142:	8e 01       	movw	r16, r28
    4144:	0d 5a       	subi	r16, 0xAD	; 173
    4146:	1e 4f       	sbci	r17, 0xFE	; 254
    4148:	cd 5e       	subi	r28, 0xED	; 237
    414a:	dd 4f       	sbci	r29, 0xFD	; 253
    414c:	68 81       	ld	r22, Y
    414e:	79 81       	ldd	r23, Y+1	; 0x01
    4150:	8a 81       	ldd	r24, Y+2	; 0x02
    4152:	9b 81       	ldd	r25, Y+3	; 0x03
    4154:	c3 51       	subi	r28, 0x13	; 19
    4156:	d2 40       	sbci	r29, 0x02	; 2
    4158:	0e 94 a9 27 	call	0x4f52	; 0x4f52 <__fixunssfsi>
    415c:	cd 56       	subi	r28, 0x6D	; 109
    415e:	dc 4f       	sbci	r29, 0xFC	; 252
    4160:	68 83       	st	Y, r22
    4162:	79 83       	std	Y+1, r23	; 0x01
    4164:	8a 83       	std	Y+2, r24	; 0x02
    4166:	9b 83       	std	Y+3, r25	; 0x03
    4168:	c3 59       	subi	r28, 0x93	; 147
    416a:	d3 40       	sbci	r29, 0x03	; 3
    416c:	cd 56       	subi	r28, 0x6D	; 109
    416e:	dc 4f       	sbci	r29, 0xFC	; 252
    4170:	e8 81       	ld	r30, Y
    4172:	f9 81       	ldd	r31, Y+1	; 0x01
    4174:	c3 59       	subi	r28, 0x93	; 147
    4176:	d3 40       	sbci	r29, 0x03	; 3
    4178:	d8 01       	movw	r26, r16
    417a:	11 96       	adiw	r26, 0x01	; 1
    417c:	fc 93       	st	X, r31
    417e:	ee 93       	st	-X, r30

00004180 <.Loc.637>:
		while(__ticks)
    4180:	26 c0       	rjmp	.+76     	; 0x41ce <.L226>

00004182 <.L227>:
    4182:	ce 01       	movw	r24, r28
    4184:	8b 5a       	subi	r24, 0xAB	; 171
    4186:	9e 4f       	sbci	r25, 0xFE	; 254
    4188:	20 e9       	ldi	r18, 0x90	; 144
    418a:	31 e0       	ldi	r19, 0x01	; 1
    418c:	dc 01       	movw	r26, r24
    418e:	2d 93       	st	X+, r18
    4190:	3c 93       	st	X, r19

00004192 <.LBB310>:
    4192:	ce 01       	movw	r24, r28
    4194:	8b 5a       	subi	r24, 0xAB	; 171
    4196:	9e 4f       	sbci	r25, 0xFE	; 254
    4198:	fc 01       	movw	r30, r24
    419a:	80 81       	ld	r24, Z
    419c:	91 81       	ldd	r25, Z+1	; 0x01

0000419e <.L1^B61>:
    419e:	01 97       	sbiw	r24, 0x01	; 1
    41a0:	f1 f7       	brne	.-4      	; 0x419e <.L1^B61>
    41a2:	9e 01       	movw	r18, r28
    41a4:	2b 5a       	subi	r18, 0xAB	; 171
    41a6:	3e 4f       	sbci	r19, 0xFE	; 254
    41a8:	d9 01       	movw	r26, r18
    41aa:	8d 93       	st	X+, r24
    41ac:	9c 93       	st	X, r25

000041ae <.Loc.639>:
	...

000041b0 <.LBE310>:
			__ticks --;
    41b0:	ce 01       	movw	r24, r28
    41b2:	8d 5a       	subi	r24, 0xAD	; 173
    41b4:	9e 4f       	sbci	r25, 0xFE	; 254
    41b6:	9e 01       	movw	r18, r28
    41b8:	2d 5a       	subi	r18, 0xAD	; 173
    41ba:	3e 4f       	sbci	r19, 0xFE	; 254
    41bc:	f9 01       	movw	r30, r18
    41be:	20 81       	ld	r18, Z
    41c0:	31 81       	ldd	r19, Z+1	; 0x01
    41c2:	21 50       	subi	r18, 0x01	; 1
    41c4:	31 09       	sbc	r19, r1
    41c6:	dc 01       	movw	r26, r24
    41c8:	11 96       	adiw	r26, 0x01	; 1
    41ca:	3c 93       	st	X, r19
    41cc:	2e 93       	st	-X, r18

000041ce <.L226>:
		while(__ticks)
    41ce:	ce 01       	movw	r24, r28
    41d0:	8d 5a       	subi	r24, 0xAD	; 173
    41d2:	9e 4f       	sbci	r25, 0xFE	; 254
    41d4:	fc 01       	movw	r30, r24
    41d6:	80 81       	ld	r24, Z
    41d8:	91 81       	ldd	r25, Z+1	; 0x01
    41da:	00 97       	sbiw	r24, 0x00	; 0
    41dc:	91 f6       	brne	.-92     	; 0x4182 <.L227>

000041de <.Loc.642>:
		return;
    41de:	39 c0       	rjmp	.+114    	; 0x4252 <.L228>

000041e0 <.L378>:
		__ticks = (uint16_t)__tmp;
    41e0:	8e 01       	movw	r16, r28
    41e2:	0d 5a       	subi	r16, 0xAD	; 173
    41e4:	1e 4f       	sbci	r17, 0xFE	; 254
    41e6:	ce 01       	movw	r24, r28
    41e8:	81 5b       	subi	r24, 0xB1	; 177
    41ea:	9e 4f       	sbci	r25, 0xFE	; 254
    41ec:	dc 01       	movw	r26, r24
    41ee:	6d 91       	ld	r22, X+
    41f0:	7d 91       	ld	r23, X+
    41f2:	8d 91       	ld	r24, X+
    41f4:	9c 91       	ld	r25, X
    41f6:	0e 94 a9 27 	call	0x4f52	; 0x4f52 <__fixunssfsi>
    41fa:	c9 56       	subi	r28, 0x69	; 105
    41fc:	dc 4f       	sbci	r29, 0xFC	; 252
    41fe:	68 83       	st	Y, r22
    4200:	79 83       	std	Y+1, r23	; 0x01
    4202:	8a 83       	std	Y+2, r24	; 0x02
    4204:	9b 83       	std	Y+3, r25	; 0x03
    4206:	c7 59       	subi	r28, 0x97	; 151
    4208:	d3 40       	sbci	r29, 0x03	; 3
    420a:	c9 56       	subi	r28, 0x69	; 105
    420c:	dc 4f       	sbci	r29, 0xFC	; 252
    420e:	88 81       	ld	r24, Y
    4210:	99 81       	ldd	r25, Y+1	; 0x01
    4212:	c7 59       	subi	r28, 0x97	; 151
    4214:	d3 40       	sbci	r29, 0x03	; 3
    4216:	f8 01       	movw	r30, r16
    4218:	91 83       	std	Z+1, r25	; 0x01
    421a:	80 83       	st	Z, r24

0000421c <.L223>:
    421c:	ce 01       	movw	r24, r28
    421e:	89 5a       	subi	r24, 0xA9	; 169
    4220:	9e 4f       	sbci	r25, 0xFE	; 254
    4222:	9e 01       	movw	r18, r28
    4224:	2d 5a       	subi	r18, 0xAD	; 173
    4226:	3e 4f       	sbci	r19, 0xFE	; 254
    4228:	d9 01       	movw	r26, r18
    422a:	2d 91       	ld	r18, X+
    422c:	3c 91       	ld	r19, X
    422e:	fc 01       	movw	r30, r24
    4230:	31 83       	std	Z+1, r19	; 0x01
    4232:	20 83       	st	Z, r18

00004234 <.LBB312>:
    4234:	ce 01       	movw	r24, r28
    4236:	89 5a       	subi	r24, 0xA9	; 169
    4238:	9e 4f       	sbci	r25, 0xFE	; 254
    423a:	dc 01       	movw	r26, r24
    423c:	8d 91       	ld	r24, X+
    423e:	9c 91       	ld	r25, X

00004240 <.L1^B62>:
    4240:	01 97       	sbiw	r24, 0x01	; 1
    4242:	f1 f7       	brne	.-4      	; 0x4240 <.L1^B62>
    4244:	9e 01       	movw	r18, r28
    4246:	29 5a       	subi	r18, 0xA9	; 169
    4248:	3e 4f       	sbci	r19, 0xFE	; 254
    424a:	f9 01       	movw	r30, r18
    424c:	91 83       	std	Z+1, r25	; 0x01
    424e:	80 83       	st	Z, r24

00004250 <.Loc.645>:
	...

00004252 <.L228>:
                {
                    DEBOUNCE;
                    h_bridge_set_percentage(-60);           // h brug x-as terug naar begin //
    4252:	84 ec       	ldi	r24, 0xC4	; 196
    4254:	0e 94 9b 01 	call	0x336	; 0x336 <h_bridge_set_percentage>

00004258 <.Loc.647>:
                    h_bridge_set_percentage2(-60);          // h brug y-as terug naar begin //
    4258:	84 ec       	ldi	r24, 0xC4	; 196
    425a:	9f ef       	ldi	r25, 0xFF	; 255
    425c:	0e 94 f3 02 	call	0x5e6	; 0x5e6 <h_bridge_set_percentage2>

00004260 <.Loc.648>:
                    stand = 5;                              // door naar case 5 //
    4260:	85 e0       	ldi	r24, 0x05	; 5
    4262:	90 e0       	ldi	r25, 0x00	; 0
    4264:	9c 8b       	std	Y+20, r25	; 0x14
    4266:	8b 8b       	std	Y+19, r24	; 0x13

00004268 <.L212>:
                }
            }
            if (xKlaar == 1 && yKlaar == 1)
    4268:	8f 85       	ldd	r24, Y+15	; 0x0f
    426a:	98 89       	ldd	r25, Y+16	; 0x10
    426c:	81 30       	cpi	r24, 0x01	; 1
    426e:	91 05       	cpc	r25, r1
    4270:	09 f0       	breq	.+2      	; 0x4274 <.Loc.650>

00004272 <L0^A>:
    4272:	db c5       	rjmp	.+2998   	; 0x4e2a <.L391>

00004274 <.Loc.650>:
    4274:	89 89       	ldd	r24, Y+17	; 0x11
    4276:	9a 89       	ldd	r25, Y+18	; 0x12
    4278:	81 30       	cpi	r24, 0x01	; 1
    427a:	91 05       	cpc	r25, r1
    427c:	09 f0       	breq	.+2      	; 0x4280 <.Loc.651>

0000427e <L0^A>:
    427e:	d5 c5       	rjmp	.+2986   	; 0x4e2a <.L391>

00004280 <.Loc.651>:
            {
                h_bridge_set_percentage3(60);
    4280:	8c e3       	ldi	r24, 0x3C	; 60
    4282:	90 e0       	ldi	r25, 0x00	; 0
    4284:	0e 94 55 04 	call	0x8aa	; 0x8aa <h_bridge_set_percentage3>

00004288 <.Loc.652>:
                stand = 4;
    4288:	84 e0       	ldi	r24, 0x04	; 4
    428a:	90 e0       	ldi	r25, 0x00	; 0
    428c:	9c 8b       	std	Y+20, r25	; 0x14
    428e:	8b 8b       	std	Y+19, r24	; 0x13

00004290 <.Loc.653>:
            }

            break;
    4290:	cc c5       	rjmp	.+2968   	; 0x4e2a <.L391>

00004292 <.L17>:
        case 4: // z-as omlaag //
            if ((PINK & (1<<PK2)) != 0)                // limit switch z-as //
    4292:	86 e0       	ldi	r24, 0x06	; 6
    4294:	91 e0       	ldi	r25, 0x01	; 1
    4296:	dc 01       	movw	r26, r24
    4298:	8c 91       	ld	r24, X

0000429a <.Loc.655>:
    429a:	88 2f       	mov	r24, r24
    429c:	90 e0       	ldi	r25, 0x00	; 0
    429e:	84 70       	andi	r24, 0x04	; 4
    42a0:	99 27       	eor	r25, r25

000042a2 <.Loc.656>:
    42a2:	00 97       	sbiw	r24, 0x00	; 0
    42a4:	09 f4       	brne	.+2      	; 0x42a8 <L0^A+0x2>

000042a6 <L0^A>:
    42a6:	11 c1       	rjmp	.+546    	; 0x44ca <.L230>
    42a8:	9e 01       	movw	r18, r28
    42aa:	27 5a       	subi	r18, 0xA7	; 167
    42ac:	3e 4f       	sbci	r19, 0xFE	; 254
    42ae:	80 e0       	ldi	r24, 0x00	; 0
    42b0:	90 e0       	ldi	r25, 0x00	; 0
    42b2:	a0 ef       	ldi	r26, 0xF0	; 240
    42b4:	b1 e4       	ldi	r27, 0x41	; 65
    42b6:	f9 01       	movw	r30, r18
    42b8:	80 83       	st	Z, r24
    42ba:	91 83       	std	Z+1, r25	; 0x01
    42bc:	a2 83       	std	Z+2, r26	; 0x02
    42be:	b3 83       	std	Z+3, r27	; 0x03

000042c0 <.LBB314>:
	__tmp = ((F_CPU) / 4e3) * __ms;
    42c0:	8e 01       	movw	r16, r28
    42c2:	03 5a       	subi	r16, 0xA3	; 163
    42c4:	1e 4f       	sbci	r17, 0xFE	; 254
    42c6:	ce 01       	movw	r24, r28
    42c8:	87 5a       	subi	r24, 0xA7	; 167
    42ca:	9e 4f       	sbci	r25, 0xFE	; 254
    42cc:	20 e0       	ldi	r18, 0x00	; 0
    42ce:	30 e0       	ldi	r19, 0x00	; 0
    42d0:	4a e7       	ldi	r20, 0x7A	; 122
    42d2:	55 e4       	ldi	r21, 0x45	; 69
    42d4:	dc 01       	movw	r26, r24
    42d6:	6d 91       	ld	r22, X+
    42d8:	7d 91       	ld	r23, X+
    42da:	8d 91       	ld	r24, X+
    42dc:	9c 91       	ld	r25, X
    42de:	0e 94 2a 28 	call	0x5054	; 0x5054 <__mulsf3>
    42e2:	c5 56       	subi	r28, 0x65	; 101
    42e4:	dc 4f       	sbci	r29, 0xFC	; 252
    42e6:	68 83       	st	Y, r22
    42e8:	79 83       	std	Y+1, r23	; 0x01
    42ea:	8a 83       	std	Y+2, r24	; 0x02
    42ec:	9b 83       	std	Y+3, r25	; 0x03
    42ee:	cb 59       	subi	r28, 0x9B	; 155
    42f0:	d3 40       	sbci	r29, 0x03	; 3
    42f2:	c5 56       	subi	r28, 0x65	; 101
    42f4:	dc 4f       	sbci	r29, 0xFC	; 252
    42f6:	88 81       	ld	r24, Y
    42f8:	99 81       	ldd	r25, Y+1	; 0x01
    42fa:	aa 81       	ldd	r26, Y+2	; 0x02
    42fc:	bb 81       	ldd	r27, Y+3	; 0x03
    42fe:	cb 59       	subi	r28, 0x9B	; 155
    4300:	d3 40       	sbci	r29, 0x03	; 3
    4302:	f8 01       	movw	r30, r16
    4304:	80 83       	st	Z, r24
    4306:	91 83       	std	Z+1, r25	; 0x01
    4308:	a2 83       	std	Z+2, r26	; 0x02
    430a:	b3 83       	std	Z+3, r27	; 0x03

0000430c <.Loc.658>:
	if (__tmp < 1.0)
    430c:	ce 01       	movw	r24, r28
    430e:	83 5a       	subi	r24, 0xA3	; 163
    4310:	9e 4f       	sbci	r25, 0xFE	; 254
    4312:	20 e0       	ldi	r18, 0x00	; 0
    4314:	30 e0       	ldi	r19, 0x00	; 0
    4316:	40 e8       	ldi	r20, 0x80	; 128
    4318:	5f e3       	ldi	r21, 0x3F	; 63
    431a:	dc 01       	movw	r26, r24
    431c:	6d 91       	ld	r22, X+
    431e:	7d 91       	ld	r23, X+
    4320:	8d 91       	ld	r24, X+
    4322:	9c 91       	ld	r25, X
    4324:	0e 94 a4 27 	call	0x4f48	; 0x4f48 <__cmpsf2>
    4328:	88 23       	and	r24, r24
    432a:	4c f4       	brge	.+18     	; 0x433e <.L379>

0000432c <.Loc.659>:
		__ticks = 1;
    432c:	ce 01       	movw	r24, r28
    432e:	8f 59       	subi	r24, 0x9F	; 159
    4330:	9e 4f       	sbci	r25, 0xFE	; 254
    4332:	21 e0       	ldi	r18, 0x01	; 1
    4334:	30 e0       	ldi	r19, 0x00	; 0
    4336:	fc 01       	movw	r30, r24
    4338:	31 83       	std	Z+1, r19	; 0x01
    433a:	20 83       	st	Z, r18
    433c:	a5 c0       	rjmp	.+330    	; 0x4488 <.L233>

0000433e <.L379>:
	else if (__tmp > 65535)
    433e:	ce 01       	movw	r24, r28
    4340:	83 5a       	subi	r24, 0xA3	; 163
    4342:	9e 4f       	sbci	r25, 0xFE	; 254
    4344:	20 e0       	ldi	r18, 0x00	; 0
    4346:	3f ef       	ldi	r19, 0xFF	; 255
    4348:	4f e7       	ldi	r20, 0x7F	; 127
    434a:	57 e4       	ldi	r21, 0x47	; 71
    434c:	dc 01       	movw	r26, r24
    434e:	6d 91       	ld	r22, X+
    4350:	7d 91       	ld	r23, X+
    4352:	8d 91       	ld	r24, X+
    4354:	9c 91       	ld	r25, X
    4356:	0e 94 25 28 	call	0x504a	; 0x504a <__gesf2>
    435a:	88 23       	and	r24, r24
    435c:	09 f0       	breq	.+2      	; 0x4360 <L0^A>

0000435e <L0^A>:
    435e:	0c f4       	brge	.+2      	; 0x4362 <.Loc.661>

00004360 <L0^A>:
    4360:	75 c0       	rjmp	.+234    	; 0x444c <.L380>

00004362 <.Loc.661>:
		__ticks = (uint16_t) (__ms * 10.0);
    4362:	ce 01       	movw	r24, r28
    4364:	87 5a       	subi	r24, 0xA7	; 167
    4366:	9e 4f       	sbci	r25, 0xFE	; 254
    4368:	20 e0       	ldi	r18, 0x00	; 0
    436a:	30 e0       	ldi	r19, 0x00	; 0
    436c:	40 e2       	ldi	r20, 0x20	; 32
    436e:	51 e4       	ldi	r21, 0x41	; 65
    4370:	fc 01       	movw	r30, r24
    4372:	60 81       	ld	r22, Z
    4374:	71 81       	ldd	r23, Z+1	; 0x01
    4376:	82 81       	ldd	r24, Z+2	; 0x02
    4378:	93 81       	ldd	r25, Z+3	; 0x03
    437a:	0e 94 2a 28 	call	0x5054	; 0x5054 <__mulsf3>
    437e:	c1 56       	subi	r28, 0x61	; 97
    4380:	dc 4f       	sbci	r29, 0xFC	; 252
    4382:	68 83       	st	Y, r22
    4384:	79 83       	std	Y+1, r23	; 0x01
    4386:	8a 83       	std	Y+2, r24	; 0x02
    4388:	9b 83       	std	Y+3, r25	; 0x03
    438a:	cf 59       	subi	r28, 0x9F	; 159
    438c:	d3 40       	sbci	r29, 0x03	; 3
    438e:	c1 56       	subi	r28, 0x61	; 97
    4390:	dc 4f       	sbci	r29, 0xFC	; 252
    4392:	88 81       	ld	r24, Y
    4394:	99 81       	ldd	r25, Y+1	; 0x01
    4396:	aa 81       	ldd	r26, Y+2	; 0x02
    4398:	bb 81       	ldd	r27, Y+3	; 0x03
    439a:	cf 59       	subi	r28, 0x9F	; 159
    439c:	d3 40       	sbci	r29, 0x03	; 3
    439e:	c9 5e       	subi	r28, 0xE9	; 233
    43a0:	dd 4f       	sbci	r29, 0xFD	; 253
    43a2:	88 83       	st	Y, r24
    43a4:	99 83       	std	Y+1, r25	; 0x01
    43a6:	aa 83       	std	Y+2, r26	; 0x02
    43a8:	bb 83       	std	Y+3, r27	; 0x03
    43aa:	c7 51       	subi	r28, 0x17	; 23
    43ac:	d2 40       	sbci	r29, 0x02	; 2

000043ae <.Loc.662>:
    43ae:	8e 01       	movw	r16, r28
    43b0:	0f 59       	subi	r16, 0x9F	; 159
    43b2:	1e 4f       	sbci	r17, 0xFE	; 254
    43b4:	c9 5e       	subi	r28, 0xE9	; 233
    43b6:	dd 4f       	sbci	r29, 0xFD	; 253
    43b8:	68 81       	ld	r22, Y
    43ba:	79 81       	ldd	r23, Y+1	; 0x01
    43bc:	8a 81       	ldd	r24, Y+2	; 0x02
    43be:	9b 81       	ldd	r25, Y+3	; 0x03
    43c0:	c7 51       	subi	r28, 0x17	; 23
    43c2:	d2 40       	sbci	r29, 0x02	; 2
    43c4:	0e 94 a9 27 	call	0x4f52	; 0x4f52 <__fixunssfsi>
    43c8:	cd 55       	subi	r28, 0x5D	; 93
    43ca:	dc 4f       	sbci	r29, 0xFC	; 252
    43cc:	68 83       	st	Y, r22
    43ce:	79 83       	std	Y+1, r23	; 0x01
    43d0:	8a 83       	std	Y+2, r24	; 0x02
    43d2:	9b 83       	std	Y+3, r25	; 0x03
    43d4:	c3 5a       	subi	r28, 0xA3	; 163
    43d6:	d3 40       	sbci	r29, 0x03	; 3
    43d8:	cd 55       	subi	r28, 0x5D	; 93
    43da:	dc 4f       	sbci	r29, 0xFC	; 252
    43dc:	e8 81       	ld	r30, Y
    43de:	f9 81       	ldd	r31, Y+1	; 0x01
    43e0:	c3 5a       	subi	r28, 0xA3	; 163
    43e2:	d3 40       	sbci	r29, 0x03	; 3
    43e4:	d8 01       	movw	r26, r16
    43e6:	11 96       	adiw	r26, 0x01	; 1
    43e8:	fc 93       	st	X, r31
    43ea:	ee 93       	st	-X, r30

000043ec <.Loc.663>:
		while(__ticks)
    43ec:	26 c0       	rjmp	.+76     	; 0x443a <.L236>

000043ee <.L237>:
    43ee:	ce 01       	movw	r24, r28
    43f0:	8d 59       	subi	r24, 0x9D	; 157
    43f2:	9e 4f       	sbci	r25, 0xFE	; 254
    43f4:	20 e9       	ldi	r18, 0x90	; 144
    43f6:	31 e0       	ldi	r19, 0x01	; 1
    43f8:	dc 01       	movw	r26, r24
    43fa:	2d 93       	st	X+, r18
    43fc:	3c 93       	st	X, r19

000043fe <.LBB316>:
    43fe:	ce 01       	movw	r24, r28
    4400:	8d 59       	subi	r24, 0x9D	; 157
    4402:	9e 4f       	sbci	r25, 0xFE	; 254
    4404:	fc 01       	movw	r30, r24
    4406:	80 81       	ld	r24, Z
    4408:	91 81       	ldd	r25, Z+1	; 0x01

0000440a <.L1^B63>:
    440a:	01 97       	sbiw	r24, 0x01	; 1
    440c:	f1 f7       	brne	.-4      	; 0x440a <.L1^B63>
    440e:	9e 01       	movw	r18, r28
    4410:	2d 59       	subi	r18, 0x9D	; 157
    4412:	3e 4f       	sbci	r19, 0xFE	; 254
    4414:	d9 01       	movw	r26, r18
    4416:	8d 93       	st	X+, r24
    4418:	9c 93       	st	X, r25

0000441a <.Loc.665>:
	...

0000441c <.LBE316>:
			__ticks --;
    441c:	ce 01       	movw	r24, r28
    441e:	8f 59       	subi	r24, 0x9F	; 159
    4420:	9e 4f       	sbci	r25, 0xFE	; 254
    4422:	9e 01       	movw	r18, r28
    4424:	2f 59       	subi	r18, 0x9F	; 159
    4426:	3e 4f       	sbci	r19, 0xFE	; 254
    4428:	f9 01       	movw	r30, r18
    442a:	20 81       	ld	r18, Z
    442c:	31 81       	ldd	r19, Z+1	; 0x01
    442e:	21 50       	subi	r18, 0x01	; 1
    4430:	31 09       	sbc	r19, r1
    4432:	dc 01       	movw	r26, r24
    4434:	11 96       	adiw	r26, 0x01	; 1
    4436:	3c 93       	st	X, r19
    4438:	2e 93       	st	-X, r18

0000443a <.L236>:
		while(__ticks)
    443a:	ce 01       	movw	r24, r28
    443c:	8f 59       	subi	r24, 0x9F	; 159
    443e:	9e 4f       	sbci	r25, 0xFE	; 254
    4440:	fc 01       	movw	r30, r24
    4442:	80 81       	ld	r24, Z
    4444:	91 81       	ldd	r25, Z+1	; 0x01
    4446:	00 97       	sbiw	r24, 0x00	; 0
    4448:	91 f6       	brne	.-92     	; 0x43ee <.L237>

0000444a <.Loc.668>:
		return;
    444a:	39 c0       	rjmp	.+114    	; 0x44be <.L238>

0000444c <.L380>:
		__ticks = (uint16_t)__tmp;
    444c:	8e 01       	movw	r16, r28
    444e:	0f 59       	subi	r16, 0x9F	; 159
    4450:	1e 4f       	sbci	r17, 0xFE	; 254
    4452:	ce 01       	movw	r24, r28
    4454:	83 5a       	subi	r24, 0xA3	; 163
    4456:	9e 4f       	sbci	r25, 0xFE	; 254
    4458:	dc 01       	movw	r26, r24
    445a:	6d 91       	ld	r22, X+
    445c:	7d 91       	ld	r23, X+
    445e:	8d 91       	ld	r24, X+
    4460:	9c 91       	ld	r25, X
    4462:	0e 94 a9 27 	call	0x4f52	; 0x4f52 <__fixunssfsi>
    4466:	c9 55       	subi	r28, 0x59	; 89
    4468:	dc 4f       	sbci	r29, 0xFC	; 252
    446a:	68 83       	st	Y, r22
    446c:	79 83       	std	Y+1, r23	; 0x01
    446e:	8a 83       	std	Y+2, r24	; 0x02
    4470:	9b 83       	std	Y+3, r25	; 0x03
    4472:	c7 5a       	subi	r28, 0xA7	; 167
    4474:	d3 40       	sbci	r29, 0x03	; 3
    4476:	c9 55       	subi	r28, 0x59	; 89
    4478:	dc 4f       	sbci	r29, 0xFC	; 252
    447a:	88 81       	ld	r24, Y
    447c:	99 81       	ldd	r25, Y+1	; 0x01
    447e:	c7 5a       	subi	r28, 0xA7	; 167
    4480:	d3 40       	sbci	r29, 0x03	; 3
    4482:	f8 01       	movw	r30, r16
    4484:	91 83       	std	Z+1, r25	; 0x01
    4486:	80 83       	st	Z, r24

00004488 <.L233>:
    4488:	ce 01       	movw	r24, r28
    448a:	8b 59       	subi	r24, 0x9B	; 155
    448c:	9e 4f       	sbci	r25, 0xFE	; 254
    448e:	9e 01       	movw	r18, r28
    4490:	2f 59       	subi	r18, 0x9F	; 159
    4492:	3e 4f       	sbci	r19, 0xFE	; 254
    4494:	d9 01       	movw	r26, r18
    4496:	2d 91       	ld	r18, X+
    4498:	3c 91       	ld	r19, X
    449a:	fc 01       	movw	r30, r24
    449c:	31 83       	std	Z+1, r19	; 0x01
    449e:	20 83       	st	Z, r18

000044a0 <.LBB318>:
    44a0:	ce 01       	movw	r24, r28
    44a2:	8b 59       	subi	r24, 0x9B	; 155
    44a4:	9e 4f       	sbci	r25, 0xFE	; 254
    44a6:	dc 01       	movw	r26, r24
    44a8:	8d 91       	ld	r24, X+
    44aa:	9c 91       	ld	r25, X

000044ac <.L1^B64>:
    44ac:	01 97       	sbiw	r24, 0x01	; 1
    44ae:	f1 f7       	brne	.-4      	; 0x44ac <.L1^B64>
    44b0:	9e 01       	movw	r18, r28
    44b2:	2b 59       	subi	r18, 0x9B	; 155
    44b4:	3e 4f       	sbci	r19, 0xFE	; 254
    44b6:	f9 01       	movw	r30, r18
    44b8:	91 83       	std	Z+1, r25	; 0x01
    44ba:	80 83       	st	Z, r24

000044bc <.Loc.671>:
	...

000044be <.L238>:
            {
                DEBOUNCE;
                knop_ingedruktz = 0;
    44be:	1e 86       	std	Y+14, r1	; 0x0e
    44c0:	1d 86       	std	Y+13, r1	; 0x0d

000044c2 <.Loc.673>:
                h_bridge_set_percentage3(-60);
    44c2:	84 ec       	ldi	r24, 0xC4	; 196
    44c4:	9f ef       	ldi	r25, 0xFF	; 255
    44c6:	0e 94 55 04 	call	0x8aa	; 0x8aa <h_bridge_set_percentage3>

000044ca <.L230>:
            }
            if (knop_ingedruktz == 0)
    44ca:	8d 85       	ldd	r24, Y+13	; 0x0d
    44cc:	9e 85       	ldd	r25, Y+14	; 0x0e
    44ce:	00 97       	sbiw	r24, 0x00	; 0
    44d0:	09 f0       	breq	.+2      	; 0x44d4 <.Loc.675>

000044d2 <L0^A>:
    44d2:	ae c4       	rjmp	.+2396   	; 0x4e30 <.L392>

000044d4 <.Loc.675>:
            {
                if ((PINK & (1<<PK5)) != 0)
    44d4:	86 e0       	ldi	r24, 0x06	; 6
    44d6:	91 e0       	ldi	r25, 0x01	; 1
    44d8:	dc 01       	movw	r26, r24
    44da:	8c 91       	ld	r24, X

000044dc <.Loc.676>:
    44dc:	88 2f       	mov	r24, r24
    44de:	90 e0       	ldi	r25, 0x00	; 0
    44e0:	80 72       	andi	r24, 0x20	; 32
    44e2:	99 27       	eor	r25, r25

000044e4 <.Loc.677>:
    44e4:	00 97       	sbiw	r24, 0x00	; 0
    44e6:	09 f4       	brne	.+2      	; 0x44ea <L0^A+0x2>

000044e8 <L0^A>:
    44e8:	a3 c4       	rjmp	.+2374   	; 0x4e30 <.L392>
    44ea:	9e 01       	movw	r18, r28
    44ec:	29 59       	subi	r18, 0x99	; 153
    44ee:	3e 4f       	sbci	r19, 0xFE	; 254
    44f0:	80 e0       	ldi	r24, 0x00	; 0
    44f2:	90 e0       	ldi	r25, 0x00	; 0
    44f4:	a0 ef       	ldi	r26, 0xF0	; 240
    44f6:	b1 e4       	ldi	r27, 0x41	; 65
    44f8:	f9 01       	movw	r30, r18
    44fa:	80 83       	st	Z, r24
    44fc:	91 83       	std	Z+1, r25	; 0x01
    44fe:	a2 83       	std	Z+2, r26	; 0x02
    4500:	b3 83       	std	Z+3, r27	; 0x03

00004502 <.LBB320>:
	__tmp = ((F_CPU) / 4e3) * __ms;
    4502:	8e 01       	movw	r16, r28
    4504:	05 59       	subi	r16, 0x95	; 149
    4506:	1e 4f       	sbci	r17, 0xFE	; 254
    4508:	ce 01       	movw	r24, r28
    450a:	89 59       	subi	r24, 0x99	; 153
    450c:	9e 4f       	sbci	r25, 0xFE	; 254
    450e:	20 e0       	ldi	r18, 0x00	; 0
    4510:	30 e0       	ldi	r19, 0x00	; 0
    4512:	4a e7       	ldi	r20, 0x7A	; 122
    4514:	55 e4       	ldi	r21, 0x45	; 69
    4516:	dc 01       	movw	r26, r24
    4518:	6d 91       	ld	r22, X+
    451a:	7d 91       	ld	r23, X+
    451c:	8d 91       	ld	r24, X+
    451e:	9c 91       	ld	r25, X
    4520:	0e 94 2a 28 	call	0x5054	; 0x5054 <__mulsf3>
    4524:	c5 55       	subi	r28, 0x55	; 85
    4526:	dc 4f       	sbci	r29, 0xFC	; 252
    4528:	68 83       	st	Y, r22
    452a:	79 83       	std	Y+1, r23	; 0x01
    452c:	8a 83       	std	Y+2, r24	; 0x02
    452e:	9b 83       	std	Y+3, r25	; 0x03
    4530:	cb 5a       	subi	r28, 0xAB	; 171
    4532:	d3 40       	sbci	r29, 0x03	; 3
    4534:	c5 55       	subi	r28, 0x55	; 85
    4536:	dc 4f       	sbci	r29, 0xFC	; 252
    4538:	88 81       	ld	r24, Y
    453a:	99 81       	ldd	r25, Y+1	; 0x01
    453c:	aa 81       	ldd	r26, Y+2	; 0x02
    453e:	bb 81       	ldd	r27, Y+3	; 0x03
    4540:	cb 5a       	subi	r28, 0xAB	; 171
    4542:	d3 40       	sbci	r29, 0x03	; 3
    4544:	f8 01       	movw	r30, r16
    4546:	80 83       	st	Z, r24
    4548:	91 83       	std	Z+1, r25	; 0x01
    454a:	a2 83       	std	Z+2, r26	; 0x02
    454c:	b3 83       	std	Z+3, r27	; 0x03

0000454e <.Loc.679>:
	if (__tmp < 1.0)
    454e:	ce 01       	movw	r24, r28
    4550:	85 59       	subi	r24, 0x95	; 149
    4552:	9e 4f       	sbci	r25, 0xFE	; 254
    4554:	20 e0       	ldi	r18, 0x00	; 0
    4556:	30 e0       	ldi	r19, 0x00	; 0
    4558:	40 e8       	ldi	r20, 0x80	; 128
    455a:	5f e3       	ldi	r21, 0x3F	; 63
    455c:	dc 01       	movw	r26, r24
    455e:	6d 91       	ld	r22, X+
    4560:	7d 91       	ld	r23, X+
    4562:	8d 91       	ld	r24, X+
    4564:	9c 91       	ld	r25, X
    4566:	0e 94 a4 27 	call	0x4f48	; 0x4f48 <__cmpsf2>
    456a:	88 23       	and	r24, r24
    456c:	4c f4       	brge	.+18     	; 0x4580 <.L381>

0000456e <.Loc.680>:
		__ticks = 1;
    456e:	ce 01       	movw	r24, r28
    4570:	81 59       	subi	r24, 0x91	; 145
    4572:	9e 4f       	sbci	r25, 0xFE	; 254
    4574:	21 e0       	ldi	r18, 0x01	; 1
    4576:	30 e0       	ldi	r19, 0x00	; 0
    4578:	fc 01       	movw	r30, r24
    457a:	31 83       	std	Z+1, r19	; 0x01
    457c:	20 83       	st	Z, r18
    457e:	a5 c0       	rjmp	.+330    	; 0x46ca <.L242>

00004580 <.L381>:
	else if (__tmp > 65535)
    4580:	ce 01       	movw	r24, r28
    4582:	85 59       	subi	r24, 0x95	; 149
    4584:	9e 4f       	sbci	r25, 0xFE	; 254
    4586:	20 e0       	ldi	r18, 0x00	; 0
    4588:	3f ef       	ldi	r19, 0xFF	; 255
    458a:	4f e7       	ldi	r20, 0x7F	; 127
    458c:	57 e4       	ldi	r21, 0x47	; 71
    458e:	dc 01       	movw	r26, r24
    4590:	6d 91       	ld	r22, X+
    4592:	7d 91       	ld	r23, X+
    4594:	8d 91       	ld	r24, X+
    4596:	9c 91       	ld	r25, X
    4598:	0e 94 25 28 	call	0x504a	; 0x504a <__gesf2>
    459c:	88 23       	and	r24, r24
    459e:	09 f0       	breq	.+2      	; 0x45a2 <L0^A>

000045a0 <L0^A>:
    45a0:	0c f4       	brge	.+2      	; 0x45a4 <.Loc.682>

000045a2 <L0^A>:
    45a2:	75 c0       	rjmp	.+234    	; 0x468e <.L382>

000045a4 <.Loc.682>:
		__ticks = (uint16_t) (__ms * 10.0);
    45a4:	ce 01       	movw	r24, r28
    45a6:	89 59       	subi	r24, 0x99	; 153
    45a8:	9e 4f       	sbci	r25, 0xFE	; 254
    45aa:	20 e0       	ldi	r18, 0x00	; 0
    45ac:	30 e0       	ldi	r19, 0x00	; 0
    45ae:	40 e2       	ldi	r20, 0x20	; 32
    45b0:	51 e4       	ldi	r21, 0x41	; 65
    45b2:	fc 01       	movw	r30, r24
    45b4:	60 81       	ld	r22, Z
    45b6:	71 81       	ldd	r23, Z+1	; 0x01
    45b8:	82 81       	ldd	r24, Z+2	; 0x02
    45ba:	93 81       	ldd	r25, Z+3	; 0x03
    45bc:	0e 94 2a 28 	call	0x5054	; 0x5054 <__mulsf3>
    45c0:	c1 55       	subi	r28, 0x51	; 81
    45c2:	dc 4f       	sbci	r29, 0xFC	; 252
    45c4:	68 83       	st	Y, r22
    45c6:	79 83       	std	Y+1, r23	; 0x01
    45c8:	8a 83       	std	Y+2, r24	; 0x02
    45ca:	9b 83       	std	Y+3, r25	; 0x03
    45cc:	cf 5a       	subi	r28, 0xAF	; 175
    45ce:	d3 40       	sbci	r29, 0x03	; 3
    45d0:	c1 55       	subi	r28, 0x51	; 81
    45d2:	dc 4f       	sbci	r29, 0xFC	; 252
    45d4:	88 81       	ld	r24, Y
    45d6:	99 81       	ldd	r25, Y+1	; 0x01
    45d8:	aa 81       	ldd	r26, Y+2	; 0x02
    45da:	bb 81       	ldd	r27, Y+3	; 0x03
    45dc:	cf 5a       	subi	r28, 0xAF	; 175
    45de:	d3 40       	sbci	r29, 0x03	; 3
    45e0:	c5 5e       	subi	r28, 0xE5	; 229
    45e2:	dd 4f       	sbci	r29, 0xFD	; 253
    45e4:	88 83       	st	Y, r24
    45e6:	99 83       	std	Y+1, r25	; 0x01
    45e8:	aa 83       	std	Y+2, r26	; 0x02
    45ea:	bb 83       	std	Y+3, r27	; 0x03
    45ec:	cb 51       	subi	r28, 0x1B	; 27
    45ee:	d2 40       	sbci	r29, 0x02	; 2

000045f0 <.Loc.683>:
    45f0:	8e 01       	movw	r16, r28
    45f2:	01 59       	subi	r16, 0x91	; 145
    45f4:	1e 4f       	sbci	r17, 0xFE	; 254
    45f6:	c5 5e       	subi	r28, 0xE5	; 229
    45f8:	dd 4f       	sbci	r29, 0xFD	; 253
    45fa:	68 81       	ld	r22, Y
    45fc:	79 81       	ldd	r23, Y+1	; 0x01
    45fe:	8a 81       	ldd	r24, Y+2	; 0x02
    4600:	9b 81       	ldd	r25, Y+3	; 0x03
    4602:	cb 51       	subi	r28, 0x1B	; 27
    4604:	d2 40       	sbci	r29, 0x02	; 2
    4606:	0e 94 a9 27 	call	0x4f52	; 0x4f52 <__fixunssfsi>
    460a:	cd 54       	subi	r28, 0x4D	; 77
    460c:	dc 4f       	sbci	r29, 0xFC	; 252
    460e:	68 83       	st	Y, r22
    4610:	79 83       	std	Y+1, r23	; 0x01
    4612:	8a 83       	std	Y+2, r24	; 0x02
    4614:	9b 83       	std	Y+3, r25	; 0x03
    4616:	c3 5b       	subi	r28, 0xB3	; 179
    4618:	d3 40       	sbci	r29, 0x03	; 3
    461a:	cd 54       	subi	r28, 0x4D	; 77
    461c:	dc 4f       	sbci	r29, 0xFC	; 252
    461e:	e8 81       	ld	r30, Y
    4620:	f9 81       	ldd	r31, Y+1	; 0x01
    4622:	c3 5b       	subi	r28, 0xB3	; 179
    4624:	d3 40       	sbci	r29, 0x03	; 3
    4626:	d8 01       	movw	r26, r16
    4628:	11 96       	adiw	r26, 0x01	; 1
    462a:	fc 93       	st	X, r31
    462c:	ee 93       	st	-X, r30

0000462e <.Loc.684>:
		while(__ticks)
    462e:	26 c0       	rjmp	.+76     	; 0x467c <.L245>

00004630 <.L246>:
    4630:	ce 01       	movw	r24, r28
    4632:	8f 58       	subi	r24, 0x8F	; 143
    4634:	9e 4f       	sbci	r25, 0xFE	; 254
    4636:	20 e9       	ldi	r18, 0x90	; 144
    4638:	31 e0       	ldi	r19, 0x01	; 1
    463a:	dc 01       	movw	r26, r24
    463c:	2d 93       	st	X+, r18
    463e:	3c 93       	st	X, r19

00004640 <.LBB322>:
    4640:	ce 01       	movw	r24, r28
    4642:	8f 58       	subi	r24, 0x8F	; 143
    4644:	9e 4f       	sbci	r25, 0xFE	; 254
    4646:	fc 01       	movw	r30, r24
    4648:	80 81       	ld	r24, Z
    464a:	91 81       	ldd	r25, Z+1	; 0x01

0000464c <.L1^B65>:
    464c:	01 97       	sbiw	r24, 0x01	; 1
    464e:	f1 f7       	brne	.-4      	; 0x464c <.L1^B65>
    4650:	9e 01       	movw	r18, r28
    4652:	2f 58       	subi	r18, 0x8F	; 143
    4654:	3e 4f       	sbci	r19, 0xFE	; 254
    4656:	d9 01       	movw	r26, r18
    4658:	8d 93       	st	X+, r24
    465a:	9c 93       	st	X, r25

0000465c <.Loc.686>:
	...

0000465e <.LBE322>:
			__ticks --;
    465e:	ce 01       	movw	r24, r28
    4660:	81 59       	subi	r24, 0x91	; 145
    4662:	9e 4f       	sbci	r25, 0xFE	; 254
    4664:	9e 01       	movw	r18, r28
    4666:	21 59       	subi	r18, 0x91	; 145
    4668:	3e 4f       	sbci	r19, 0xFE	; 254
    466a:	f9 01       	movw	r30, r18
    466c:	20 81       	ld	r18, Z
    466e:	31 81       	ldd	r19, Z+1	; 0x01
    4670:	21 50       	subi	r18, 0x01	; 1
    4672:	31 09       	sbc	r19, r1
    4674:	dc 01       	movw	r26, r24
    4676:	11 96       	adiw	r26, 0x01	; 1
    4678:	3c 93       	st	X, r19
    467a:	2e 93       	st	-X, r18

0000467c <.L245>:
		while(__ticks)
    467c:	ce 01       	movw	r24, r28
    467e:	81 59       	subi	r24, 0x91	; 145
    4680:	9e 4f       	sbci	r25, 0xFE	; 254
    4682:	fc 01       	movw	r30, r24
    4684:	80 81       	ld	r24, Z
    4686:	91 81       	ldd	r25, Z+1	; 0x01
    4688:	00 97       	sbiw	r24, 0x00	; 0
    468a:	91 f6       	brne	.-92     	; 0x4630 <.L246>

0000468c <.Loc.689>:
		return;
    468c:	39 c0       	rjmp	.+114    	; 0x4700 <.L247>

0000468e <.L382>:
		__ticks = (uint16_t)__tmp;
    468e:	8e 01       	movw	r16, r28
    4690:	01 59       	subi	r16, 0x91	; 145
    4692:	1e 4f       	sbci	r17, 0xFE	; 254
    4694:	ce 01       	movw	r24, r28
    4696:	85 59       	subi	r24, 0x95	; 149
    4698:	9e 4f       	sbci	r25, 0xFE	; 254
    469a:	dc 01       	movw	r26, r24
    469c:	6d 91       	ld	r22, X+
    469e:	7d 91       	ld	r23, X+
    46a0:	8d 91       	ld	r24, X+
    46a2:	9c 91       	ld	r25, X
    46a4:	0e 94 a9 27 	call	0x4f52	; 0x4f52 <__fixunssfsi>
    46a8:	c9 54       	subi	r28, 0x49	; 73
    46aa:	dc 4f       	sbci	r29, 0xFC	; 252
    46ac:	68 83       	st	Y, r22
    46ae:	79 83       	std	Y+1, r23	; 0x01
    46b0:	8a 83       	std	Y+2, r24	; 0x02
    46b2:	9b 83       	std	Y+3, r25	; 0x03
    46b4:	c7 5b       	subi	r28, 0xB7	; 183
    46b6:	d3 40       	sbci	r29, 0x03	; 3
    46b8:	c9 54       	subi	r28, 0x49	; 73
    46ba:	dc 4f       	sbci	r29, 0xFC	; 252
    46bc:	88 81       	ld	r24, Y
    46be:	99 81       	ldd	r25, Y+1	; 0x01
    46c0:	c7 5b       	subi	r28, 0xB7	; 183
    46c2:	d3 40       	sbci	r29, 0x03	; 3
    46c4:	f8 01       	movw	r30, r16
    46c6:	91 83       	std	Z+1, r25	; 0x01
    46c8:	80 83       	st	Z, r24

000046ca <.L242>:
    46ca:	ce 01       	movw	r24, r28
    46cc:	8d 58       	subi	r24, 0x8D	; 141
    46ce:	9e 4f       	sbci	r25, 0xFE	; 254
    46d0:	9e 01       	movw	r18, r28
    46d2:	21 59       	subi	r18, 0x91	; 145
    46d4:	3e 4f       	sbci	r19, 0xFE	; 254
    46d6:	d9 01       	movw	r26, r18
    46d8:	2d 91       	ld	r18, X+
    46da:	3c 91       	ld	r19, X
    46dc:	fc 01       	movw	r30, r24
    46de:	31 83       	std	Z+1, r19	; 0x01
    46e0:	20 83       	st	Z, r18

000046e2 <.LBB324>:
    46e2:	ce 01       	movw	r24, r28
    46e4:	8d 58       	subi	r24, 0x8D	; 141
    46e6:	9e 4f       	sbci	r25, 0xFE	; 254
    46e8:	dc 01       	movw	r26, r24
    46ea:	8d 91       	ld	r24, X+
    46ec:	9c 91       	ld	r25, X

000046ee <.L1^B66>:
    46ee:	01 97       	sbiw	r24, 0x01	; 1
    46f0:	f1 f7       	brne	.-4      	; 0x46ee <.L1^B66>
    46f2:	9e 01       	movw	r18, r28
    46f4:	2d 58       	subi	r18, 0x8D	; 141
    46f6:	3e 4f       	sbci	r19, 0xFE	; 254
    46f8:	f9 01       	movw	r30, r18
    46fa:	91 83       	std	Z+1, r25	; 0x01
    46fc:	80 83       	st	Z, r24

000046fe <.Loc.692>:
	...

00004700 <.L247>:
                {
                    DEBOUNCE;
                    h_bridge_set_percentage3(0);
    4700:	80 e0       	ldi	r24, 0x00	; 0
    4702:	90 e0       	ldi	r25, 0x00	; 0
    4704:	0e 94 55 04 	call	0x8aa	; 0x8aa <h_bridge_set_percentage3>

00004708 <.Loc.694>:
                    h_bridge_set_percentage(-60);
    4708:	84 ec       	ldi	r24, 0xC4	; 196
    470a:	0e 94 9b 01 	call	0x336	; 0x336 <h_bridge_set_percentage>

0000470e <.Loc.695>:
                    h_bridge_set_percentage2(-60);
    470e:	84 ec       	ldi	r24, 0xC4	; 196
    4710:	9f ef       	ldi	r25, 0xFF	; 255
    4712:	0e 94 f3 02 	call	0x5e6	; 0x5e6 <h_bridge_set_percentage2>

00004716 <.Loc.696>:
                    knop_ingedruktz = 1;
    4716:	81 e0       	ldi	r24, 0x01	; 1
    4718:	90 e0       	ldi	r25, 0x00	; 0
    471a:	9e 87       	std	Y+14, r25	; 0x0e
    471c:	8d 87       	std	Y+13, r24	; 0x0d

0000471e <.Loc.697>:
                    stand = 5;
    471e:	85 e0       	ldi	r24, 0x05	; 5
    4720:	90 e0       	ldi	r25, 0x00	; 0
    4722:	9c 8b       	std	Y+20, r25	; 0x14
    4724:	8b 8b       	std	Y+19, r24	; 0x13

00004726 <.Loc.698>:
                }
            }
            break;
    4726:	84 c3       	rjmp	.+1800   	; 0x4e30 <.L392>

00004728 <.L16>:
        case 5:
            if ((PINK & (1<<PK0)) != 0)             // limit switch zet de h brug op de x-as uit //
    4728:	86 e0       	ldi	r24, 0x06	; 6
    472a:	91 e0       	ldi	r25, 0x01	; 1
    472c:	dc 01       	movw	r26, r24
    472e:	8c 91       	ld	r24, X

00004730 <.Loc.700>:
    4730:	88 2f       	mov	r24, r24
    4732:	90 e0       	ldi	r25, 0x00	; 0
    4734:	81 70       	andi	r24, 0x01	; 1
    4736:	99 27       	eor	r25, r25

00004738 <.Loc.701>:
    4738:	00 97       	sbiw	r24, 0x00	; 0
    473a:	09 f4       	brne	.+2      	; 0x473e <L0^A+0x2>

0000473c <L0^A>:
    473c:	10 c1       	rjmp	.+544    	; 0x495e <.L248>
    473e:	9e 01       	movw	r18, r28
    4740:	2b 58       	subi	r18, 0x8B	; 139
    4742:	3e 4f       	sbci	r19, 0xFE	; 254
    4744:	80 e0       	ldi	r24, 0x00	; 0
    4746:	90 e0       	ldi	r25, 0x00	; 0
    4748:	a0 ef       	ldi	r26, 0xF0	; 240
    474a:	b1 e4       	ldi	r27, 0x41	; 65
    474c:	f9 01       	movw	r30, r18
    474e:	80 83       	st	Z, r24
    4750:	91 83       	std	Z+1, r25	; 0x01
    4752:	a2 83       	std	Z+2, r26	; 0x02
    4754:	b3 83       	std	Z+3, r27	; 0x03

00004756 <.LBB326>:
	__tmp = ((F_CPU) / 4e3) * __ms;
    4756:	8e 01       	movw	r16, r28
    4758:	07 58       	subi	r16, 0x87	; 135
    475a:	1e 4f       	sbci	r17, 0xFE	; 254
    475c:	ce 01       	movw	r24, r28
    475e:	8b 58       	subi	r24, 0x8B	; 139
    4760:	9e 4f       	sbci	r25, 0xFE	; 254
    4762:	20 e0       	ldi	r18, 0x00	; 0
    4764:	30 e0       	ldi	r19, 0x00	; 0
    4766:	4a e7       	ldi	r20, 0x7A	; 122
    4768:	55 e4       	ldi	r21, 0x45	; 69
    476a:	dc 01       	movw	r26, r24
    476c:	6d 91       	ld	r22, X+
    476e:	7d 91       	ld	r23, X+
    4770:	8d 91       	ld	r24, X+
    4772:	9c 91       	ld	r25, X
    4774:	0e 94 2a 28 	call	0x5054	; 0x5054 <__mulsf3>
    4778:	c5 54       	subi	r28, 0x45	; 69
    477a:	dc 4f       	sbci	r29, 0xFC	; 252
    477c:	68 83       	st	Y, r22
    477e:	79 83       	std	Y+1, r23	; 0x01
    4780:	8a 83       	std	Y+2, r24	; 0x02
    4782:	9b 83       	std	Y+3, r25	; 0x03
    4784:	cb 5b       	subi	r28, 0xBB	; 187
    4786:	d3 40       	sbci	r29, 0x03	; 3
    4788:	c5 54       	subi	r28, 0x45	; 69
    478a:	dc 4f       	sbci	r29, 0xFC	; 252
    478c:	88 81       	ld	r24, Y
    478e:	99 81       	ldd	r25, Y+1	; 0x01
    4790:	aa 81       	ldd	r26, Y+2	; 0x02
    4792:	bb 81       	ldd	r27, Y+3	; 0x03
    4794:	cb 5b       	subi	r28, 0xBB	; 187
    4796:	d3 40       	sbci	r29, 0x03	; 3
    4798:	f8 01       	movw	r30, r16
    479a:	80 83       	st	Z, r24
    479c:	91 83       	std	Z+1, r25	; 0x01
    479e:	a2 83       	std	Z+2, r26	; 0x02
    47a0:	b3 83       	std	Z+3, r27	; 0x03

000047a2 <.Loc.703>:
	if (__tmp < 1.0)
    47a2:	ce 01       	movw	r24, r28
    47a4:	87 58       	subi	r24, 0x87	; 135
    47a6:	9e 4f       	sbci	r25, 0xFE	; 254
    47a8:	20 e0       	ldi	r18, 0x00	; 0
    47aa:	30 e0       	ldi	r19, 0x00	; 0
    47ac:	40 e8       	ldi	r20, 0x80	; 128
    47ae:	5f e3       	ldi	r21, 0x3F	; 63
    47b0:	dc 01       	movw	r26, r24
    47b2:	6d 91       	ld	r22, X+
    47b4:	7d 91       	ld	r23, X+
    47b6:	8d 91       	ld	r24, X+
    47b8:	9c 91       	ld	r25, X
    47ba:	0e 94 a4 27 	call	0x4f48	; 0x4f48 <__cmpsf2>
    47be:	88 23       	and	r24, r24
    47c0:	4c f4       	brge	.+18     	; 0x47d4 <.L383>

000047c2 <.Loc.704>:
		__ticks = 1;
    47c2:	ce 01       	movw	r24, r28
    47c4:	83 58       	subi	r24, 0x83	; 131
    47c6:	9e 4f       	sbci	r25, 0xFE	; 254
    47c8:	21 e0       	ldi	r18, 0x01	; 1
    47ca:	30 e0       	ldi	r19, 0x00	; 0
    47cc:	fc 01       	movw	r30, r24
    47ce:	31 83       	std	Z+1, r19	; 0x01
    47d0:	20 83       	st	Z, r18
    47d2:	a5 c0       	rjmp	.+330    	; 0x491e <.L251>

000047d4 <.L383>:
	else if (__tmp > 65535)
    47d4:	ce 01       	movw	r24, r28
    47d6:	87 58       	subi	r24, 0x87	; 135
    47d8:	9e 4f       	sbci	r25, 0xFE	; 254
    47da:	20 e0       	ldi	r18, 0x00	; 0
    47dc:	3f ef       	ldi	r19, 0xFF	; 255
    47de:	4f e7       	ldi	r20, 0x7F	; 127
    47e0:	57 e4       	ldi	r21, 0x47	; 71
    47e2:	dc 01       	movw	r26, r24
    47e4:	6d 91       	ld	r22, X+
    47e6:	7d 91       	ld	r23, X+
    47e8:	8d 91       	ld	r24, X+
    47ea:	9c 91       	ld	r25, X
    47ec:	0e 94 25 28 	call	0x504a	; 0x504a <__gesf2>
    47f0:	88 23       	and	r24, r24
    47f2:	09 f0       	breq	.+2      	; 0x47f6 <L0^A>

000047f4 <L0^A>:
    47f4:	0c f4       	brge	.+2      	; 0x47f8 <.Loc.706>

000047f6 <L0^A>:
    47f6:	75 c0       	rjmp	.+234    	; 0x48e2 <.L384>

000047f8 <.Loc.706>:
		__ticks = (uint16_t) (__ms * 10.0);
    47f8:	ce 01       	movw	r24, r28
    47fa:	8b 58       	subi	r24, 0x8B	; 139
    47fc:	9e 4f       	sbci	r25, 0xFE	; 254
    47fe:	20 e0       	ldi	r18, 0x00	; 0
    4800:	30 e0       	ldi	r19, 0x00	; 0
    4802:	40 e2       	ldi	r20, 0x20	; 32
    4804:	51 e4       	ldi	r21, 0x41	; 65
    4806:	fc 01       	movw	r30, r24
    4808:	60 81       	ld	r22, Z
    480a:	71 81       	ldd	r23, Z+1	; 0x01
    480c:	82 81       	ldd	r24, Z+2	; 0x02
    480e:	93 81       	ldd	r25, Z+3	; 0x03
    4810:	0e 94 2a 28 	call	0x5054	; 0x5054 <__mulsf3>
    4814:	c1 54       	subi	r28, 0x41	; 65
    4816:	dc 4f       	sbci	r29, 0xFC	; 252
    4818:	68 83       	st	Y, r22
    481a:	79 83       	std	Y+1, r23	; 0x01
    481c:	8a 83       	std	Y+2, r24	; 0x02
    481e:	9b 83       	std	Y+3, r25	; 0x03
    4820:	cf 5b       	subi	r28, 0xBF	; 191
    4822:	d3 40       	sbci	r29, 0x03	; 3
    4824:	c1 54       	subi	r28, 0x41	; 65
    4826:	dc 4f       	sbci	r29, 0xFC	; 252
    4828:	88 81       	ld	r24, Y
    482a:	99 81       	ldd	r25, Y+1	; 0x01
    482c:	aa 81       	ldd	r26, Y+2	; 0x02
    482e:	bb 81       	ldd	r27, Y+3	; 0x03
    4830:	cf 5b       	subi	r28, 0xBF	; 191
    4832:	d3 40       	sbci	r29, 0x03	; 3
    4834:	c1 5e       	subi	r28, 0xE1	; 225
    4836:	dd 4f       	sbci	r29, 0xFD	; 253
    4838:	88 83       	st	Y, r24
    483a:	99 83       	std	Y+1, r25	; 0x01
    483c:	aa 83       	std	Y+2, r26	; 0x02
    483e:	bb 83       	std	Y+3, r27	; 0x03
    4840:	cf 51       	subi	r28, 0x1F	; 31
    4842:	d2 40       	sbci	r29, 0x02	; 2

00004844 <.Loc.707>:
    4844:	8e 01       	movw	r16, r28
    4846:	03 58       	subi	r16, 0x83	; 131
    4848:	1e 4f       	sbci	r17, 0xFE	; 254
    484a:	c1 5e       	subi	r28, 0xE1	; 225
    484c:	dd 4f       	sbci	r29, 0xFD	; 253
    484e:	68 81       	ld	r22, Y
    4850:	79 81       	ldd	r23, Y+1	; 0x01
    4852:	8a 81       	ldd	r24, Y+2	; 0x02
    4854:	9b 81       	ldd	r25, Y+3	; 0x03
    4856:	cf 51       	subi	r28, 0x1F	; 31
    4858:	d2 40       	sbci	r29, 0x02	; 2
    485a:	0e 94 a9 27 	call	0x4f52	; 0x4f52 <__fixunssfsi>
    485e:	cd 53       	subi	r28, 0x3D	; 61
    4860:	dc 4f       	sbci	r29, 0xFC	; 252
    4862:	68 83       	st	Y, r22
    4864:	79 83       	std	Y+1, r23	; 0x01
    4866:	8a 83       	std	Y+2, r24	; 0x02
    4868:	9b 83       	std	Y+3, r25	; 0x03
    486a:	c3 5c       	subi	r28, 0xC3	; 195
    486c:	d3 40       	sbci	r29, 0x03	; 3
    486e:	cd 53       	subi	r28, 0x3D	; 61
    4870:	dc 4f       	sbci	r29, 0xFC	; 252
    4872:	e8 81       	ld	r30, Y
    4874:	f9 81       	ldd	r31, Y+1	; 0x01
    4876:	c3 5c       	subi	r28, 0xC3	; 195
    4878:	d3 40       	sbci	r29, 0x03	; 3
    487a:	d8 01       	movw	r26, r16
    487c:	11 96       	adiw	r26, 0x01	; 1
    487e:	fc 93       	st	X, r31
    4880:	ee 93       	st	-X, r30

00004882 <.Loc.708>:
		while(__ticks)
    4882:	26 c0       	rjmp	.+76     	; 0x48d0 <.L254>

00004884 <.L255>:
    4884:	ce 01       	movw	r24, r28
    4886:	81 58       	subi	r24, 0x81	; 129
    4888:	9e 4f       	sbci	r25, 0xFE	; 254
    488a:	20 e9       	ldi	r18, 0x90	; 144
    488c:	31 e0       	ldi	r19, 0x01	; 1
    488e:	dc 01       	movw	r26, r24
    4890:	2d 93       	st	X+, r18
    4892:	3c 93       	st	X, r19

00004894 <.LBB328>:
    4894:	ce 01       	movw	r24, r28
    4896:	81 58       	subi	r24, 0x81	; 129
    4898:	9e 4f       	sbci	r25, 0xFE	; 254
    489a:	fc 01       	movw	r30, r24
    489c:	80 81       	ld	r24, Z
    489e:	91 81       	ldd	r25, Z+1	; 0x01

000048a0 <.L1^B67>:
    48a0:	01 97       	sbiw	r24, 0x01	; 1
    48a2:	f1 f7       	brne	.-4      	; 0x48a0 <.L1^B67>
    48a4:	9e 01       	movw	r18, r28
    48a6:	21 58       	subi	r18, 0x81	; 129
    48a8:	3e 4f       	sbci	r19, 0xFE	; 254
    48aa:	d9 01       	movw	r26, r18
    48ac:	8d 93       	st	X+, r24
    48ae:	9c 93       	st	X, r25

000048b0 <.Loc.710>:
	...

000048b2 <.LBE328>:
			__ticks --;
    48b2:	ce 01       	movw	r24, r28
    48b4:	83 58       	subi	r24, 0x83	; 131
    48b6:	9e 4f       	sbci	r25, 0xFE	; 254
    48b8:	9e 01       	movw	r18, r28
    48ba:	23 58       	subi	r18, 0x83	; 131
    48bc:	3e 4f       	sbci	r19, 0xFE	; 254
    48be:	f9 01       	movw	r30, r18
    48c0:	20 81       	ld	r18, Z
    48c2:	31 81       	ldd	r19, Z+1	; 0x01
    48c4:	21 50       	subi	r18, 0x01	; 1
    48c6:	31 09       	sbc	r19, r1
    48c8:	dc 01       	movw	r26, r24
    48ca:	11 96       	adiw	r26, 0x01	; 1
    48cc:	3c 93       	st	X, r19
    48ce:	2e 93       	st	-X, r18

000048d0 <.L254>:
		while(__ticks)
    48d0:	ce 01       	movw	r24, r28
    48d2:	83 58       	subi	r24, 0x83	; 131
    48d4:	9e 4f       	sbci	r25, 0xFE	; 254
    48d6:	fc 01       	movw	r30, r24
    48d8:	80 81       	ld	r24, Z
    48da:	91 81       	ldd	r25, Z+1	; 0x01
    48dc:	00 97       	sbiw	r24, 0x00	; 0
    48de:	91 f6       	brne	.-92     	; 0x4884 <.L255>

000048e0 <.Loc.713>:
		return;
    48e0:	39 c0       	rjmp	.+114    	; 0x4954 <.L256>

000048e2 <.L384>:
		__ticks = (uint16_t)__tmp;
    48e2:	8e 01       	movw	r16, r28
    48e4:	03 58       	subi	r16, 0x83	; 131
    48e6:	1e 4f       	sbci	r17, 0xFE	; 254
    48e8:	ce 01       	movw	r24, r28
    48ea:	87 58       	subi	r24, 0x87	; 135
    48ec:	9e 4f       	sbci	r25, 0xFE	; 254
    48ee:	dc 01       	movw	r26, r24
    48f0:	6d 91       	ld	r22, X+
    48f2:	7d 91       	ld	r23, X+
    48f4:	8d 91       	ld	r24, X+
    48f6:	9c 91       	ld	r25, X
    48f8:	0e 94 a9 27 	call	0x4f52	; 0x4f52 <__fixunssfsi>
    48fc:	c9 53       	subi	r28, 0x39	; 57
    48fe:	dc 4f       	sbci	r29, 0xFC	; 252
    4900:	68 83       	st	Y, r22
    4902:	79 83       	std	Y+1, r23	; 0x01
    4904:	8a 83       	std	Y+2, r24	; 0x02
    4906:	9b 83       	std	Y+3, r25	; 0x03
    4908:	c7 5c       	subi	r28, 0xC7	; 199
    490a:	d3 40       	sbci	r29, 0x03	; 3
    490c:	c9 53       	subi	r28, 0x39	; 57
    490e:	dc 4f       	sbci	r29, 0xFC	; 252
    4910:	88 81       	ld	r24, Y
    4912:	99 81       	ldd	r25, Y+1	; 0x01
    4914:	c7 5c       	subi	r28, 0xC7	; 199
    4916:	d3 40       	sbci	r29, 0x03	; 3
    4918:	f8 01       	movw	r30, r16
    491a:	91 83       	std	Z+1, r25	; 0x01
    491c:	80 83       	st	Z, r24

0000491e <.L251>:
    491e:	ce 01       	movw	r24, r28
    4920:	8f 57       	subi	r24, 0x7F	; 127
    4922:	9e 4f       	sbci	r25, 0xFE	; 254
    4924:	9e 01       	movw	r18, r28
    4926:	23 58       	subi	r18, 0x83	; 131
    4928:	3e 4f       	sbci	r19, 0xFE	; 254
    492a:	d9 01       	movw	r26, r18
    492c:	2d 91       	ld	r18, X+
    492e:	3c 91       	ld	r19, X
    4930:	fc 01       	movw	r30, r24
    4932:	31 83       	std	Z+1, r19	; 0x01
    4934:	20 83       	st	Z, r18

00004936 <.LBB330>:
    4936:	ce 01       	movw	r24, r28
    4938:	8f 57       	subi	r24, 0x7F	; 127
    493a:	9e 4f       	sbci	r25, 0xFE	; 254
    493c:	dc 01       	movw	r26, r24
    493e:	8d 91       	ld	r24, X+
    4940:	9c 91       	ld	r25, X

00004942 <.L1^B68>:
    4942:	01 97       	sbiw	r24, 0x01	; 1
    4944:	f1 f7       	brne	.-4      	; 0x4942 <.L1^B68>
    4946:	9e 01       	movw	r18, r28
    4948:	2f 57       	subi	r18, 0x7F	; 127
    494a:	3e 4f       	sbci	r19, 0xFE	; 254
    494c:	f9 01       	movw	r30, r18
    494e:	91 83       	std	Z+1, r25	; 0x01
    4950:	80 83       	st	Z, r24

00004952 <.Loc.716>:
	...

00004954 <.L256>:
            {
                DEBOUNCE;
                h_bridge_set_percentage(0);         // h brug uit na limit switch voor de x-as //
    4954:	80 e0       	ldi	r24, 0x00	; 0
    4956:	0e 94 9b 01 	call	0x336	; 0x336 <h_bridge_set_percentage>

0000495a <.Loc.718>:
                knop_ingedruktx = 0;
    495a:	1a 86       	std	Y+10, r1	; 0x0a
    495c:	19 86       	std	Y+9, r1	; 0x09

0000495e <.L248>:
            }
            if ((PINK & (1<<PK1)) != 0)             // limit switch zet de h brug op de y-as uit //
    495e:	86 e0       	ldi	r24, 0x06	; 6
    4960:	91 e0       	ldi	r25, 0x01	; 1
    4962:	dc 01       	movw	r26, r24
    4964:	8c 91       	ld	r24, X

00004966 <.Loc.720>:
    4966:	88 2f       	mov	r24, r24
    4968:	90 e0       	ldi	r25, 0x00	; 0
    496a:	82 70       	andi	r24, 0x02	; 2
    496c:	99 27       	eor	r25, r25

0000496e <.Loc.721>:
    496e:	00 97       	sbiw	r24, 0x00	; 0
    4970:	09 f4       	brne	.+2      	; 0x4974 <L0^A+0x2>

00004972 <L0^A>:
    4972:	11 c1       	rjmp	.+546    	; 0x4b96 <.L257>
    4974:	9e 01       	movw	r18, r28
    4976:	2d 57       	subi	r18, 0x7D	; 125
    4978:	3e 4f       	sbci	r19, 0xFE	; 254
    497a:	80 e0       	ldi	r24, 0x00	; 0
    497c:	90 e0       	ldi	r25, 0x00	; 0
    497e:	a0 ef       	ldi	r26, 0xF0	; 240
    4980:	b1 e4       	ldi	r27, 0x41	; 65
    4982:	f9 01       	movw	r30, r18
    4984:	80 83       	st	Z, r24
    4986:	91 83       	std	Z+1, r25	; 0x01
    4988:	a2 83       	std	Z+2, r26	; 0x02
    498a:	b3 83       	std	Z+3, r27	; 0x03

0000498c <.LBB332>:
	__tmp = ((F_CPU) / 4e3) * __ms;
    498c:	8e 01       	movw	r16, r28
    498e:	09 57       	subi	r16, 0x79	; 121
    4990:	1e 4f       	sbci	r17, 0xFE	; 254
    4992:	ce 01       	movw	r24, r28
    4994:	8d 57       	subi	r24, 0x7D	; 125
    4996:	9e 4f       	sbci	r25, 0xFE	; 254
    4998:	20 e0       	ldi	r18, 0x00	; 0
    499a:	30 e0       	ldi	r19, 0x00	; 0
    499c:	4a e7       	ldi	r20, 0x7A	; 122
    499e:	55 e4       	ldi	r21, 0x45	; 69
    49a0:	dc 01       	movw	r26, r24
    49a2:	6d 91       	ld	r22, X+
    49a4:	7d 91       	ld	r23, X+
    49a6:	8d 91       	ld	r24, X+
    49a8:	9c 91       	ld	r25, X
    49aa:	0e 94 2a 28 	call	0x5054	; 0x5054 <__mulsf3>
    49ae:	c5 53       	subi	r28, 0x35	; 53
    49b0:	dc 4f       	sbci	r29, 0xFC	; 252
    49b2:	68 83       	st	Y, r22
    49b4:	79 83       	std	Y+1, r23	; 0x01
    49b6:	8a 83       	std	Y+2, r24	; 0x02
    49b8:	9b 83       	std	Y+3, r25	; 0x03
    49ba:	cb 5c       	subi	r28, 0xCB	; 203
    49bc:	d3 40       	sbci	r29, 0x03	; 3
    49be:	c5 53       	subi	r28, 0x35	; 53
    49c0:	dc 4f       	sbci	r29, 0xFC	; 252
    49c2:	88 81       	ld	r24, Y
    49c4:	99 81       	ldd	r25, Y+1	; 0x01
    49c6:	aa 81       	ldd	r26, Y+2	; 0x02
    49c8:	bb 81       	ldd	r27, Y+3	; 0x03
    49ca:	cb 5c       	subi	r28, 0xCB	; 203
    49cc:	d3 40       	sbci	r29, 0x03	; 3
    49ce:	f8 01       	movw	r30, r16
    49d0:	80 83       	st	Z, r24
    49d2:	91 83       	std	Z+1, r25	; 0x01
    49d4:	a2 83       	std	Z+2, r26	; 0x02
    49d6:	b3 83       	std	Z+3, r27	; 0x03

000049d8 <.Loc.723>:
	if (__tmp < 1.0)
    49d8:	ce 01       	movw	r24, r28
    49da:	89 57       	subi	r24, 0x79	; 121
    49dc:	9e 4f       	sbci	r25, 0xFE	; 254
    49de:	20 e0       	ldi	r18, 0x00	; 0
    49e0:	30 e0       	ldi	r19, 0x00	; 0
    49e2:	40 e8       	ldi	r20, 0x80	; 128
    49e4:	5f e3       	ldi	r21, 0x3F	; 63
    49e6:	dc 01       	movw	r26, r24
    49e8:	6d 91       	ld	r22, X+
    49ea:	7d 91       	ld	r23, X+
    49ec:	8d 91       	ld	r24, X+
    49ee:	9c 91       	ld	r25, X
    49f0:	0e 94 a4 27 	call	0x4f48	; 0x4f48 <__cmpsf2>
    49f4:	88 23       	and	r24, r24
    49f6:	4c f4       	brge	.+18     	; 0x4a0a <.L385>

000049f8 <.Loc.724>:
		__ticks = 1;
    49f8:	ce 01       	movw	r24, r28
    49fa:	85 57       	subi	r24, 0x75	; 117
    49fc:	9e 4f       	sbci	r25, 0xFE	; 254
    49fe:	21 e0       	ldi	r18, 0x01	; 1
    4a00:	30 e0       	ldi	r19, 0x00	; 0
    4a02:	fc 01       	movw	r30, r24
    4a04:	31 83       	std	Z+1, r19	; 0x01
    4a06:	20 83       	st	Z, r18
    4a08:	a5 c0       	rjmp	.+330    	; 0x4b54 <.L260>

00004a0a <.L385>:
	else if (__tmp > 65535)
    4a0a:	ce 01       	movw	r24, r28
    4a0c:	89 57       	subi	r24, 0x79	; 121
    4a0e:	9e 4f       	sbci	r25, 0xFE	; 254
    4a10:	20 e0       	ldi	r18, 0x00	; 0
    4a12:	3f ef       	ldi	r19, 0xFF	; 255
    4a14:	4f e7       	ldi	r20, 0x7F	; 127
    4a16:	57 e4       	ldi	r21, 0x47	; 71
    4a18:	dc 01       	movw	r26, r24
    4a1a:	6d 91       	ld	r22, X+
    4a1c:	7d 91       	ld	r23, X+
    4a1e:	8d 91       	ld	r24, X+
    4a20:	9c 91       	ld	r25, X
    4a22:	0e 94 25 28 	call	0x504a	; 0x504a <__gesf2>
    4a26:	88 23       	and	r24, r24
    4a28:	09 f0       	breq	.+2      	; 0x4a2c <L0^A>

00004a2a <L0^A>:
    4a2a:	0c f4       	brge	.+2      	; 0x4a2e <.Loc.726>

00004a2c <L0^A>:
    4a2c:	75 c0       	rjmp	.+234    	; 0x4b18 <.L386>

00004a2e <.Loc.726>:
		__ticks = (uint16_t) (__ms * 10.0);
    4a2e:	ce 01       	movw	r24, r28
    4a30:	8d 57       	subi	r24, 0x7D	; 125
    4a32:	9e 4f       	sbci	r25, 0xFE	; 254
    4a34:	20 e0       	ldi	r18, 0x00	; 0
    4a36:	30 e0       	ldi	r19, 0x00	; 0
    4a38:	40 e2       	ldi	r20, 0x20	; 32
    4a3a:	51 e4       	ldi	r21, 0x41	; 65
    4a3c:	fc 01       	movw	r30, r24
    4a3e:	60 81       	ld	r22, Z
    4a40:	71 81       	ldd	r23, Z+1	; 0x01
    4a42:	82 81       	ldd	r24, Z+2	; 0x02
    4a44:	93 81       	ldd	r25, Z+3	; 0x03
    4a46:	0e 94 2a 28 	call	0x5054	; 0x5054 <__mulsf3>
    4a4a:	c1 53       	subi	r28, 0x31	; 49
    4a4c:	dc 4f       	sbci	r29, 0xFC	; 252
    4a4e:	68 83       	st	Y, r22
    4a50:	79 83       	std	Y+1, r23	; 0x01
    4a52:	8a 83       	std	Y+2, r24	; 0x02
    4a54:	9b 83       	std	Y+3, r25	; 0x03
    4a56:	cf 5c       	subi	r28, 0xCF	; 207
    4a58:	d3 40       	sbci	r29, 0x03	; 3
    4a5a:	c1 53       	subi	r28, 0x31	; 49
    4a5c:	dc 4f       	sbci	r29, 0xFC	; 252
    4a5e:	88 81       	ld	r24, Y
    4a60:	99 81       	ldd	r25, Y+1	; 0x01
    4a62:	aa 81       	ldd	r26, Y+2	; 0x02
    4a64:	bb 81       	ldd	r27, Y+3	; 0x03
    4a66:	cf 5c       	subi	r28, 0xCF	; 207
    4a68:	d3 40       	sbci	r29, 0x03	; 3
    4a6a:	cd 5d       	subi	r28, 0xDD	; 221
    4a6c:	dd 4f       	sbci	r29, 0xFD	; 253
    4a6e:	88 83       	st	Y, r24
    4a70:	99 83       	std	Y+1, r25	; 0x01
    4a72:	aa 83       	std	Y+2, r26	; 0x02
    4a74:	bb 83       	std	Y+3, r27	; 0x03
    4a76:	c3 52       	subi	r28, 0x23	; 35
    4a78:	d2 40       	sbci	r29, 0x02	; 2

00004a7a <.Loc.727>:
    4a7a:	8e 01       	movw	r16, r28
    4a7c:	05 57       	subi	r16, 0x75	; 117
    4a7e:	1e 4f       	sbci	r17, 0xFE	; 254
    4a80:	cd 5d       	subi	r28, 0xDD	; 221
    4a82:	dd 4f       	sbci	r29, 0xFD	; 253
    4a84:	68 81       	ld	r22, Y
    4a86:	79 81       	ldd	r23, Y+1	; 0x01
    4a88:	8a 81       	ldd	r24, Y+2	; 0x02
    4a8a:	9b 81       	ldd	r25, Y+3	; 0x03
    4a8c:	c3 52       	subi	r28, 0x23	; 35
    4a8e:	d2 40       	sbci	r29, 0x02	; 2
    4a90:	0e 94 a9 27 	call	0x4f52	; 0x4f52 <__fixunssfsi>
    4a94:	cd 52       	subi	r28, 0x2D	; 45
    4a96:	dc 4f       	sbci	r29, 0xFC	; 252
    4a98:	68 83       	st	Y, r22
    4a9a:	79 83       	std	Y+1, r23	; 0x01
    4a9c:	8a 83       	std	Y+2, r24	; 0x02
    4a9e:	9b 83       	std	Y+3, r25	; 0x03
    4aa0:	c3 5d       	subi	r28, 0xD3	; 211
    4aa2:	d3 40       	sbci	r29, 0x03	; 3
    4aa4:	cd 52       	subi	r28, 0x2D	; 45
    4aa6:	dc 4f       	sbci	r29, 0xFC	; 252
    4aa8:	e8 81       	ld	r30, Y
    4aaa:	f9 81       	ldd	r31, Y+1	; 0x01
    4aac:	c3 5d       	subi	r28, 0xD3	; 211
    4aae:	d3 40       	sbci	r29, 0x03	; 3
    4ab0:	d8 01       	movw	r26, r16
    4ab2:	11 96       	adiw	r26, 0x01	; 1
    4ab4:	fc 93       	st	X, r31
    4ab6:	ee 93       	st	-X, r30

00004ab8 <.Loc.728>:
		while(__ticks)
    4ab8:	26 c0       	rjmp	.+76     	; 0x4b06 <.L263>

00004aba <.L264>:
    4aba:	ce 01       	movw	r24, r28
    4abc:	83 57       	subi	r24, 0x73	; 115
    4abe:	9e 4f       	sbci	r25, 0xFE	; 254
    4ac0:	20 e9       	ldi	r18, 0x90	; 144
    4ac2:	31 e0       	ldi	r19, 0x01	; 1
    4ac4:	dc 01       	movw	r26, r24
    4ac6:	2d 93       	st	X+, r18
    4ac8:	3c 93       	st	X, r19

00004aca <.LBB334>:
    4aca:	ce 01       	movw	r24, r28
    4acc:	83 57       	subi	r24, 0x73	; 115
    4ace:	9e 4f       	sbci	r25, 0xFE	; 254
    4ad0:	fc 01       	movw	r30, r24
    4ad2:	80 81       	ld	r24, Z
    4ad4:	91 81       	ldd	r25, Z+1	; 0x01

00004ad6 <.L1^B69>:
    4ad6:	01 97       	sbiw	r24, 0x01	; 1
    4ad8:	f1 f7       	brne	.-4      	; 0x4ad6 <.L1^B69>
    4ada:	9e 01       	movw	r18, r28
    4adc:	23 57       	subi	r18, 0x73	; 115
    4ade:	3e 4f       	sbci	r19, 0xFE	; 254
    4ae0:	d9 01       	movw	r26, r18
    4ae2:	8d 93       	st	X+, r24
    4ae4:	9c 93       	st	X, r25

00004ae6 <.Loc.730>:
	...

00004ae8 <.LBE334>:
			__ticks --;
    4ae8:	ce 01       	movw	r24, r28
    4aea:	85 57       	subi	r24, 0x75	; 117
    4aec:	9e 4f       	sbci	r25, 0xFE	; 254
    4aee:	9e 01       	movw	r18, r28
    4af0:	25 57       	subi	r18, 0x75	; 117
    4af2:	3e 4f       	sbci	r19, 0xFE	; 254
    4af4:	f9 01       	movw	r30, r18
    4af6:	20 81       	ld	r18, Z
    4af8:	31 81       	ldd	r19, Z+1	; 0x01
    4afa:	21 50       	subi	r18, 0x01	; 1
    4afc:	31 09       	sbc	r19, r1
    4afe:	dc 01       	movw	r26, r24
    4b00:	11 96       	adiw	r26, 0x01	; 1
    4b02:	3c 93       	st	X, r19
    4b04:	2e 93       	st	-X, r18

00004b06 <.L263>:
		while(__ticks)
    4b06:	ce 01       	movw	r24, r28
    4b08:	85 57       	subi	r24, 0x75	; 117
    4b0a:	9e 4f       	sbci	r25, 0xFE	; 254
    4b0c:	fc 01       	movw	r30, r24
    4b0e:	80 81       	ld	r24, Z
    4b10:	91 81       	ldd	r25, Z+1	; 0x01
    4b12:	00 97       	sbiw	r24, 0x00	; 0
    4b14:	91 f6       	brne	.-92     	; 0x4aba <.L264>

00004b16 <.Loc.733>:
		return;
    4b16:	39 c0       	rjmp	.+114    	; 0x4b8a <.L265>

00004b18 <.L386>:
		__ticks = (uint16_t)__tmp;
    4b18:	8e 01       	movw	r16, r28
    4b1a:	05 57       	subi	r16, 0x75	; 117
    4b1c:	1e 4f       	sbci	r17, 0xFE	; 254
    4b1e:	ce 01       	movw	r24, r28
    4b20:	89 57       	subi	r24, 0x79	; 121
    4b22:	9e 4f       	sbci	r25, 0xFE	; 254
    4b24:	dc 01       	movw	r26, r24
    4b26:	6d 91       	ld	r22, X+
    4b28:	7d 91       	ld	r23, X+
    4b2a:	8d 91       	ld	r24, X+
    4b2c:	9c 91       	ld	r25, X
    4b2e:	0e 94 a9 27 	call	0x4f52	; 0x4f52 <__fixunssfsi>
    4b32:	c9 52       	subi	r28, 0x29	; 41
    4b34:	dc 4f       	sbci	r29, 0xFC	; 252
    4b36:	68 83       	st	Y, r22
    4b38:	79 83       	std	Y+1, r23	; 0x01
    4b3a:	8a 83       	std	Y+2, r24	; 0x02
    4b3c:	9b 83       	std	Y+3, r25	; 0x03
    4b3e:	c7 5d       	subi	r28, 0xD7	; 215
    4b40:	d3 40       	sbci	r29, 0x03	; 3
    4b42:	c9 52       	subi	r28, 0x29	; 41
    4b44:	dc 4f       	sbci	r29, 0xFC	; 252
    4b46:	88 81       	ld	r24, Y
    4b48:	99 81       	ldd	r25, Y+1	; 0x01
    4b4a:	c7 5d       	subi	r28, 0xD7	; 215
    4b4c:	d3 40       	sbci	r29, 0x03	; 3
    4b4e:	f8 01       	movw	r30, r16
    4b50:	91 83       	std	Z+1, r25	; 0x01
    4b52:	80 83       	st	Z, r24

00004b54 <.L260>:
    4b54:	ce 01       	movw	r24, r28
    4b56:	81 57       	subi	r24, 0x71	; 113
    4b58:	9e 4f       	sbci	r25, 0xFE	; 254
    4b5a:	9e 01       	movw	r18, r28
    4b5c:	25 57       	subi	r18, 0x75	; 117
    4b5e:	3e 4f       	sbci	r19, 0xFE	; 254
    4b60:	d9 01       	movw	r26, r18
    4b62:	2d 91       	ld	r18, X+
    4b64:	3c 91       	ld	r19, X
    4b66:	fc 01       	movw	r30, r24
    4b68:	31 83       	std	Z+1, r19	; 0x01
    4b6a:	20 83       	st	Z, r18

00004b6c <.LBB336>:
    4b6c:	ce 01       	movw	r24, r28
    4b6e:	81 57       	subi	r24, 0x71	; 113
    4b70:	9e 4f       	sbci	r25, 0xFE	; 254
    4b72:	dc 01       	movw	r26, r24
    4b74:	8d 91       	ld	r24, X+
    4b76:	9c 91       	ld	r25, X

00004b78 <.L1^B70>:
    4b78:	01 97       	sbiw	r24, 0x01	; 1
    4b7a:	f1 f7       	brne	.-4      	; 0x4b78 <.L1^B70>
    4b7c:	9e 01       	movw	r18, r28
    4b7e:	21 57       	subi	r18, 0x71	; 113
    4b80:	3e 4f       	sbci	r19, 0xFE	; 254
    4b82:	f9 01       	movw	r30, r18
    4b84:	91 83       	std	Z+1, r25	; 0x01
    4b86:	80 83       	st	Z, r24

00004b88 <.Loc.736>:
	...

00004b8a <.L265>:
            {
                DEBOUNCE;
                h_bridge_set_percentage2(0);        // h brug uit na limit switch voor de y-as //
    4b8a:	80 e0       	ldi	r24, 0x00	; 0
    4b8c:	90 e0       	ldi	r25, 0x00	; 0
    4b8e:	0e 94 f3 02 	call	0x5e6	; 0x5e6 <h_bridge_set_percentage2>

00004b92 <.Loc.738>:
                knop_ingedrukty = 0;
    4b92:	1c 86       	std	Y+12, r1	; 0x0c
    4b94:	1b 86       	std	Y+11, r1	; 0x0b

00004b96 <.L257>:
            }
            if (knop_ingedruktx == 0 && knop_ingedrukty == 0) // als beide assen zijn gestopt //
    4b96:	89 85       	ldd	r24, Y+9	; 0x09
    4b98:	9a 85       	ldd	r25, Y+10	; 0x0a
    4b9a:	00 97       	sbiw	r24, 0x00	; 0
    4b9c:	09 f0       	breq	.+2      	; 0x4ba0 <.Loc.740>

00004b9e <L0^A>:
    4b9e:	4b c1       	rjmp	.+662    	; 0x4e36 <.L393>

00004ba0 <.Loc.740>:
    4ba0:	8b 85       	ldd	r24, Y+11	; 0x0b
    4ba2:	9c 85       	ldd	r25, Y+12	; 0x0c
    4ba4:	00 97       	sbiw	r24, 0x00	; 0
    4ba6:	09 f0       	breq	.+2      	; 0x4baa <.Loc.741>

00004ba8 <L0^A>:
    4ba8:	46 c1       	rjmp	.+652    	; 0x4e36 <.L393>

00004baa <.Loc.741>:
            {
                knop_ingedruktx = 1;
    4baa:	81 e0       	ldi	r24, 0x01	; 1
    4bac:	90 e0       	ldi	r25, 0x00	; 0
    4bae:	9a 87       	std	Y+10, r25	; 0x0a
    4bb0:	89 87       	std	Y+9, r24	; 0x09

00004bb2 <.Loc.742>:
                knop_ingedrukty = 1;
    4bb2:	81 e0       	ldi	r24, 0x01	; 1
    4bb4:	90 e0       	ldi	r25, 0x00	; 0
    4bb6:	9c 87       	std	Y+12, r25	; 0x0c
    4bb8:	8b 87       	std	Y+11, r24	; 0x0b

00004bba <.Loc.743>:
                stand = 1;                          // door naar case 1 //
    4bba:	81 e0       	ldi	r24, 0x01	; 1
    4bbc:	90 e0       	ldi	r25, 0x00	; 0
    4bbe:	9c 8b       	std	Y+20, r25	; 0x14
    4bc0:	8b 8b       	std	Y+19, r24	; 0x13

00004bc2 <.Loc.744>:
            }
            break;
    4bc2:	39 c1       	rjmp	.+626    	; 0x4e36 <.L393>

00004bc4 <.L14>:
        case 6: // nood toestand
            PORTH |= (1<<PH5);                       // relay gaat aan //
    4bc4:	82 e0       	ldi	r24, 0x02	; 2
    4bc6:	91 e0       	ldi	r25, 0x01	; 1
    4bc8:	dc 01       	movw	r26, r24
    4bca:	2c 91       	ld	r18, X
    4bcc:	82 e0       	ldi	r24, 0x02	; 2
    4bce:	91 e0       	ldi	r25, 0x01	; 1

00004bd0 <.Loc.746>:
    4bd0:	20 62       	ori	r18, 0x20	; 32
    4bd2:	fc 01       	movw	r30, r24
    4bd4:	20 83       	st	Z, r18

00004bd6 <.Loc.747>:
            if ((PINF & (1<<PF3)) == 0)             // noodstop wordt los gelaten //
    4bd6:	8f e2       	ldi	r24, 0x2F	; 47
    4bd8:	90 e0       	ldi	r25, 0x00	; 0
    4bda:	dc 01       	movw	r26, r24
    4bdc:	8c 91       	ld	r24, X

00004bde <.Loc.748>:
    4bde:	88 2f       	mov	r24, r24
    4be0:	90 e0       	ldi	r25, 0x00	; 0
    4be2:	88 70       	andi	r24, 0x08	; 8
    4be4:	99 27       	eor	r25, r25

00004be6 <.Loc.749>:
    4be6:	00 97       	sbiw	r24, 0x00	; 0
    4be8:	09 f0       	breq	.+2      	; 0x4bec <L0^A+0x2>

00004bea <L0^A>:
    4bea:	28 c1       	rjmp	.+592    	; 0x4e3c <.L394>
    4bec:	9e 01       	movw	r18, r28
    4bee:	2f 56       	subi	r18, 0x6F	; 111
    4bf0:	3e 4f       	sbci	r19, 0xFE	; 254
    4bf2:	80 e0       	ldi	r24, 0x00	; 0
    4bf4:	90 e0       	ldi	r25, 0x00	; 0
    4bf6:	a0 ef       	ldi	r26, 0xF0	; 240
    4bf8:	b1 e4       	ldi	r27, 0x41	; 65
    4bfa:	f9 01       	movw	r30, r18
    4bfc:	80 83       	st	Z, r24
    4bfe:	91 83       	std	Z+1, r25	; 0x01
    4c00:	a2 83       	std	Z+2, r26	; 0x02
    4c02:	b3 83       	std	Z+3, r27	; 0x03

00004c04 <.LBB338>:
	__tmp = ((F_CPU) / 4e3) * __ms;
    4c04:	8e 01       	movw	r16, r28
    4c06:	0b 56       	subi	r16, 0x6B	; 107
    4c08:	1e 4f       	sbci	r17, 0xFE	; 254
    4c0a:	ce 01       	movw	r24, r28
    4c0c:	8f 56       	subi	r24, 0x6F	; 111
    4c0e:	9e 4f       	sbci	r25, 0xFE	; 254
    4c10:	20 e0       	ldi	r18, 0x00	; 0
    4c12:	30 e0       	ldi	r19, 0x00	; 0
    4c14:	4a e7       	ldi	r20, 0x7A	; 122
    4c16:	55 e4       	ldi	r21, 0x45	; 69
    4c18:	dc 01       	movw	r26, r24
    4c1a:	6d 91       	ld	r22, X+
    4c1c:	7d 91       	ld	r23, X+
    4c1e:	8d 91       	ld	r24, X+
    4c20:	9c 91       	ld	r25, X
    4c22:	0e 94 2a 28 	call	0x5054	; 0x5054 <__mulsf3>
    4c26:	c5 52       	subi	r28, 0x25	; 37
    4c28:	dc 4f       	sbci	r29, 0xFC	; 252
    4c2a:	68 83       	st	Y, r22
    4c2c:	79 83       	std	Y+1, r23	; 0x01
    4c2e:	8a 83       	std	Y+2, r24	; 0x02
    4c30:	9b 83       	std	Y+3, r25	; 0x03
    4c32:	cb 5d       	subi	r28, 0xDB	; 219
    4c34:	d3 40       	sbci	r29, 0x03	; 3
    4c36:	c5 52       	subi	r28, 0x25	; 37
    4c38:	dc 4f       	sbci	r29, 0xFC	; 252
    4c3a:	88 81       	ld	r24, Y
    4c3c:	99 81       	ldd	r25, Y+1	; 0x01
    4c3e:	aa 81       	ldd	r26, Y+2	; 0x02
    4c40:	bb 81       	ldd	r27, Y+3	; 0x03
    4c42:	cb 5d       	subi	r28, 0xDB	; 219
    4c44:	d3 40       	sbci	r29, 0x03	; 3
    4c46:	f8 01       	movw	r30, r16
    4c48:	80 83       	st	Z, r24
    4c4a:	91 83       	std	Z+1, r25	; 0x01
    4c4c:	a2 83       	std	Z+2, r26	; 0x02
    4c4e:	b3 83       	std	Z+3, r27	; 0x03

00004c50 <.Loc.751>:
	if (__tmp < 1.0)
    4c50:	ce 01       	movw	r24, r28
    4c52:	8b 56       	subi	r24, 0x6B	; 107
    4c54:	9e 4f       	sbci	r25, 0xFE	; 254
    4c56:	20 e0       	ldi	r18, 0x00	; 0
    4c58:	30 e0       	ldi	r19, 0x00	; 0
    4c5a:	40 e8       	ldi	r20, 0x80	; 128
    4c5c:	5f e3       	ldi	r21, 0x3F	; 63
    4c5e:	dc 01       	movw	r26, r24
    4c60:	6d 91       	ld	r22, X+
    4c62:	7d 91       	ld	r23, X+
    4c64:	8d 91       	ld	r24, X+
    4c66:	9c 91       	ld	r25, X
    4c68:	0e 94 a4 27 	call	0x4f48	; 0x4f48 <__cmpsf2>
    4c6c:	88 23       	and	r24, r24
    4c6e:	4c f4       	brge	.+18     	; 0x4c82 <.L387>

00004c70 <.Loc.752>:
		__ticks = 1;
    4c70:	ce 01       	movw	r24, r28
    4c72:	87 56       	subi	r24, 0x67	; 103
    4c74:	9e 4f       	sbci	r25, 0xFE	; 254
    4c76:	21 e0       	ldi	r18, 0x01	; 1
    4c78:	30 e0       	ldi	r19, 0x00	; 0
    4c7a:	fc 01       	movw	r30, r24
    4c7c:	31 83       	std	Z+1, r19	; 0x01
    4c7e:	20 83       	st	Z, r18
    4c80:	a5 c0       	rjmp	.+330    	; 0x4dcc <.L270>

00004c82 <.L387>:
	else if (__tmp > 65535)
    4c82:	ce 01       	movw	r24, r28
    4c84:	8b 56       	subi	r24, 0x6B	; 107
    4c86:	9e 4f       	sbci	r25, 0xFE	; 254
    4c88:	20 e0       	ldi	r18, 0x00	; 0
    4c8a:	3f ef       	ldi	r19, 0xFF	; 255
    4c8c:	4f e7       	ldi	r20, 0x7F	; 127
    4c8e:	57 e4       	ldi	r21, 0x47	; 71
    4c90:	dc 01       	movw	r26, r24
    4c92:	6d 91       	ld	r22, X+
    4c94:	7d 91       	ld	r23, X+
    4c96:	8d 91       	ld	r24, X+
    4c98:	9c 91       	ld	r25, X
    4c9a:	0e 94 25 28 	call	0x504a	; 0x504a <__gesf2>
    4c9e:	88 23       	and	r24, r24
    4ca0:	09 f0       	breq	.+2      	; 0x4ca4 <L0^A>

00004ca2 <L0^A>:
    4ca2:	0c f4       	brge	.+2      	; 0x4ca6 <.Loc.754>

00004ca4 <L0^A>:
    4ca4:	75 c0       	rjmp	.+234    	; 0x4d90 <.L388>

00004ca6 <.Loc.754>:
		__ticks = (uint16_t) (__ms * 10.0);
    4ca6:	ce 01       	movw	r24, r28
    4ca8:	8f 56       	subi	r24, 0x6F	; 111
    4caa:	9e 4f       	sbci	r25, 0xFE	; 254
    4cac:	20 e0       	ldi	r18, 0x00	; 0
    4cae:	30 e0       	ldi	r19, 0x00	; 0
    4cb0:	40 e2       	ldi	r20, 0x20	; 32
    4cb2:	51 e4       	ldi	r21, 0x41	; 65
    4cb4:	fc 01       	movw	r30, r24
    4cb6:	60 81       	ld	r22, Z
    4cb8:	71 81       	ldd	r23, Z+1	; 0x01
    4cba:	82 81       	ldd	r24, Z+2	; 0x02
    4cbc:	93 81       	ldd	r25, Z+3	; 0x03
    4cbe:	0e 94 2a 28 	call	0x5054	; 0x5054 <__mulsf3>
    4cc2:	c1 52       	subi	r28, 0x21	; 33
    4cc4:	dc 4f       	sbci	r29, 0xFC	; 252
    4cc6:	68 83       	st	Y, r22
    4cc8:	79 83       	std	Y+1, r23	; 0x01
    4cca:	8a 83       	std	Y+2, r24	; 0x02
    4ccc:	9b 83       	std	Y+3, r25	; 0x03
    4cce:	cf 5d       	subi	r28, 0xDF	; 223
    4cd0:	d3 40       	sbci	r29, 0x03	; 3
    4cd2:	c1 52       	subi	r28, 0x21	; 33
    4cd4:	dc 4f       	sbci	r29, 0xFC	; 252
    4cd6:	88 81       	ld	r24, Y
    4cd8:	99 81       	ldd	r25, Y+1	; 0x01
    4cda:	aa 81       	ldd	r26, Y+2	; 0x02
    4cdc:	bb 81       	ldd	r27, Y+3	; 0x03
    4cde:	cf 5d       	subi	r28, 0xDF	; 223
    4ce0:	d3 40       	sbci	r29, 0x03	; 3
    4ce2:	c9 5d       	subi	r28, 0xD9	; 217
    4ce4:	dd 4f       	sbci	r29, 0xFD	; 253
    4ce6:	88 83       	st	Y, r24
    4ce8:	99 83       	std	Y+1, r25	; 0x01
    4cea:	aa 83       	std	Y+2, r26	; 0x02
    4cec:	bb 83       	std	Y+3, r27	; 0x03
    4cee:	c7 52       	subi	r28, 0x27	; 39
    4cf0:	d2 40       	sbci	r29, 0x02	; 2

00004cf2 <.Loc.755>:
    4cf2:	8e 01       	movw	r16, r28
    4cf4:	07 56       	subi	r16, 0x67	; 103
    4cf6:	1e 4f       	sbci	r17, 0xFE	; 254
    4cf8:	c9 5d       	subi	r28, 0xD9	; 217
    4cfa:	dd 4f       	sbci	r29, 0xFD	; 253
    4cfc:	68 81       	ld	r22, Y
    4cfe:	79 81       	ldd	r23, Y+1	; 0x01
    4d00:	8a 81       	ldd	r24, Y+2	; 0x02
    4d02:	9b 81       	ldd	r25, Y+3	; 0x03
    4d04:	c7 52       	subi	r28, 0x27	; 39
    4d06:	d2 40       	sbci	r29, 0x02	; 2
    4d08:	0e 94 a9 27 	call	0x4f52	; 0x4f52 <__fixunssfsi>
    4d0c:	cd 51       	subi	r28, 0x1D	; 29
    4d0e:	dc 4f       	sbci	r29, 0xFC	; 252
    4d10:	68 83       	st	Y, r22
    4d12:	79 83       	std	Y+1, r23	; 0x01
    4d14:	8a 83       	std	Y+2, r24	; 0x02
    4d16:	9b 83       	std	Y+3, r25	; 0x03
    4d18:	c3 5e       	subi	r28, 0xE3	; 227
    4d1a:	d3 40       	sbci	r29, 0x03	; 3
    4d1c:	cd 51       	subi	r28, 0x1D	; 29
    4d1e:	dc 4f       	sbci	r29, 0xFC	; 252
    4d20:	e8 81       	ld	r30, Y
    4d22:	f9 81       	ldd	r31, Y+1	; 0x01
    4d24:	c3 5e       	subi	r28, 0xE3	; 227
    4d26:	d3 40       	sbci	r29, 0x03	; 3
    4d28:	d8 01       	movw	r26, r16
    4d2a:	11 96       	adiw	r26, 0x01	; 1
    4d2c:	fc 93       	st	X, r31
    4d2e:	ee 93       	st	-X, r30

00004d30 <.Loc.756>:
		while(__ticks)
    4d30:	26 c0       	rjmp	.+76     	; 0x4d7e <.L273>

00004d32 <.L274>:
    4d32:	ce 01       	movw	r24, r28
    4d34:	85 56       	subi	r24, 0x65	; 101
    4d36:	9e 4f       	sbci	r25, 0xFE	; 254
    4d38:	20 e9       	ldi	r18, 0x90	; 144
    4d3a:	31 e0       	ldi	r19, 0x01	; 1
    4d3c:	dc 01       	movw	r26, r24
    4d3e:	2d 93       	st	X+, r18
    4d40:	3c 93       	st	X, r19

00004d42 <.LBB340>:
    4d42:	ce 01       	movw	r24, r28
    4d44:	85 56       	subi	r24, 0x65	; 101
    4d46:	9e 4f       	sbci	r25, 0xFE	; 254
    4d48:	fc 01       	movw	r30, r24
    4d4a:	80 81       	ld	r24, Z
    4d4c:	91 81       	ldd	r25, Z+1	; 0x01

00004d4e <.L1^B71>:
    4d4e:	01 97       	sbiw	r24, 0x01	; 1
    4d50:	f1 f7       	brne	.-4      	; 0x4d4e <.L1^B71>
    4d52:	9e 01       	movw	r18, r28
    4d54:	25 56       	subi	r18, 0x65	; 101
    4d56:	3e 4f       	sbci	r19, 0xFE	; 254
    4d58:	d9 01       	movw	r26, r18
    4d5a:	8d 93       	st	X+, r24
    4d5c:	9c 93       	st	X, r25

00004d5e <.Loc.758>:
	...

00004d60 <.LBE340>:
			__ticks --;
    4d60:	ce 01       	movw	r24, r28
    4d62:	87 56       	subi	r24, 0x67	; 103
    4d64:	9e 4f       	sbci	r25, 0xFE	; 254
    4d66:	9e 01       	movw	r18, r28
    4d68:	27 56       	subi	r18, 0x67	; 103
    4d6a:	3e 4f       	sbci	r19, 0xFE	; 254
    4d6c:	f9 01       	movw	r30, r18
    4d6e:	20 81       	ld	r18, Z
    4d70:	31 81       	ldd	r19, Z+1	; 0x01
    4d72:	21 50       	subi	r18, 0x01	; 1
    4d74:	31 09       	sbc	r19, r1
    4d76:	dc 01       	movw	r26, r24
    4d78:	11 96       	adiw	r26, 0x01	; 1
    4d7a:	3c 93       	st	X, r19
    4d7c:	2e 93       	st	-X, r18

00004d7e <.L273>:
		while(__ticks)
    4d7e:	ce 01       	movw	r24, r28
    4d80:	87 56       	subi	r24, 0x67	; 103
    4d82:	9e 4f       	sbci	r25, 0xFE	; 254
    4d84:	fc 01       	movw	r30, r24
    4d86:	80 81       	ld	r24, Z
    4d88:	91 81       	ldd	r25, Z+1	; 0x01
    4d8a:	00 97       	sbiw	r24, 0x00	; 0
    4d8c:	91 f6       	brne	.-92     	; 0x4d32 <.L274>

00004d8e <.Loc.761>:
		return;
    4d8e:	39 c0       	rjmp	.+114    	; 0x4e02 <.L275>

00004d90 <.L388>:
		__ticks = (uint16_t)__tmp;
    4d90:	8e 01       	movw	r16, r28
    4d92:	07 56       	subi	r16, 0x67	; 103
    4d94:	1e 4f       	sbci	r17, 0xFE	; 254
    4d96:	ce 01       	movw	r24, r28
    4d98:	8b 56       	subi	r24, 0x6B	; 107
    4d9a:	9e 4f       	sbci	r25, 0xFE	; 254
    4d9c:	dc 01       	movw	r26, r24
    4d9e:	6d 91       	ld	r22, X+
    4da0:	7d 91       	ld	r23, X+
    4da2:	8d 91       	ld	r24, X+
    4da4:	9c 91       	ld	r25, X
    4da6:	0e 94 a9 27 	call	0x4f52	; 0x4f52 <__fixunssfsi>
    4daa:	c9 51       	subi	r28, 0x19	; 25
    4dac:	dc 4f       	sbci	r29, 0xFC	; 252
    4dae:	68 83       	st	Y, r22
    4db0:	79 83       	std	Y+1, r23	; 0x01
    4db2:	8a 83       	std	Y+2, r24	; 0x02
    4db4:	9b 83       	std	Y+3, r25	; 0x03
    4db6:	c7 5e       	subi	r28, 0xE7	; 231
    4db8:	d3 40       	sbci	r29, 0x03	; 3
    4dba:	c9 51       	subi	r28, 0x19	; 25
    4dbc:	dc 4f       	sbci	r29, 0xFC	; 252
    4dbe:	88 81       	ld	r24, Y
    4dc0:	99 81       	ldd	r25, Y+1	; 0x01
    4dc2:	c7 5e       	subi	r28, 0xE7	; 231
    4dc4:	d3 40       	sbci	r29, 0x03	; 3
    4dc6:	f8 01       	movw	r30, r16
    4dc8:	91 83       	std	Z+1, r25	; 0x01
    4dca:	80 83       	st	Z, r24

00004dcc <.L270>:
    4dcc:	ce 01       	movw	r24, r28
    4dce:	83 56       	subi	r24, 0x63	; 99
    4dd0:	9e 4f       	sbci	r25, 0xFE	; 254
    4dd2:	9e 01       	movw	r18, r28
    4dd4:	27 56       	subi	r18, 0x67	; 103
    4dd6:	3e 4f       	sbci	r19, 0xFE	; 254
    4dd8:	d9 01       	movw	r26, r18
    4dda:	2d 91       	ld	r18, X+
    4ddc:	3c 91       	ld	r19, X
    4dde:	fc 01       	movw	r30, r24
    4de0:	31 83       	std	Z+1, r19	; 0x01
    4de2:	20 83       	st	Z, r18

00004de4 <.LBB342>:
    4de4:	ce 01       	movw	r24, r28
    4de6:	83 56       	subi	r24, 0x63	; 99
    4de8:	9e 4f       	sbci	r25, 0xFE	; 254
    4dea:	dc 01       	movw	r26, r24
    4dec:	8d 91       	ld	r24, X+
    4dee:	9c 91       	ld	r25, X

00004df0 <.L1^B72>:
    4df0:	01 97       	sbiw	r24, 0x01	; 1
    4df2:	f1 f7       	brne	.-4      	; 0x4df0 <.L1^B72>
    4df4:	9e 01       	movw	r18, r28
    4df6:	23 56       	subi	r18, 0x63	; 99
    4df8:	3e 4f       	sbci	r19, 0xFE	; 254
    4dfa:	f9 01       	movw	r30, r18
    4dfc:	91 83       	std	Z+1, r25	; 0x01
    4dfe:	80 83       	st	Z, r24

00004e00 <.Loc.764>:
	...

00004e02 <.L275>:
            {
                DEBOUNCE;
                PORTH &= ~(1<<PH5);                  // relay gaat uit //
    4e02:	82 e0       	ldi	r24, 0x02	; 2
    4e04:	91 e0       	ldi	r25, 0x01	; 1
    4e06:	dc 01       	movw	r26, r24
    4e08:	2c 91       	ld	r18, X

00004e0a <.Loc.766>:
    4e0a:	82 e0       	ldi	r24, 0x02	; 2
    4e0c:	91 e0       	ldi	r25, 0x01	; 1

00004e0e <.Loc.767>:
    4e0e:	2f 7d       	andi	r18, 0xDF	; 223
    4e10:	fc 01       	movw	r30, r24
    4e12:	20 83       	st	Z, r18

00004e14 <.Loc.768>:
                stand = 1;                          // terug naar stand 1 //
    4e14:	81 e0       	ldi	r24, 0x01	; 1
    4e16:	90 e0       	ldi	r25, 0x00	; 0
    4e18:	9c 8b       	std	Y+20, r25	; 0x14
    4e1a:	8b 8b       	std	Y+19, r24	; 0x13

00004e1c <.Loc.769>:
            }
            break;
    4e1c:	0f c0       	rjmp	.+30     	; 0x4e3c <.L394>

00004e1e <.L389>:
            break;
    4e1e:	00 00       	nop
    4e20:	0c 94 e9 05 	jmp	0xbd2	; 0xbd2 <.L276>

00004e24 <.L390>:
            break;
    4e24:	00 00       	nop
    4e26:	0c 94 e9 05 	jmp	0xbd2	; 0xbd2 <.L276>

00004e2a <.L391>:
            break;
    4e2a:	00 00       	nop
    4e2c:	0c 94 e9 05 	jmp	0xbd2	; 0xbd2 <.L276>

00004e30 <.L392>:
            break;
    4e30:	00 00       	nop
    4e32:	0c 94 e9 05 	jmp	0xbd2	; 0xbd2 <.L276>

00004e36 <.L393>:
            break;
    4e36:	00 00       	nop
    4e38:	0c 94 e9 05 	jmp	0xbd2	; 0xbd2 <.L276>

00004e3c <.L394>:
	...

00004e3e <.L15>:
        if ((PINF & (1<<PF3)) != 0)                 // noodstop //
    4e3e:	0c 94 e9 05 	jmp	0xbd2	; 0xbd2 <.L276>

00004e42 <__divmodhi4>:
    4e42:	97 fb       	bst	r25, 7

00004e44 <.Loc.1>:
    4e44:	07 2e       	mov	r0, r23

00004e46 <.Loc.2>:
    4e46:	16 f4       	brtc	.+4      	; 0x4e4c <.L^B1>

00004e48 <.Loc.3>:
    4e48:	00 94       	com	r0

00004e4a <.Loc.4>:
    4e4a:	07 d0       	rcall	.+14     	; 0x4e5a <__divmodhi4_neg1>

00004e4c <.L^B1>:
    4e4c:	77 fd       	sbrc	r23, 7

00004e4e <.Loc.6>:
    4e4e:	09 d0       	rcall	.+18     	; 0x4e62 <__divmodhi4_neg2>

00004e50 <.Loc.7>:
    4e50:	0e 94 5f 27 	call	0x4ebe	; 0x4ebe <__udivmodhi4>

00004e54 <.Loc.8>:
    4e54:	07 fc       	sbrc	r0, 7

00004e56 <.Loc.9>:
    4e56:	05 d0       	rcall	.+10     	; 0x4e62 <__divmodhi4_neg2>

00004e58 <.Loc.10>:
    4e58:	3e f4       	brtc	.+14     	; 0x4e68 <__divmodhi4_exit>

00004e5a <__divmodhi4_neg1>:
    4e5a:	90 95       	com	r25

00004e5c <.Loc.12>:
    4e5c:	81 95       	neg	r24

00004e5e <.Loc.13>:
    4e5e:	9f 4f       	sbci	r25, 0xFF	; 255

00004e60 <.Loc.14>:
    4e60:	08 95       	ret

00004e62 <__divmodhi4_neg2>:
    4e62:	70 95       	com	r23

00004e64 <.Loc.16>:
    4e64:	61 95       	neg	r22

00004e66 <.Loc.17>:
    4e66:	7f 4f       	sbci	r23, 0xFF	; 255

00004e68 <__divmodhi4_exit>:
    4e68:	08 95       	ret

00004e6a <__divmodsi4>:
    4e6a:	05 2e       	mov	r0, r21

00004e6c <.Loc.1>:
    4e6c:	97 fb       	bst	r25, 7

00004e6e <.Loc.2>:
    4e6e:	1e f4       	brtc	.+6      	; 0x4e76 <.L^B1>

00004e70 <.Loc.3>:
    4e70:	00 94       	com	r0

00004e72 <.Loc.4>:
    4e72:	0e 94 4c 27 	call	0x4e98	; 0x4e98 <__negsi2>

00004e76 <.L^B1>:
    4e76:	57 fd       	sbrc	r21, 7

00004e78 <.Loc.6>:
    4e78:	07 d0       	rcall	.+14     	; 0x4e88 <__divmodsi4_neg2>

00004e7a <.Loc.7>:
    4e7a:	0e 94 73 27 	call	0x4ee6	; 0x4ee6 <__udivmodsi4>

00004e7e <.Loc.8>:
    4e7e:	07 fc       	sbrc	r0, 7

00004e80 <.Loc.9>:
    4e80:	03 d0       	rcall	.+6      	; 0x4e88 <__divmodsi4_neg2>

00004e82 <.Loc.10>:
    4e82:	4e f4       	brtc	.+18     	; 0x4e96 <__divmodsi4_exit>

00004e84 <.Loc.11>:
    4e84:	0c 94 4c 27 	jmp	0x4e98	; 0x4e98 <__negsi2>

00004e88 <__divmodsi4_neg2>:
    4e88:	50 95       	com	r21

00004e8a <.Loc.13>:
    4e8a:	40 95       	com	r20

00004e8c <.Loc.14>:
    4e8c:	30 95       	com	r19

00004e8e <.Loc.15>:
    4e8e:	21 95       	neg	r18

00004e90 <.Loc.16>:
    4e90:	3f 4f       	sbci	r19, 0xFF	; 255

00004e92 <.Loc.17>:
    4e92:	4f 4f       	sbci	r20, 0xFF	; 255

00004e94 <.Loc.18>:
    4e94:	5f 4f       	sbci	r21, 0xFF	; 255

00004e96 <__divmodsi4_exit>:
    4e96:	08 95       	ret

00004e98 <__negsi2>:
    4e98:	90 95       	com	r25
    4e9a:	80 95       	com	r24
    4e9c:	70 95       	com	r23
    4e9e:	61 95       	neg	r22
    4ea0:	7f 4f       	sbci	r23, 0xFF	; 255
    4ea2:	8f 4f       	sbci	r24, 0xFF	; 255
    4ea4:	9f 4f       	sbci	r25, 0xFF	; 255

00004ea6 <.Loc.1>:
    4ea6:	08 95       	ret

00004ea8 <__muluhisi3>:
    4ea8:	0e 94 95 27 	call	0x4f2a	; 0x4f2a <__umulhisi3>

00004eac <.Loc.1>:
    4eac:	a5 9f       	mul	r26, r21

00004eae <.Loc.2>:
    4eae:	90 0d       	add	r25, r0

00004eb0 <.Loc.3>:
    4eb0:	b4 9f       	mul	r27, r20

00004eb2 <.Loc.4>:
    4eb2:	90 0d       	add	r25, r0

00004eb4 <.Loc.5>:
    4eb4:	a4 9f       	mul	r26, r20

00004eb6 <.Loc.6>:
    4eb6:	80 0d       	add	r24, r0

00004eb8 <.Loc.7>:
    4eb8:	91 1d       	adc	r25, r1

00004eba <.Loc.8>:
    4eba:	11 24       	eor	r1, r1

00004ebc <.Loc.9>:
    4ebc:	08 95       	ret

00004ebe <__udivmodhi4>:
    4ebe:	aa 1b       	sub	r26, r26

00004ec0 <.Loc.1>:
    4ec0:	bb 1b       	sub	r27, r27

00004ec2 <.Loc.2>:
    4ec2:	51 e1       	ldi	r21, 0x11	; 17

00004ec4 <.Loc.3>:
    4ec4:	07 c0       	rjmp	.+14     	; 0x4ed4 <__udivmodhi4_ep>

00004ec6 <__udivmodhi4_loop>:
    4ec6:	aa 1f       	adc	r26, r26

00004ec8 <.Loc.5>:
    4ec8:	bb 1f       	adc	r27, r27

00004eca <.Loc.6>:
    4eca:	a6 17       	cp	r26, r22

00004ecc <.Loc.7>:
    4ecc:	b7 07       	cpc	r27, r23

00004ece <.Loc.8>:
    4ece:	10 f0       	brcs	.+4      	; 0x4ed4 <__udivmodhi4_ep>

00004ed0 <.Loc.9>:
    4ed0:	a6 1b       	sub	r26, r22

00004ed2 <.Loc.10>:
    4ed2:	b7 0b       	sbc	r27, r23

00004ed4 <__udivmodhi4_ep>:
    4ed4:	88 1f       	adc	r24, r24

00004ed6 <.Loc.12>:
    4ed6:	99 1f       	adc	r25, r25

00004ed8 <.Loc.13>:
    4ed8:	5a 95       	dec	r21

00004eda <.Loc.14>:
    4eda:	a9 f7       	brne	.-22     	; 0x4ec6 <__udivmodhi4_loop>

00004edc <.Loc.15>:
    4edc:	80 95       	com	r24

00004ede <.Loc.16>:
    4ede:	90 95       	com	r25

00004ee0 <.Loc.17>:
    4ee0:	bc 01       	movw	r22, r24

00004ee2 <.Loc.18>:
    4ee2:	cd 01       	movw	r24, r26

00004ee4 <.Loc.19>:
    4ee4:	08 95       	ret

00004ee6 <__udivmodsi4>:
    4ee6:	a1 e2       	ldi	r26, 0x21	; 33

00004ee8 <.Loc.1>:
    4ee8:	1a 2e       	mov	r1, r26

00004eea <.Loc.2>:
    4eea:	aa 1b       	sub	r26, r26

00004eec <.Loc.3>:
    4eec:	bb 1b       	sub	r27, r27

00004eee <.Loc.4>:
    4eee:	fd 01       	movw	r30, r26

00004ef0 <.Loc.5>:
    4ef0:	0d c0       	rjmp	.+26     	; 0x4f0c <__udivmodsi4_ep>

00004ef2 <__udivmodsi4_loop>:
    4ef2:	aa 1f       	adc	r26, r26

00004ef4 <.Loc.7>:
    4ef4:	bb 1f       	adc	r27, r27

00004ef6 <.Loc.8>:
    4ef6:	ee 1f       	adc	r30, r30

00004ef8 <.Loc.9>:
    4ef8:	ff 1f       	adc	r31, r31

00004efa <.Loc.10>:
    4efa:	a2 17       	cp	r26, r18

00004efc <.Loc.11>:
    4efc:	b3 07       	cpc	r27, r19

00004efe <.Loc.12>:
    4efe:	e4 07       	cpc	r30, r20

00004f00 <.Loc.13>:
    4f00:	f5 07       	cpc	r31, r21

00004f02 <.Loc.14>:
    4f02:	20 f0       	brcs	.+8      	; 0x4f0c <__udivmodsi4_ep>

00004f04 <.Loc.15>:
    4f04:	a2 1b       	sub	r26, r18

00004f06 <.Loc.16>:
    4f06:	b3 0b       	sbc	r27, r19

00004f08 <.Loc.17>:
    4f08:	e4 0b       	sbc	r30, r20

00004f0a <.Loc.18>:
    4f0a:	f5 0b       	sbc	r31, r21

00004f0c <__udivmodsi4_ep>:
    4f0c:	66 1f       	adc	r22, r22

00004f0e <.Loc.20>:
    4f0e:	77 1f       	adc	r23, r23

00004f10 <.Loc.21>:
    4f10:	88 1f       	adc	r24, r24

00004f12 <.Loc.22>:
    4f12:	99 1f       	adc	r25, r25

00004f14 <.Loc.23>:
    4f14:	1a 94       	dec	r1

00004f16 <.Loc.24>:
    4f16:	69 f7       	brne	.-38     	; 0x4ef2 <__udivmodsi4_loop>

00004f18 <.Loc.25>:
    4f18:	60 95       	com	r22

00004f1a <.Loc.26>:
    4f1a:	70 95       	com	r23

00004f1c <.Loc.27>:
    4f1c:	80 95       	com	r24

00004f1e <.Loc.28>:
    4f1e:	90 95       	com	r25

00004f20 <.Loc.29>:
    4f20:	9b 01       	movw	r18, r22

00004f22 <.Loc.30>:
    4f22:	ac 01       	movw	r20, r24

00004f24 <.Loc.31>:
    4f24:	bd 01       	movw	r22, r26

00004f26 <.Loc.32>:
    4f26:	cf 01       	movw	r24, r30

00004f28 <.Loc.33>:
    4f28:	08 95       	ret

00004f2a <__umulhisi3>:
    4f2a:	a2 9f       	mul	r26, r18

00004f2c <.Loc.1>:
    4f2c:	b0 01       	movw	r22, r0

00004f2e <.Loc.2>:
    4f2e:	b3 9f       	mul	r27, r19

00004f30 <.Loc.3>:
    4f30:	c0 01       	movw	r24, r0

00004f32 <.Loc.4>:
    4f32:	a3 9f       	mul	r26, r19

00004f34 <.Loc.5>:
    4f34:	70 0d       	add	r23, r0

00004f36 <.Loc.6>:
    4f36:	81 1d       	adc	r24, r1

00004f38 <.Loc.7>:
    4f38:	11 24       	eor	r1, r1

00004f3a <.Loc.8>:
    4f3a:	91 1d       	adc	r25, r1

00004f3c <.Loc.9>:
    4f3c:	b2 9f       	mul	r27, r18

00004f3e <.Loc.10>:
    4f3e:	70 0d       	add	r23, r0

00004f40 <.Loc.11>:
    4f40:	81 1d       	adc	r24, r1

00004f42 <.Loc.12>:
    4f42:	11 24       	eor	r1, r1

00004f44 <.Loc.13>:
    4f44:	91 1d       	adc	r25, r1

00004f46 <.Loc.14>:
    4f46:	08 95       	ret

00004f48 <__cmpsf2>:
    4f48:	0e 94 d8 27 	call	0x4fb0	; 0x4fb0 <__fp_cmp>
    4f4c:	08 f4       	brcc	.+2      	; 0x4f50 <.L1^B1>
    4f4e:	81 e0       	ldi	r24, 0x01	; 1

00004f50 <.L1^B1>:
    4f50:	08 95       	ret

00004f52 <__fixunssfsi>:
    4f52:	0e 94 04 28 	call	0x5008	; 0x5008 <__fp_splitA>
    4f56:	88 f0       	brcs	.+34     	; 0x4f7a <.L_err>
    4f58:	9f 57       	subi	r25, 0x7F	; 127
    4f5a:	98 f0       	brcs	.+38     	; 0x4f82 <.L_zr>
    4f5c:	b9 2f       	mov	r27, r25
    4f5e:	99 27       	eor	r25, r25
    4f60:	b7 51       	subi	r27, 0x17	; 23
    4f62:	b0 f0       	brcs	.+44     	; 0x4f90 <.L4^B1>
    4f64:	e1 f0       	breq	.+56     	; 0x4f9e <.L_sign>

00004f66 <.L1^B1>:
    4f66:	66 0f       	add	r22, r22
    4f68:	77 1f       	adc	r23, r23
    4f6a:	88 1f       	adc	r24, r24
    4f6c:	99 1f       	adc	r25, r25
    4f6e:	1a f0       	brmi	.+6      	; 0x4f76 <.L2^B1>
    4f70:	ba 95       	dec	r27
    4f72:	c9 f7       	brne	.-14     	; 0x4f66 <.L1^B1>
    4f74:	14 c0       	rjmp	.+40     	; 0x4f9e <.L_sign>

00004f76 <.L2^B1>:
    4f76:	b1 30       	cpi	r27, 0x01	; 1
    4f78:	91 f0       	breq	.+36     	; 0x4f9e <.L_sign>

00004f7a <.L_err>:
    4f7a:	0e 94 1e 28 	call	0x503c	; 0x503c <__fp_zero>
    4f7e:	b1 e0       	ldi	r27, 0x01	; 1
    4f80:	08 95       	ret

00004f82 <.L_zr>:
    4f82:	0c 94 1e 28 	jmp	0x503c	; 0x503c <__fp_zero>

00004f86 <.L3^B1>:
    4f86:	67 2f       	mov	r22, r23
    4f88:	78 2f       	mov	r23, r24
    4f8a:	88 27       	eor	r24, r24
    4f8c:	b8 5f       	subi	r27, 0xF8	; 248
    4f8e:	39 f0       	breq	.+14     	; 0x4f9e <.L_sign>

00004f90 <.L4^B1>:
    4f90:	b9 3f       	cpi	r27, 0xF9	; 249
    4f92:	cc f3       	brlt	.-14     	; 0x4f86 <.L3^B1>

00004f94 <.L5^B1>:
    4f94:	86 95       	lsr	r24
    4f96:	77 95       	ror	r23
    4f98:	67 95       	ror	r22
    4f9a:	b3 95       	inc	r27
    4f9c:	d9 f7       	brne	.-10     	; 0x4f94 <.L5^B1>

00004f9e <.L_sign>:
    4f9e:	3e f4       	brtc	.+14     	; 0x4fae <.L6^B1>
    4fa0:	90 95       	com	r25
    4fa2:	80 95       	com	r24
    4fa4:	70 95       	com	r23
    4fa6:	61 95       	neg	r22
    4fa8:	7f 4f       	sbci	r23, 0xFF	; 255
    4faa:	8f 4f       	sbci	r24, 0xFF	; 255
    4fac:	9f 4f       	sbci	r25, 0xFF	; 255

00004fae <.L6^B1>:
    4fae:	08 95       	ret

00004fb0 <__fp_cmp>:
    4fb0:	99 0f       	add	r25, r25
    4fb2:	00 08       	sbc	r0, r0
    4fb4:	55 0f       	add	r21, r21
    4fb6:	aa 0b       	sbc	r26, r26
    4fb8:	e0 e8       	ldi	r30, 0x80	; 128
    4fba:	fe ef       	ldi	r31, 0xFE	; 254
    4fbc:	16 16       	cp	r1, r22
    4fbe:	17 06       	cpc	r1, r23
    4fc0:	e8 07       	cpc	r30, r24
    4fc2:	f9 07       	cpc	r31, r25
    4fc4:	c0 f0       	brcs	.+48     	; 0x4ff6 <.L9^B1>
    4fc6:	12 16       	cp	r1, r18
    4fc8:	13 06       	cpc	r1, r19
    4fca:	e4 07       	cpc	r30, r20
    4fcc:	f5 07       	cpc	r31, r21
    4fce:	98 f0       	brcs	.+38     	; 0x4ff6 <.L9^B1>
    4fd0:	62 1b       	sub	r22, r18
    4fd2:	73 0b       	sbc	r23, r19
    4fd4:	84 0b       	sbc	r24, r20
    4fd6:	95 0b       	sbc	r25, r21
    4fd8:	39 f4       	brne	.+14     	; 0x4fe8 <.L1^B1>
    4fda:	0a 26       	eor	r0, r26
    4fdc:	61 f0       	breq	.+24     	; 0x4ff6 <.L9^B1>
    4fde:	23 2b       	or	r18, r19
    4fe0:	24 2b       	or	r18, r20
    4fe2:	25 2b       	or	r18, r21
    4fe4:	21 f4       	brne	.+8      	; 0x4fee <.L2^B1>
    4fe6:	08 95       	ret

00004fe8 <.L1^B1>:
    4fe8:	0a 26       	eor	r0, r26
    4fea:	09 f4       	brne	.+2      	; 0x4fee <.L2^B1>
    4fec:	a1 40       	sbci	r26, 0x01	; 1

00004fee <.L2^B1>:
    4fee:	a6 95       	lsr	r26
    4ff0:	8f ef       	ldi	r24, 0xFF	; 255
    4ff2:	81 1d       	adc	r24, r1
    4ff4:	81 1d       	adc	r24, r1

00004ff6 <.L9^B1>:
    4ff6:	08 95       	ret

00004ff8 <__fp_split3>:
    4ff8:	57 fd       	sbrc	r21, 7
    4ffa:	90 58       	subi	r25, 0x80	; 128
    4ffc:	44 0f       	add	r20, r20
    4ffe:	55 1f       	adc	r21, r21
    5000:	59 f0       	breq	.+22     	; 0x5018 <.L4^B1>
    5002:	5f 3f       	cpi	r21, 0xFF	; 255
    5004:	71 f0       	breq	.+28     	; 0x5022 <.L5^B1>

00005006 <.L1^B1>:
    5006:	47 95       	ror	r20

00005008 <__fp_splitA>:
    5008:	88 0f       	add	r24, r24
    500a:	97 fb       	bst	r25, 7
    500c:	99 1f       	adc	r25, r25
    500e:	61 f0       	breq	.+24     	; 0x5028 <.L6^B1>
    5010:	9f 3f       	cpi	r25, 0xFF	; 255
    5012:	79 f0       	breq	.+30     	; 0x5032 <.L7^B1>

00005014 <.L3^B1>:
    5014:	87 95       	ror	r24
    5016:	08 95       	ret

00005018 <.L4^B1>:
    5018:	12 16       	cp	r1, r18
    501a:	13 06       	cpc	r1, r19
    501c:	14 06       	cpc	r1, r20
    501e:	55 1f       	adc	r21, r21
    5020:	f2 cf       	rjmp	.-28     	; 0x5006 <.L1^B1>

00005022 <.L5^B1>:
    5022:	46 95       	lsr	r20
    5024:	f1 df       	rcall	.-30     	; 0x5008 <__fp_splitA>
    5026:	08 c0       	rjmp	.+16     	; 0x5038 <.L8^B1>

00005028 <.L6^B1>:
    5028:	16 16       	cp	r1, r22
    502a:	17 06       	cpc	r1, r23
    502c:	18 06       	cpc	r1, r24
    502e:	99 1f       	adc	r25, r25
    5030:	f1 cf       	rjmp	.-30     	; 0x5014 <.L3^B1>

00005032 <.L7^B1>:
    5032:	86 95       	lsr	r24
    5034:	71 05       	cpc	r23, r1
    5036:	61 05       	cpc	r22, r1

00005038 <.L8^B1>:
    5038:	08 94       	sec
    503a:	08 95       	ret

0000503c <__fp_zero>:
    503c:	e8 94       	clt

0000503e <__fp_szero>:
    503e:	bb 27       	eor	r27, r27
    5040:	66 27       	eor	r22, r22
    5042:	77 27       	eor	r23, r23
    5044:	cb 01       	movw	r24, r22
    5046:	97 f9       	bld	r25, 7
    5048:	08 95       	ret

0000504a <__gesf2>:
    504a:	0e 94 d8 27 	call	0x4fb0	; 0x4fb0 <__fp_cmp>
    504e:	08 f4       	brcc	.+2      	; 0x5052 <.L1^B1>
    5050:	8f ef       	ldi	r24, 0xFF	; 255

00005052 <.L1^B1>:
    5052:	08 95       	ret

00005054 <__mulsf3>:
    5054:	0e 94 3d 28 	call	0x507a	; 0x507a <__mulsf3x>
    5058:	0c 94 ae 28 	jmp	0x515c	; 0x515c <__fp_round>

0000505c <.L^B1>:
    505c:	0e 94 a0 28 	call	0x5140	; 0x5140 <__fp_pscA>
    5060:	38 f0       	brcs	.+14     	; 0x5070 <.L1^B1>
    5062:	0e 94 a7 28 	call	0x514e	; 0x514e <__fp_pscB>
    5066:	20 f0       	brcs	.+8      	; 0x5070 <.L1^B1>
    5068:	95 23       	and	r25, r21
    506a:	11 f0       	breq	.+4      	; 0x5070 <.L1^B1>
    506c:	0c 94 97 28 	jmp	0x512e	; 0x512e <__fp_inf>

00005070 <.L1^B1>:
    5070:	0c 94 9d 28 	jmp	0x513a	; 0x513a <__fp_nan>

00005074 <.L2^B1>:
    5074:	11 24       	eor	r1, r1
    5076:	0c 94 1f 28 	jmp	0x503e	; 0x503e <__fp_szero>

0000507a <__mulsf3x>:
    507a:	0e 94 fc 27 	call	0x4ff8	; 0x4ff8 <__fp_split3>
    507e:	70 f3       	brcs	.-36     	; 0x505c <.L^B1>

00005080 <__mulsf3_pse>:
    5080:	95 9f       	mul	r25, r21
    5082:	c1 f3       	breq	.-16     	; 0x5074 <.L2^B1>
    5084:	95 0f       	add	r25, r21
    5086:	50 e0       	ldi	r21, 0x00	; 0
    5088:	55 1f       	adc	r21, r21
    508a:	62 9f       	mul	r22, r18
    508c:	f0 01       	movw	r30, r0
    508e:	72 9f       	mul	r23, r18
    5090:	bb 27       	eor	r27, r27
    5092:	f0 0d       	add	r31, r0
    5094:	b1 1d       	adc	r27, r1
    5096:	63 9f       	mul	r22, r19
    5098:	aa 27       	eor	r26, r26
    509a:	f0 0d       	add	r31, r0
    509c:	b1 1d       	adc	r27, r1
    509e:	aa 1f       	adc	r26, r26
    50a0:	64 9f       	mul	r22, r20
    50a2:	66 27       	eor	r22, r22
    50a4:	b0 0d       	add	r27, r0
    50a6:	a1 1d       	adc	r26, r1
    50a8:	66 1f       	adc	r22, r22
    50aa:	82 9f       	mul	r24, r18
    50ac:	22 27       	eor	r18, r18
    50ae:	b0 0d       	add	r27, r0
    50b0:	a1 1d       	adc	r26, r1
    50b2:	62 1f       	adc	r22, r18
    50b4:	73 9f       	mul	r23, r19
    50b6:	b0 0d       	add	r27, r0
    50b8:	a1 1d       	adc	r26, r1
    50ba:	62 1f       	adc	r22, r18
    50bc:	83 9f       	mul	r24, r19
    50be:	a0 0d       	add	r26, r0
    50c0:	61 1d       	adc	r22, r1
    50c2:	22 1f       	adc	r18, r18
    50c4:	74 9f       	mul	r23, r20
    50c6:	33 27       	eor	r19, r19
    50c8:	a0 0d       	add	r26, r0
    50ca:	61 1d       	adc	r22, r1
    50cc:	23 1f       	adc	r18, r19
    50ce:	84 9f       	mul	r24, r20
    50d0:	60 0d       	add	r22, r0
    50d2:	21 1d       	adc	r18, r1
    50d4:	82 2f       	mov	r24, r18
    50d6:	76 2f       	mov	r23, r22
    50d8:	6a 2f       	mov	r22, r26
    50da:	11 24       	eor	r1, r1
    50dc:	9f 57       	subi	r25, 0x7F	; 127
    50de:	50 40       	sbci	r21, 0x00	; 0
    50e0:	9a f0       	brmi	.+38     	; 0x5108 <.L13^B1>
    50e2:	f1 f0       	breq	.+60     	; 0x5120 <.L15^B1>

000050e4 <.L10^B1>:
    50e4:	88 23       	and	r24, r24
    50e6:	4a f0       	brmi	.+18     	; 0x50fa <.L11^B1>
    50e8:	ee 0f       	add	r30, r30
    50ea:	ff 1f       	adc	r31, r31
    50ec:	bb 1f       	adc	r27, r27
    50ee:	66 1f       	adc	r22, r22
    50f0:	77 1f       	adc	r23, r23
    50f2:	88 1f       	adc	r24, r24
    50f4:	91 50       	subi	r25, 0x01	; 1
    50f6:	50 40       	sbci	r21, 0x00	; 0
    50f8:	a9 f7       	brne	.-22     	; 0x50e4 <.L10^B1>

000050fa <.L11^B1>:
    50fa:	9e 3f       	cpi	r25, 0xFE	; 254
    50fc:	51 05       	cpc	r21, r1
    50fe:	80 f0       	brcs	.+32     	; 0x5120 <.L15^B1>
    5100:	0c 94 97 28 	jmp	0x512e	; 0x512e <__fp_inf>

00005104 <.L12^B1>:
    5104:	0c 94 1f 28 	jmp	0x503e	; 0x503e <__fp_szero>

00005108 <.L13^B1>:
    5108:	5f 3f       	cpi	r21, 0xFF	; 255
    510a:	e4 f3       	brlt	.-8      	; 0x5104 <.L12^B1>
    510c:	98 3e       	cpi	r25, 0xE8	; 232
    510e:	d4 f3       	brlt	.-12     	; 0x5104 <.L12^B1>

00005110 <.L14^B1>:
    5110:	86 95       	lsr	r24
    5112:	77 95       	ror	r23
    5114:	67 95       	ror	r22
    5116:	b7 95       	ror	r27
    5118:	f7 95       	ror	r31
    511a:	e7 95       	ror	r30
    511c:	9f 5f       	subi	r25, 0xFF	; 255
    511e:	c1 f7       	brne	.-16     	; 0x5110 <.L14^B1>

00005120 <.L15^B1>:
    5120:	fe 2b       	or	r31, r30
    5122:	88 0f       	add	r24, r24
    5124:	91 1d       	adc	r25, r1
    5126:	96 95       	lsr	r25
    5128:	87 95       	ror	r24
    512a:	97 f9       	bld	r25, 7
    512c:	08 95       	ret

0000512e <__fp_inf>:
    512e:	97 f9       	bld	r25, 7
    5130:	9f 67       	ori	r25, 0x7F	; 127
    5132:	80 e8       	ldi	r24, 0x80	; 128
    5134:	70 e0       	ldi	r23, 0x00	; 0
    5136:	60 e0       	ldi	r22, 0x00	; 0
    5138:	08 95       	ret

0000513a <__fp_nan>:
    513a:	9f ef       	ldi	r25, 0xFF	; 255
    513c:	80 ec       	ldi	r24, 0xC0	; 192
    513e:	08 95       	ret

00005140 <__fp_pscA>:
    5140:	00 24       	eor	r0, r0
    5142:	0a 94       	dec	r0
    5144:	16 16       	cp	r1, r22
    5146:	17 06       	cpc	r1, r23
    5148:	18 06       	cpc	r1, r24
    514a:	09 06       	cpc	r0, r25
    514c:	08 95       	ret

0000514e <__fp_pscB>:
    514e:	00 24       	eor	r0, r0
    5150:	0a 94       	dec	r0
    5152:	12 16       	cp	r1, r18
    5154:	13 06       	cpc	r1, r19
    5156:	14 06       	cpc	r1, r20
    5158:	05 06       	cpc	r0, r21
    515a:	08 95       	ret

0000515c <__fp_round>:
    515c:	09 2e       	mov	r0, r25
    515e:	03 94       	inc	r0
    5160:	00 0c       	add	r0, r0
    5162:	11 f4       	brne	.+4      	; 0x5168 <.L1^B1>
    5164:	88 23       	and	r24, r24
    5166:	52 f0       	brmi	.+20     	; 0x517c <.L3^B1>

00005168 <.L1^B1>:
    5168:	bb 0f       	add	r27, r27
    516a:	40 f4       	brcc	.+16     	; 0x517c <.L3^B1>
    516c:	bf 2b       	or	r27, r31
    516e:	11 f4       	brne	.+4      	; 0x5174 <.L2^B1>
    5170:	60 ff       	sbrs	r22, 0
    5172:	04 c0       	rjmp	.+8      	; 0x517c <.L3^B1>

00005174 <.L2^B1>:
    5174:	6f 5f       	subi	r22, 0xFF	; 255
    5176:	7f 4f       	sbci	r23, 0xFF	; 255
    5178:	8f 4f       	sbci	r24, 0xFF	; 255
    517a:	9f 4f       	sbci	r25, 0xFF	; 255

0000517c <.L3^B1>:
    517c:	08 95       	ret

0000517e <_exit>:
    517e:	f8 94       	cli

00005180 <__stop_program>:
    5180:	ff cf       	rjmp	.-2      	; 0x5180 <__stop_program>
