
bin\Debug\RotaryEncoder.elf:     file format elf32-avr

Sections:
Idx Name          Size      VMA       LMA       File off  Algn
  0 .data         00000000  00800200  000031bc  00003270  2**0
                  CONTENTS, ALLOC, LOAD, DATA
  1 .text         000031bc  00000000  00000000  000000b4  2**1
                  CONTENTS, ALLOC, LOAD, READONLY, CODE
  2 .bss          0000000c  00800200  00800200  00003270  2**0
                  ALLOC
  3 .fuse         00000003  00820000  00820000  00003270  2**0
                  CONTENTS, ALLOC, LOAD, DATA
  4 .comment      00000012  00000000  00000000  00003273  2**0
                  CONTENTS, READONLY
  5 .note.gnu.avr.deviceinfo 00000040  00000000  00000000  00003288  2**2
                  CONTENTS, READONLY, OCTETS
  6 .debug_aranges 000000f8  00000000  00000000  000032c8  2**3
                  CONTENTS, READONLY, DEBUGGING, OCTETS
  7 .debug_info   0000182e  00000000  00000000  000033c0  2**0
                  CONTENTS, READONLY, DEBUGGING, OCTETS
  8 .debug_abbrev 00000e71  00000000  00000000  00004bee  2**0
                  CONTENTS, READONLY, DEBUGGING, OCTETS
  9 .debug_line   000017a3  00000000  00000000  00005a5f  2**0
                  CONTENTS, READONLY, DEBUGGING, OCTETS
 10 .debug_frame  000002c8  00000000  00000000  00007204  2**2
                  CONTENTS, READONLY, DEBUGGING, OCTETS
 11 .debug_str    00000677  00000000  00000000  000074cc  2**0
                  CONTENTS, READONLY, DEBUGGING, OCTETS
 12 .debug_line_str 0000019b  00000000  00000000  00007b43  2**0
                  CONTENTS, READONLY, DEBUGGING, OCTETS

Disassembly of section .text:

00000000 <__vectors>:
       0:	0c 94 72 00 	jmp	0xe4	; 0xe4 <__ctors_end>
       4:	0c 94 86 00 	jmp	0x10c	; 0x10c <__bad_interrupt>
       8:	0c 94 86 00 	jmp	0x10c	; 0x10c <__bad_interrupt>
       c:	0c 94 86 00 	jmp	0x10c	; 0x10c <__bad_interrupt>
      10:	0c 94 86 00 	jmp	0x10c	; 0x10c <__bad_interrupt>
      14:	0c 94 86 00 	jmp	0x10c	; 0x10c <__bad_interrupt>
      18:	0c 94 86 00 	jmp	0x10c	; 0x10c <__bad_interrupt>
      1c:	0c 94 86 00 	jmp	0x10c	; 0x10c <__bad_interrupt>
      20:	0c 94 86 00 	jmp	0x10c	; 0x10c <__bad_interrupt>
      24:	0c 94 86 00 	jmp	0x10c	; 0x10c <__bad_interrupt>
      28:	0c 94 86 00 	jmp	0x10c	; 0x10c <__bad_interrupt>
      2c:	0c 94 86 00 	jmp	0x10c	; 0x10c <__bad_interrupt>
      30:	0c 94 86 00 	jmp	0x10c	; 0x10c <__bad_interrupt>
      34:	0c 94 4f 02 	jmp	0x49e	; 0x49e <__vector_13>
      38:	0c 94 7d 02 	jmp	0x4fa	; 0x4fa <__vector_14>
      3c:	0c 94 e0 01 	jmp	0x3c0	; 0x3c0 <__vector_15>
      40:	0c 94 86 00 	jmp	0x10c	; 0x10c <__bad_interrupt>
      44:	0c 94 86 00 	jmp	0x10c	; 0x10c <__bad_interrupt>
      48:	0c 94 86 00 	jmp	0x10c	; 0x10c <__bad_interrupt>
      4c:	0c 94 86 00 	jmp	0x10c	; 0x10c <__bad_interrupt>
      50:	0c 94 86 00 	jmp	0x10c	; 0x10c <__bad_interrupt>
      54:	0c 94 f7 00 	jmp	0x1ee	; 0x1ee <__vector_21>
      58:	0c 94 25 01 	jmp	0x24a	; 0x24a <__vector_22>
      5c:	0c 94 88 00 	jmp	0x110	; 0x110 <__vector_23>
      60:	0c 94 86 00 	jmp	0x10c	; 0x10c <__bad_interrupt>
      64:	0c 94 86 00 	jmp	0x10c	; 0x10c <__bad_interrupt>
      68:	0c 94 86 00 	jmp	0x10c	; 0x10c <__bad_interrupt>
      6c:	0c 94 86 00 	jmp	0x10c	; 0x10c <__bad_interrupt>
      70:	0c 94 86 00 	jmp	0x10c	; 0x10c <__bad_interrupt>
      74:	0c 94 86 00 	jmp	0x10c	; 0x10c <__bad_interrupt>
      78:	0c 94 86 00 	jmp	0x10c	; 0x10c <__bad_interrupt>
      7c:	0c 94 86 00 	jmp	0x10c	; 0x10c <__bad_interrupt>
      80:	0c 94 86 00 	jmp	0x10c	; 0x10c <__bad_interrupt>
      84:	0c 94 86 00 	jmp	0x10c	; 0x10c <__bad_interrupt>
      88:	0c 94 86 00 	jmp	0x10c	; 0x10c <__bad_interrupt>
      8c:	0c 94 86 00 	jmp	0x10c	; 0x10c <__bad_interrupt>
      90:	0c 94 86 00 	jmp	0x10c	; 0x10c <__bad_interrupt>
      94:	0c 94 86 00 	jmp	0x10c	; 0x10c <__bad_interrupt>
      98:	0c 94 86 00 	jmp	0x10c	; 0x10c <__bad_interrupt>
      9c:	0c 94 86 00 	jmp	0x10c	; 0x10c <__bad_interrupt>
      a0:	0c 94 86 00 	jmp	0x10c	; 0x10c <__bad_interrupt>
      a4:	0c 94 86 00 	jmp	0x10c	; 0x10c <__bad_interrupt>
      a8:	0c 94 86 00 	jmp	0x10c	; 0x10c <__bad_interrupt>
      ac:	0c 94 86 00 	jmp	0x10c	; 0x10c <__bad_interrupt>
      b0:	0c 94 86 00 	jmp	0x10c	; 0x10c <__bad_interrupt>
      b4:	0c 94 86 00 	jmp	0x10c	; 0x10c <__bad_interrupt>
      b8:	0c 94 86 00 	jmp	0x10c	; 0x10c <__bad_interrupt>
      bc:	0c 94 86 00 	jmp	0x10c	; 0x10c <__bad_interrupt>
      c0:	0c 94 86 00 	jmp	0x10c	; 0x10c <__bad_interrupt>
      c4:	0c 94 86 00 	jmp	0x10c	; 0x10c <__bad_interrupt>
      c8:	0c 94 86 00 	jmp	0x10c	; 0x10c <__bad_interrupt>
      cc:	0c 94 86 00 	jmp	0x10c	; 0x10c <__bad_interrupt>
      d0:	0c 94 86 00 	jmp	0x10c	; 0x10c <__bad_interrupt>
      d4:	0c 94 86 00 	jmp	0x10c	; 0x10c <__bad_interrupt>
      d8:	0c 94 86 00 	jmp	0x10c	; 0x10c <__bad_interrupt>
      dc:	0c 94 86 00 	jmp	0x10c	; 0x10c <__bad_interrupt>
      e0:	0c 94 86 00 	jmp	0x10c	; 0x10c <__bad_interrupt>

000000e4 <__ctors_end>:
      e4:	11 24       	eor	r1, r1
      e6:	1f be       	out	0x3f, r1	; 63
      e8:	cf ef       	ldi	r28, 0xFF	; 255
      ea:	d1 e2       	ldi	r29, 0x21	; 33
      ec:	de bf       	out	0x3e, r29	; 62
      ee:	cd bf       	out	0x3d, r28	; 61
      f0:	00 e0       	ldi	r16, 0x00	; 0
      f2:	0c bf       	out	0x3c, r16	; 60

000000f4 <__do_clear_bss>:
      f4:	22 e0       	ldi	r18, 0x02	; 2

000000f6 <.Loc.1>:
      f6:	a0 e0       	ldi	r26, 0x00	; 0

000000f8 <.Loc.2>:
      f8:	b2 e0       	ldi	r27, 0x02	; 2

000000fa <.Loc.3>:
      fa:	01 c0       	rjmp	.+2      	; 0xfe <.Loc.5>

000000fc <.Loc.4>:
      fc:	1d 92       	st	X+, r1

000000fe <.Loc.5>:
      fe:	ac 30       	cpi	r26, 0x0C	; 12

00000100 <.Loc.6>:
     100:	b2 07       	cpc	r27, r18

00000102 <.Loc.7>:
     102:	e1 f7       	brne	.-8      	; 0xfc <.Loc.4>

00000104 <L0^A>:
     104:	0e 94 f5 03 	call	0x7ea	; 0x7ea <main>
     108:	0c 94 dc 18 	jmp	0x31b8	; 0x31b8 <_exit>

0000010c <__bad_interrupt>:
     10c:	0c 94 00 00 	jmp	0	; 0x0 <__vectors>

00000110 <__vector_23>:
#include <avr/io.h>
#include <avr/interrupt.h>
#include "h_bridge.h"

ISR(TIMER0_OVF_vect)
{
     110:	1f 92       	push	r1
     112:	0f 92       	push	r0
     114:	0f b6       	in	r0, 0x3f	; 63
     116:	0f 92       	push	r0
     118:	11 24       	eor	r1, r1
     11a:	0b b6       	in	r0, 0x3b	; 59
     11c:	0f 92       	push	r0
     11e:	2f 93       	push	r18
     120:	8f 93       	push	r24
     122:	9f 93       	push	r25
     124:	ef 93       	push	r30
     126:	ff 93       	push	r31
     128:	cf 93       	push	r28
     12a:	df 93       	push	r29
     12c:	cd b7       	in	r28, 0x3d	; 61
     12e:	de b7       	in	r29, 0x3e	; 62

00000130 <.Loc.1>:
	if (OCR0A == 0 && OCR0B == 0)
     130:	87 e4       	ldi	r24, 0x47	; 71
     132:	90 e0       	ldi	r25, 0x00	; 0
     134:	fc 01       	movw	r30, r24
     136:	80 81       	ld	r24, Z

00000138 <.Loc.2>:
     138:	88 23       	and	r24, r24
     13a:	c9 f4       	brne	.+50     	; 0x16e <.L2>

0000013c <.Loc.3>:
     13c:	88 e4       	ldi	r24, 0x48	; 72
     13e:	90 e0       	ldi	r25, 0x00	; 0
     140:	fc 01       	movw	r30, r24
     142:	80 81       	ld	r24, Z

00000144 <.Loc.4>:
     144:	88 23       	and	r24, r24
     146:	99 f4       	brne	.+38     	; 0x16e <.L2>

00000148 <.Loc.5>:
	{
		PORT_RPWM &= ~(1<<PIN_RPWM);
     148:	82 e0       	ldi	r24, 0x02	; 2
     14a:	91 e0       	ldi	r25, 0x01	; 1
     14c:	fc 01       	movw	r30, r24
     14e:	20 81       	ld	r18, Z

00000150 <.Loc.6>:
     150:	82 e0       	ldi	r24, 0x02	; 2
     152:	91 e0       	ldi	r25, 0x01	; 1

00000154 <.Loc.7>:
     154:	2f 7b       	andi	r18, 0xBF	; 191
     156:	fc 01       	movw	r30, r24
     158:	20 83       	st	Z, r18

0000015a <.Loc.8>:
		PORT_LPWM &= ~(1<<PIN_LPWM);
     15a:	82 e0       	ldi	r24, 0x02	; 2
     15c:	91 e0       	ldi	r25, 0x01	; 1
     15e:	fc 01       	movw	r30, r24
     160:	20 81       	ld	r18, Z

00000162 <.Loc.9>:
     162:	82 e0       	ldi	r24, 0x02	; 2
     164:	91 e0       	ldi	r25, 0x01	; 1

00000166 <.Loc.10>:
     166:	2f 7d       	andi	r18, 0xDF	; 223
     168:	fc 01       	movw	r30, r24
     16a:	20 83       	st	Z, r18

0000016c <.Loc.11>:
	else if (OCR0B != 0)
	{
		PORT_RPWM &= ~(1<<PIN_RPWM);
		PORT_LPWM |= (1<<PIN_LPWM);
	}
}
     16c:	31 c0       	rjmp	.+98     	; 0x1d0 <.L5>

0000016e <.L2>:
	else if (OCR0A != 0)
     16e:	87 e4       	ldi	r24, 0x47	; 71
     170:	90 e0       	ldi	r25, 0x00	; 0
     172:	fc 01       	movw	r30, r24
     174:	80 81       	ld	r24, Z

00000176 <.Loc.13>:
     176:	88 23       	and	r24, r24
     178:	99 f0       	breq	.+38     	; 0x1a0 <.L4>

0000017a <.Loc.14>:
		PORT_LPWM &= ~(1<<PIN_LPWM);
     17a:	82 e0       	ldi	r24, 0x02	; 2
     17c:	91 e0       	ldi	r25, 0x01	; 1
     17e:	fc 01       	movw	r30, r24
     180:	20 81       	ld	r18, Z

00000182 <.Loc.15>:
     182:	82 e0       	ldi	r24, 0x02	; 2
     184:	91 e0       	ldi	r25, 0x01	; 1

00000186 <.Loc.16>:
     186:	2f 7d       	andi	r18, 0xDF	; 223
     188:	fc 01       	movw	r30, r24
     18a:	20 83       	st	Z, r18

0000018c <.Loc.17>:
		PORT_RPWM |= (1<<PIN_RPWM);
     18c:	82 e0       	ldi	r24, 0x02	; 2
     18e:	91 e0       	ldi	r25, 0x01	; 1
     190:	fc 01       	movw	r30, r24
     192:	20 81       	ld	r18, Z
     194:	82 e0       	ldi	r24, 0x02	; 2
     196:	91 e0       	ldi	r25, 0x01	; 1

00000198 <.Loc.18>:
     198:	20 64       	ori	r18, 0x40	; 64
     19a:	fc 01       	movw	r30, r24
     19c:	20 83       	st	Z, r18

0000019e <.Loc.19>:
}
     19e:	18 c0       	rjmp	.+48     	; 0x1d0 <.L5>

000001a0 <.L4>:
	else if (OCR0B != 0)
     1a0:	88 e4       	ldi	r24, 0x48	; 72
     1a2:	90 e0       	ldi	r25, 0x00	; 0
     1a4:	fc 01       	movw	r30, r24
     1a6:	80 81       	ld	r24, Z

000001a8 <.Loc.21>:
     1a8:	88 23       	and	r24, r24
     1aa:	91 f0       	breq	.+36     	; 0x1d0 <.L5>

000001ac <.Loc.22>:
		PORT_RPWM &= ~(1<<PIN_RPWM);
     1ac:	82 e0       	ldi	r24, 0x02	; 2
     1ae:	91 e0       	ldi	r25, 0x01	; 1
     1b0:	fc 01       	movw	r30, r24
     1b2:	20 81       	ld	r18, Z

000001b4 <.Loc.23>:
     1b4:	82 e0       	ldi	r24, 0x02	; 2
     1b6:	91 e0       	ldi	r25, 0x01	; 1

000001b8 <.Loc.24>:
     1b8:	2f 7b       	andi	r18, 0xBF	; 191
     1ba:	fc 01       	movw	r30, r24
     1bc:	20 83       	st	Z, r18

000001be <.Loc.25>:
		PORT_LPWM |= (1<<PIN_LPWM);
     1be:	82 e0       	ldi	r24, 0x02	; 2
     1c0:	91 e0       	ldi	r25, 0x01	; 1
     1c2:	fc 01       	movw	r30, r24
     1c4:	20 81       	ld	r18, Z
     1c6:	82 e0       	ldi	r24, 0x02	; 2
     1c8:	91 e0       	ldi	r25, 0x01	; 1

000001ca <.Loc.26>:
     1ca:	20 62       	ori	r18, 0x20	; 32
     1cc:	fc 01       	movw	r30, r24
     1ce:	20 83       	st	Z, r18

000001d0 <.L5>:
}
     1d0:	00 00       	nop
     1d2:	df 91       	pop	r29
     1d4:	cf 91       	pop	r28
     1d6:	ff 91       	pop	r31
     1d8:	ef 91       	pop	r30
     1da:	9f 91       	pop	r25
     1dc:	8f 91       	pop	r24
     1de:	2f 91       	pop	r18
     1e0:	0f 90       	pop	r0
     1e2:	0b be       	out	0x3b, r0	; 59
     1e4:	0f 90       	pop	r0
     1e6:	0f be       	out	0x3f, r0	; 63
     1e8:	0f 90       	pop	r0
     1ea:	1f 90       	pop	r1
     1ec:	18 95       	reti

000001ee <__vector_21>:

ISR(TIMER0_COMPA_vect)
{
     1ee:	1f 92       	push	r1
     1f0:	0f 92       	push	r0
     1f2:	0f b6       	in	r0, 0x3f	; 63
     1f4:	0f 92       	push	r0
     1f6:	11 24       	eor	r1, r1
     1f8:	0b b6       	in	r0, 0x3b	; 59
     1fa:	0f 92       	push	r0
     1fc:	2f 93       	push	r18
     1fe:	8f 93       	push	r24
     200:	9f 93       	push	r25
     202:	ef 93       	push	r30
     204:	ff 93       	push	r31
     206:	cf 93       	push	r28
     208:	df 93       	push	r29
     20a:	cd b7       	in	r28, 0x3d	; 61
     20c:	de b7       	in	r29, 0x3e	; 62

0000020e <.Loc.29>:
	if (OCR0A != 255)
     20e:	87 e4       	ldi	r24, 0x47	; 71
     210:	90 e0       	ldi	r25, 0x00	; 0
     212:	fc 01       	movw	r30, r24
     214:	80 81       	ld	r24, Z

00000216 <.Loc.30>:
     216:	8f 3f       	cpi	r24, 0xFF	; 255
     218:	49 f0       	breq	.+18     	; 0x22c <.L8>

0000021a <.Loc.31>:
	{
		PORT_RPWM &= ~(1<<PIN_RPWM);
     21a:	82 e0       	ldi	r24, 0x02	; 2
     21c:	91 e0       	ldi	r25, 0x01	; 1
     21e:	fc 01       	movw	r30, r24
     220:	20 81       	ld	r18, Z

00000222 <.Loc.32>:
     222:	82 e0       	ldi	r24, 0x02	; 2
     224:	91 e0       	ldi	r25, 0x01	; 1

00000226 <.Loc.33>:
     226:	2f 7b       	andi	r18, 0xBF	; 191
     228:	fc 01       	movw	r30, r24
     22a:	20 83       	st	Z, r18

0000022c <.L8>:
	}
}
     22c:	00 00       	nop
     22e:	df 91       	pop	r29
     230:	cf 91       	pop	r28
     232:	ff 91       	pop	r31
     234:	ef 91       	pop	r30
     236:	9f 91       	pop	r25
     238:	8f 91       	pop	r24
     23a:	2f 91       	pop	r18
     23c:	0f 90       	pop	r0
     23e:	0b be       	out	0x3b, r0	; 59
     240:	0f 90       	pop	r0
     242:	0f be       	out	0x3f, r0	; 63
     244:	0f 90       	pop	r0
     246:	1f 90       	pop	r1
     248:	18 95       	reti

0000024a <__vector_22>:

ISR(TIMER0_COMPB_vect)
{
     24a:	1f 92       	push	r1
     24c:	0f 92       	push	r0
     24e:	0f b6       	in	r0, 0x3f	; 63
     250:	0f 92       	push	r0
     252:	11 24       	eor	r1, r1
     254:	0b b6       	in	r0, 0x3b	; 59
     256:	0f 92       	push	r0
     258:	2f 93       	push	r18
     25a:	8f 93       	push	r24
     25c:	9f 93       	push	r25
     25e:	ef 93       	push	r30
     260:	ff 93       	push	r31
     262:	cf 93       	push	r28
     264:	df 93       	push	r29
     266:	cd b7       	in	r28, 0x3d	; 61
     268:	de b7       	in	r29, 0x3e	; 62

0000026a <.Loc.36>:
	if (OCR0B != 255)
     26a:	88 e4       	ldi	r24, 0x48	; 72
     26c:	90 e0       	ldi	r25, 0x00	; 0
     26e:	fc 01       	movw	r30, r24
     270:	80 81       	ld	r24, Z

00000272 <.Loc.37>:
     272:	8f 3f       	cpi	r24, 0xFF	; 255
     274:	49 f0       	breq	.+18     	; 0x288 <.L11>

00000276 <.Loc.38>:
	{
		PORT_LPWM &= ~(1<<PIN_LPWM);
     276:	82 e0       	ldi	r24, 0x02	; 2
     278:	91 e0       	ldi	r25, 0x01	; 1
     27a:	fc 01       	movw	r30, r24
     27c:	20 81       	ld	r18, Z

0000027e <.Loc.39>:
     27e:	82 e0       	ldi	r24, 0x02	; 2
     280:	91 e0       	ldi	r25, 0x01	; 1

00000282 <.Loc.40>:
     282:	2f 7d       	andi	r18, 0xDF	; 223
     284:	fc 01       	movw	r30, r24
     286:	20 83       	st	Z, r18

00000288 <.L11>:
	}
}
     288:	00 00       	nop
     28a:	df 91       	pop	r29
     28c:	cf 91       	pop	r28
     28e:	ff 91       	pop	r31
     290:	ef 91       	pop	r30
     292:	9f 91       	pop	r25
     294:	8f 91       	pop	r24
     296:	2f 91       	pop	r18
     298:	0f 90       	pop	r0
     29a:	0b be       	out	0x3b, r0	; 59
     29c:	0f 90       	pop	r0
     29e:	0f be       	out	0x3f, r0	; 63
     2a0:	0f 90       	pop	r0
     2a2:	1f 90       	pop	r1
     2a4:	18 95       	reti

000002a6 <init_h_bridge>:

void init_h_bridge(void)
{
     2a6:	cf 93       	push	r28
     2a8:	df 93       	push	r29
     2aa:	cd b7       	in	r28, 0x3d	; 61
     2ac:	de b7       	in	r29, 0x3e	; 62

000002ae <.Loc.43>:
	// Config pins as output
	DDR_RPWM |= (1<<PIN_RPWM);
     2ae:	81 e0       	ldi	r24, 0x01	; 1
     2b0:	91 e0       	ldi	r25, 0x01	; 1
     2b2:	fc 01       	movw	r30, r24
     2b4:	20 81       	ld	r18, Z
     2b6:	81 e0       	ldi	r24, 0x01	; 1
     2b8:	91 e0       	ldi	r25, 0x01	; 1

000002ba <.Loc.44>:
     2ba:	20 64       	ori	r18, 0x40	; 64
     2bc:	fc 01       	movw	r30, r24
     2be:	20 83       	st	Z, r18

000002c0 <.Loc.45>:
	DDR_LPWM |= (1<<PIN_LPWM);
     2c0:	81 e0       	ldi	r24, 0x01	; 1
     2c2:	91 e0       	ldi	r25, 0x01	; 1
     2c4:	fc 01       	movw	r30, r24
     2c6:	20 81       	ld	r18, Z
     2c8:	81 e0       	ldi	r24, 0x01	; 1
     2ca:	91 e0       	ldi	r25, 0x01	; 1

000002cc <.Loc.46>:
     2cc:	20 62       	ori	r18, 0x20	; 32
     2ce:	fc 01       	movw	r30, r24
     2d0:	20 83       	st	Z, r18

000002d2 <.Loc.47>:

	// Output low
	PORT_RPWM &= ~(1<<PIN_RPWM);
     2d2:	82 e0       	ldi	r24, 0x02	; 2
     2d4:	91 e0       	ldi	r25, 0x01	; 1
     2d6:	fc 01       	movw	r30, r24
     2d8:	20 81       	ld	r18, Z

000002da <.Loc.48>:
     2da:	82 e0       	ldi	r24, 0x02	; 2
     2dc:	91 e0       	ldi	r25, 0x01	; 1

000002de <.Loc.49>:
     2de:	2f 7b       	andi	r18, 0xBF	; 191
     2e0:	fc 01       	movw	r30, r24
     2e2:	20 83       	st	Z, r18

000002e4 <.Loc.50>:
	PORT_LPWM &= ~(1<<PIN_LPWM);
     2e4:	82 e0       	ldi	r24, 0x02	; 2
     2e6:	91 e0       	ldi	r25, 0x01	; 1
     2e8:	fc 01       	movw	r30, r24
     2ea:	20 81       	ld	r18, Z

000002ec <.Loc.51>:
     2ec:	82 e0       	ldi	r24, 0x02	; 2
     2ee:	91 e0       	ldi	r25, 0x01	; 1

000002f0 <.Loc.52>:
     2f0:	2f 7d       	andi	r18, 0xDF	; 223
     2f2:	fc 01       	movw	r30, r24
     2f4:	20 83       	st	Z, r18

000002f6 <.Loc.53>:

	// Use mode 0, clkdiv = 64
	TCCR0A = 0;
     2f6:	84 e4       	ldi	r24, 0x44	; 68
     2f8:	90 e0       	ldi	r25, 0x00	; 0

000002fa <.Loc.54>:
     2fa:	fc 01       	movw	r30, r24
     2fc:	10 82       	st	Z, r1

000002fe <.Loc.55>:
	TCCR0B = (0<<CS02) | (1<<CS01) | (1<<CS00);
     2fe:	85 e4       	ldi	r24, 0x45	; 69
     300:	90 e0       	ldi	r25, 0x00	; 0

00000302 <.Loc.56>:
     302:	23 e0       	ldi	r18, 0x03	; 3
     304:	fc 01       	movw	r30, r24
     306:	20 83       	st	Z, r18

00000308 <.Loc.57>:

	// Disable PWM output
	OCR0A = 0;
     308:	87 e4       	ldi	r24, 0x47	; 71
     30a:	90 e0       	ldi	r25, 0x00	; 0

0000030c <.Loc.58>:
     30c:	fc 01       	movw	r30, r24
     30e:	10 82       	st	Z, r1

00000310 <.Loc.59>:
	OCR0B = 0;
     310:	88 e4       	ldi	r24, 0x48	; 72
     312:	90 e0       	ldi	r25, 0x00	; 0

00000314 <.Loc.60>:
     314:	fc 01       	movw	r30, r24
     316:	10 82       	st	Z, r1

00000318 <.Loc.61>:

	// Interrupts on OCA, OCB and OVF
	TIMSK0 = (1<<OCIE0B) | (1<<OCIE0A) | (1<<TOIE0);
     318:	8e e6       	ldi	r24, 0x6E	; 110
     31a:	90 e0       	ldi	r25, 0x00	; 0

0000031c <.Loc.62>:
     31c:	27 e0       	ldi	r18, 0x07	; 7
     31e:	fc 01       	movw	r30, r24
     320:	20 83       	st	Z, r18

00000322 <.Loc.63>:

	sei();
     322:	78 94       	sei

00000324 <.Loc.64>:
}
     324:	00 00       	nop
     326:	df 91       	pop	r29
     328:	cf 91       	pop	r28
     32a:	08 95       	ret

0000032c <h_bridge_set_percentage>:

void h_bridge_set_percentage(signed char percentage)
{
     32c:	cf 93       	push	r28
     32e:	df 93       	push	r29
     330:	0f 92       	push	r0
     332:	cd b7       	in	r28, 0x3d	; 61
     334:	de b7       	in	r29, 0x3e	; 62
     336:	89 83       	std	Y+1, r24	; 0x01

00000338 <.Loc.66>:
	if (percentage >= -100 && percentage <= 100)
     338:	89 81       	ldd	r24, Y+1	; 0x01
     33a:	8c 39       	cpi	r24, 0x9C	; 156
     33c:	e4 f1       	brlt	.+120    	; 0x3b6 <.L16>

0000033e <.Loc.67>:
     33e:	89 81       	ldd	r24, Y+1	; 0x01
     340:	84 36       	cpi	r24, 0x64	; 100
     342:	09 f0       	breq	.+2      	; 0x346 <.Loc.68>

00000344 <L0^A>:
     344:	c4 f5       	brge	.+112    	; 0x3b6 <.L16>

00000346 <.Loc.68>:
	{
		if (percentage >= 0)
     346:	89 81       	ldd	r24, Y+1	; 0x01
     348:	88 23       	and	r24, r24
     34a:	dc f0       	brlt	.+54     	; 0x382 <.L15>

0000034c <.Loc.69>:
		{
			// Disable LPWM, calculate RPWM
			OCR0B = 0;
     34c:	88 e4       	ldi	r24, 0x48	; 72
     34e:	90 e0       	ldi	r25, 0x00	; 0

00000350 <.Loc.70>:
     350:	fc 01       	movw	r30, r24
     352:	10 82       	st	Z, r1

00000354 <.Loc.71>:
			OCR0A = (255*percentage)/100;
     354:	89 81       	ldd	r24, Y+1	; 0x01
     356:	08 2e       	mov	r0, r24
     358:	00 0c       	add	r0, r0
     35a:	99 0b       	sbc	r25, r25
     35c:	2f ef       	ldi	r18, 0xFF	; 255
     35e:	28 9f       	mul	r18, r24
     360:	a0 01       	movw	r20, r0
     362:	29 9f       	mul	r18, r25
     364:	50 0d       	add	r21, r0
     366:	11 24       	eor	r1, r1

00000368 <.Loc.72>:
     368:	24 e6       	ldi	r18, 0x64	; 100
     36a:	30 e0       	ldi	r19, 0x00	; 0
     36c:	ca 01       	movw	r24, r20
     36e:	b9 01       	movw	r22, r18
     370:	0e 94 99 17 	call	0x2f32	; 0x2f32 <__divmodhi4>
     374:	cb 01       	movw	r24, r22
     376:	9c 01       	movw	r18, r24

00000378 <.Loc.73>:
     378:	87 e4       	ldi	r24, 0x47	; 71
     37a:	90 e0       	ldi	r25, 0x00	; 0

0000037c <.Loc.74>:
     37c:	fc 01       	movw	r30, r24
     37e:	20 83       	st	Z, r18

00000380 <.Loc.75>:
			// Disable RPWM, calculate LPWM
			OCR0A = 0;
			OCR0B = (255*percentage)/-100;
		}
	}
}
     380:	1a c0       	rjmp	.+52     	; 0x3b6 <.L16>

00000382 <.L15>:
			OCR0A = 0;
     382:	87 e4       	ldi	r24, 0x47	; 71
     384:	90 e0       	ldi	r25, 0x00	; 0

00000386 <.Loc.77>:
     386:	fc 01       	movw	r30, r24
     388:	10 82       	st	Z, r1

0000038a <.Loc.78>:
			OCR0B = (255*percentage)/-100;
     38a:	89 81       	ldd	r24, Y+1	; 0x01
     38c:	08 2e       	mov	r0, r24
     38e:	00 0c       	add	r0, r0
     390:	99 0b       	sbc	r25, r25
     392:	2f ef       	ldi	r18, 0xFF	; 255
     394:	28 9f       	mul	r18, r24
     396:	a0 01       	movw	r20, r0
     398:	29 9f       	mul	r18, r25
     39a:	50 0d       	add	r21, r0
     39c:	11 24       	eor	r1, r1

0000039e <.Loc.79>:
     39e:	2c e9       	ldi	r18, 0x9C	; 156
     3a0:	3f ef       	ldi	r19, 0xFF	; 255
     3a2:	ca 01       	movw	r24, r20
     3a4:	b9 01       	movw	r22, r18
     3a6:	0e 94 99 17 	call	0x2f32	; 0x2f32 <__divmodhi4>
     3aa:	cb 01       	movw	r24, r22
     3ac:	9c 01       	movw	r18, r24

000003ae <.Loc.80>:
     3ae:	88 e4       	ldi	r24, 0x48	; 72
     3b0:	90 e0       	ldi	r25, 0x00	; 0

000003b2 <.Loc.81>:
     3b2:	fc 01       	movw	r30, r24
     3b4:	20 83       	st	Z, r18

000003b6 <.L16>:
}
     3b6:	00 00       	nop
     3b8:	0f 90       	pop	r0
     3ba:	df 91       	pop	r29
     3bc:	cf 91       	pop	r28
     3be:	08 95       	ret

000003c0 <__vector_15>:
#define PIN_LPWM2	PH3
#define DDR_LPWM2	DDRH


ISR(TIMER2_OVF_vect)
{
     3c0:	1f 92       	push	r1
     3c2:	0f 92       	push	r0
     3c4:	0f b6       	in	r0, 0x3f	; 63
     3c6:	0f 92       	push	r0
     3c8:	11 24       	eor	r1, r1
     3ca:	0b b6       	in	r0, 0x3b	; 59
     3cc:	0f 92       	push	r0
     3ce:	2f 93       	push	r18
     3d0:	8f 93       	push	r24
     3d2:	9f 93       	push	r25
     3d4:	ef 93       	push	r30
     3d6:	ff 93       	push	r31
     3d8:	cf 93       	push	r28
     3da:	df 93       	push	r29
     3dc:	cd b7       	in	r28, 0x3d	; 61
     3de:	de b7       	in	r29, 0x3e	; 62

000003e0 <.Loc.1>:
	if (OCR2A == 0 && OCR2B == 0)
     3e0:	83 eb       	ldi	r24, 0xB3	; 179
     3e2:	90 e0       	ldi	r25, 0x00	; 0
     3e4:	fc 01       	movw	r30, r24
     3e6:	80 81       	ld	r24, Z

000003e8 <.Loc.2>:
     3e8:	88 23       	and	r24, r24
     3ea:	c9 f4       	brne	.+50     	; 0x41e <.L2>

000003ec <.Loc.3>:
     3ec:	84 eb       	ldi	r24, 0xB4	; 180
     3ee:	90 e0       	ldi	r25, 0x00	; 0
     3f0:	fc 01       	movw	r30, r24
     3f2:	80 81       	ld	r24, Z

000003f4 <.Loc.4>:
     3f4:	88 23       	and	r24, r24
     3f6:	99 f4       	brne	.+38     	; 0x41e <.L2>

000003f8 <.Loc.5>:
	{
		PORT_RPWM2 &= ~(1<<PIN_RPWM2);
     3f8:	82 e0       	ldi	r24, 0x02	; 2
     3fa:	91 e0       	ldi	r25, 0x01	; 1
     3fc:	fc 01       	movw	r30, r24
     3fe:	20 81       	ld	r18, Z

00000400 <.Loc.6>:
     400:	82 e0       	ldi	r24, 0x02	; 2
     402:	91 e0       	ldi	r25, 0x01	; 1

00000404 <.Loc.7>:
     404:	2f 7e       	andi	r18, 0xEF	; 239
     406:	fc 01       	movw	r30, r24
     408:	20 83       	st	Z, r18

0000040a <.Loc.8>:
		PORT_LPWM2 &= ~(1<<PIN_LPWM2);
     40a:	82 e0       	ldi	r24, 0x02	; 2
     40c:	91 e0       	ldi	r25, 0x01	; 1
     40e:	fc 01       	movw	r30, r24
     410:	20 81       	ld	r18, Z

00000412 <.Loc.9>:
     412:	82 e0       	ldi	r24, 0x02	; 2
     414:	91 e0       	ldi	r25, 0x01	; 1

00000416 <.Loc.10>:
     416:	27 7f       	andi	r18, 0xF7	; 247
     418:	fc 01       	movw	r30, r24
     41a:	20 83       	st	Z, r18

0000041c <.Loc.11>:
	else if (OCR2B != 0)
	{
		PORT_RPWM2 &= ~(1<<PIN_RPWM2);
		PORT_LPWM2 |= (1<<PIN_LPWM2);
	}
}
     41c:	31 c0       	rjmp	.+98     	; 0x480 <.L5>

0000041e <.L2>:
	else if (OCR2A != 0)
     41e:	83 eb       	ldi	r24, 0xB3	; 179
     420:	90 e0       	ldi	r25, 0x00	; 0
     422:	fc 01       	movw	r30, r24
     424:	80 81       	ld	r24, Z

00000426 <.Loc.13>:
     426:	88 23       	and	r24, r24
     428:	99 f0       	breq	.+38     	; 0x450 <.L4>

0000042a <.Loc.14>:
		PORT_LPWM2 &= ~(1<<PIN_LPWM2);
     42a:	82 e0       	ldi	r24, 0x02	; 2
     42c:	91 e0       	ldi	r25, 0x01	; 1
     42e:	fc 01       	movw	r30, r24
     430:	20 81       	ld	r18, Z

00000432 <.Loc.15>:
     432:	82 e0       	ldi	r24, 0x02	; 2
     434:	91 e0       	ldi	r25, 0x01	; 1

00000436 <.Loc.16>:
     436:	27 7f       	andi	r18, 0xF7	; 247
     438:	fc 01       	movw	r30, r24
     43a:	20 83       	st	Z, r18

0000043c <.Loc.17>:
		PORT_RPWM2 |= (1<<PIN_RPWM2);
     43c:	82 e0       	ldi	r24, 0x02	; 2
     43e:	91 e0       	ldi	r25, 0x01	; 1
     440:	fc 01       	movw	r30, r24
     442:	20 81       	ld	r18, Z
     444:	82 e0       	ldi	r24, 0x02	; 2
     446:	91 e0       	ldi	r25, 0x01	; 1

00000448 <.Loc.18>:
     448:	20 61       	ori	r18, 0x10	; 16
     44a:	fc 01       	movw	r30, r24
     44c:	20 83       	st	Z, r18

0000044e <.Loc.19>:
}
     44e:	18 c0       	rjmp	.+48     	; 0x480 <.L5>

00000450 <.L4>:
	else if (OCR2B != 0)
     450:	84 eb       	ldi	r24, 0xB4	; 180
     452:	90 e0       	ldi	r25, 0x00	; 0
     454:	fc 01       	movw	r30, r24
     456:	80 81       	ld	r24, Z

00000458 <.Loc.21>:
     458:	88 23       	and	r24, r24
     45a:	91 f0       	breq	.+36     	; 0x480 <.L5>

0000045c <.Loc.22>:
		PORT_RPWM2 &= ~(1<<PIN_RPWM2);
     45c:	82 e0       	ldi	r24, 0x02	; 2
     45e:	91 e0       	ldi	r25, 0x01	; 1
     460:	fc 01       	movw	r30, r24
     462:	20 81       	ld	r18, Z

00000464 <.Loc.23>:
     464:	82 e0       	ldi	r24, 0x02	; 2
     466:	91 e0       	ldi	r25, 0x01	; 1

00000468 <.Loc.24>:
     468:	2f 7e       	andi	r18, 0xEF	; 239
     46a:	fc 01       	movw	r30, r24
     46c:	20 83       	st	Z, r18

0000046e <.Loc.25>:
		PORT_LPWM2 |= (1<<PIN_LPWM2);
     46e:	82 e0       	ldi	r24, 0x02	; 2
     470:	91 e0       	ldi	r25, 0x01	; 1
     472:	fc 01       	movw	r30, r24
     474:	20 81       	ld	r18, Z
     476:	82 e0       	ldi	r24, 0x02	; 2
     478:	91 e0       	ldi	r25, 0x01	; 1

0000047a <.Loc.26>:
     47a:	28 60       	ori	r18, 0x08	; 8
     47c:	fc 01       	movw	r30, r24
     47e:	20 83       	st	Z, r18

00000480 <.L5>:
}
     480:	00 00       	nop
     482:	df 91       	pop	r29
     484:	cf 91       	pop	r28
     486:	ff 91       	pop	r31
     488:	ef 91       	pop	r30
     48a:	9f 91       	pop	r25
     48c:	8f 91       	pop	r24
     48e:	2f 91       	pop	r18
     490:	0f 90       	pop	r0
     492:	0b be       	out	0x3b, r0	; 59
     494:	0f 90       	pop	r0
     496:	0f be       	out	0x3f, r0	; 63
     498:	0f 90       	pop	r0
     49a:	1f 90       	pop	r1
     49c:	18 95       	reti

0000049e <__vector_13>:

ISR(TIMER2_COMPA_vect)
{
     49e:	1f 92       	push	r1
     4a0:	0f 92       	push	r0
     4a2:	0f b6       	in	r0, 0x3f	; 63
     4a4:	0f 92       	push	r0
     4a6:	11 24       	eor	r1, r1
     4a8:	0b b6       	in	r0, 0x3b	; 59
     4aa:	0f 92       	push	r0
     4ac:	2f 93       	push	r18
     4ae:	8f 93       	push	r24
     4b0:	9f 93       	push	r25
     4b2:	ef 93       	push	r30
     4b4:	ff 93       	push	r31
     4b6:	cf 93       	push	r28
     4b8:	df 93       	push	r29
     4ba:	cd b7       	in	r28, 0x3d	; 61
     4bc:	de b7       	in	r29, 0x3e	; 62

000004be <.Loc.29>:
	if (OCR2A != 255)
     4be:	83 eb       	ldi	r24, 0xB3	; 179
     4c0:	90 e0       	ldi	r25, 0x00	; 0
     4c2:	fc 01       	movw	r30, r24
     4c4:	80 81       	ld	r24, Z

000004c6 <.Loc.30>:
     4c6:	8f 3f       	cpi	r24, 0xFF	; 255
     4c8:	49 f0       	breq	.+18     	; 0x4dc <.L8>

000004ca <.Loc.31>:
	{
		PORT_RPWM2 &= ~(1<<PIN_RPWM2);
     4ca:	82 e0       	ldi	r24, 0x02	; 2
     4cc:	91 e0       	ldi	r25, 0x01	; 1
     4ce:	fc 01       	movw	r30, r24
     4d0:	20 81       	ld	r18, Z

000004d2 <.Loc.32>:
     4d2:	82 e0       	ldi	r24, 0x02	; 2
     4d4:	91 e0       	ldi	r25, 0x01	; 1

000004d6 <.Loc.33>:
     4d6:	2f 7e       	andi	r18, 0xEF	; 239
     4d8:	fc 01       	movw	r30, r24
     4da:	20 83       	st	Z, r18

000004dc <.L8>:
	}
}
     4dc:	00 00       	nop
     4de:	df 91       	pop	r29
     4e0:	cf 91       	pop	r28
     4e2:	ff 91       	pop	r31
     4e4:	ef 91       	pop	r30
     4e6:	9f 91       	pop	r25
     4e8:	8f 91       	pop	r24
     4ea:	2f 91       	pop	r18
     4ec:	0f 90       	pop	r0
     4ee:	0b be       	out	0x3b, r0	; 59
     4f0:	0f 90       	pop	r0
     4f2:	0f be       	out	0x3f, r0	; 63
     4f4:	0f 90       	pop	r0
     4f6:	1f 90       	pop	r1
     4f8:	18 95       	reti

000004fa <__vector_14>:

ISR(TIMER2_COMPB_vect)
{
     4fa:	1f 92       	push	r1
     4fc:	0f 92       	push	r0
     4fe:	0f b6       	in	r0, 0x3f	; 63
     500:	0f 92       	push	r0
     502:	11 24       	eor	r1, r1
     504:	0b b6       	in	r0, 0x3b	; 59
     506:	0f 92       	push	r0
     508:	2f 93       	push	r18
     50a:	8f 93       	push	r24
     50c:	9f 93       	push	r25
     50e:	ef 93       	push	r30
     510:	ff 93       	push	r31
     512:	cf 93       	push	r28
     514:	df 93       	push	r29
     516:	cd b7       	in	r28, 0x3d	; 61
     518:	de b7       	in	r29, 0x3e	; 62

0000051a <.Loc.36>:
	if (OCR2B != 255)
     51a:	84 eb       	ldi	r24, 0xB4	; 180
     51c:	90 e0       	ldi	r25, 0x00	; 0
     51e:	fc 01       	movw	r30, r24
     520:	80 81       	ld	r24, Z

00000522 <.Loc.37>:
     522:	8f 3f       	cpi	r24, 0xFF	; 255
     524:	49 f0       	breq	.+18     	; 0x538 <.L11>

00000526 <.Loc.38>:
	{
		PORT_LPWM2 &= ~(1<<PIN_LPWM2);
     526:	82 e0       	ldi	r24, 0x02	; 2
     528:	91 e0       	ldi	r25, 0x01	; 1
     52a:	fc 01       	movw	r30, r24
     52c:	20 81       	ld	r18, Z

0000052e <.Loc.39>:
     52e:	82 e0       	ldi	r24, 0x02	; 2
     530:	91 e0       	ldi	r25, 0x01	; 1

00000532 <.Loc.40>:
     532:	27 7f       	andi	r18, 0xF7	; 247
     534:	fc 01       	movw	r30, r24
     536:	20 83       	st	Z, r18

00000538 <.L11>:
	}
}
     538:	00 00       	nop
     53a:	df 91       	pop	r29
     53c:	cf 91       	pop	r28
     53e:	ff 91       	pop	r31
     540:	ef 91       	pop	r30
     542:	9f 91       	pop	r25
     544:	8f 91       	pop	r24
     546:	2f 91       	pop	r18
     548:	0f 90       	pop	r0
     54a:	0b be       	out	0x3b, r0	; 59
     54c:	0f 90       	pop	r0
     54e:	0f be       	out	0x3f, r0	; 63
     550:	0f 90       	pop	r0
     552:	1f 90       	pop	r1
     554:	18 95       	reti

00000556 <init_h_bridge2>:

void init_h_bridge2(void)
{
     556:	cf 93       	push	r28
     558:	df 93       	push	r29
     55a:	cd b7       	in	r28, 0x3d	; 61
     55c:	de b7       	in	r29, 0x3e	; 62

0000055e <.Loc.43>:
	// Config pins as output
	DDR_RPWM2 |= (1<<PIN_RPWM2);
     55e:	81 e0       	ldi	r24, 0x01	; 1
     560:	91 e0       	ldi	r25, 0x01	; 1
     562:	fc 01       	movw	r30, r24
     564:	20 81       	ld	r18, Z
     566:	81 e0       	ldi	r24, 0x01	; 1
     568:	91 e0       	ldi	r25, 0x01	; 1

0000056a <.Loc.44>:
     56a:	20 61       	ori	r18, 0x10	; 16
     56c:	fc 01       	movw	r30, r24
     56e:	20 83       	st	Z, r18

00000570 <.Loc.45>:
	DDR_LPWM2 |= (1<<PIN_LPWM2);
     570:	81 e0       	ldi	r24, 0x01	; 1
     572:	91 e0       	ldi	r25, 0x01	; 1
     574:	fc 01       	movw	r30, r24
     576:	20 81       	ld	r18, Z
     578:	81 e0       	ldi	r24, 0x01	; 1
     57a:	91 e0       	ldi	r25, 0x01	; 1

0000057c <.Loc.46>:
     57c:	28 60       	ori	r18, 0x08	; 8
     57e:	fc 01       	movw	r30, r24
     580:	20 83       	st	Z, r18

00000582 <.Loc.47>:

	// Output low
	PORT_RPWM2 &= ~(1<<PIN_RPWM2);
     582:	82 e0       	ldi	r24, 0x02	; 2
     584:	91 e0       	ldi	r25, 0x01	; 1
     586:	fc 01       	movw	r30, r24
     588:	20 81       	ld	r18, Z

0000058a <.Loc.48>:
     58a:	82 e0       	ldi	r24, 0x02	; 2
     58c:	91 e0       	ldi	r25, 0x01	; 1

0000058e <.Loc.49>:
     58e:	2f 7e       	andi	r18, 0xEF	; 239
     590:	fc 01       	movw	r30, r24
     592:	20 83       	st	Z, r18

00000594 <.Loc.50>:
	PORT_LPWM2 &= ~(1<<PIN_LPWM2);
     594:	82 e0       	ldi	r24, 0x02	; 2
     596:	91 e0       	ldi	r25, 0x01	; 1
     598:	fc 01       	movw	r30, r24
     59a:	20 81       	ld	r18, Z

0000059c <.Loc.51>:
     59c:	82 e0       	ldi	r24, 0x02	; 2
     59e:	91 e0       	ldi	r25, 0x01	; 1

000005a0 <.Loc.52>:
     5a0:	27 7f       	andi	r18, 0xF7	; 247
     5a2:	fc 01       	movw	r30, r24
     5a4:	20 83       	st	Z, r18

000005a6 <.Loc.53>:

	// Use mode 0, clkdiv = 64
	TCCR2A = 0;
     5a6:	80 eb       	ldi	r24, 0xB0	; 176
     5a8:	90 e0       	ldi	r25, 0x00	; 0

000005aa <.Loc.54>:
     5aa:	fc 01       	movw	r30, r24
     5ac:	10 82       	st	Z, r1

000005ae <.Loc.55>:
	TCCR2B = (0<<CS02) | (1<<CS01) | (1<<CS00);
     5ae:	81 eb       	ldi	r24, 0xB1	; 177
     5b0:	90 e0       	ldi	r25, 0x00	; 0

000005b2 <.Loc.56>:
     5b2:	23 e0       	ldi	r18, 0x03	; 3
     5b4:	fc 01       	movw	r30, r24
     5b6:	20 83       	st	Z, r18

000005b8 <.Loc.57>:

	// Disable PWM output
	OCR2A = 0;
     5b8:	83 eb       	ldi	r24, 0xB3	; 179
     5ba:	90 e0       	ldi	r25, 0x00	; 0

000005bc <.Loc.58>:
     5bc:	fc 01       	movw	r30, r24
     5be:	10 82       	st	Z, r1

000005c0 <.Loc.59>:
	OCR2B = 0;
     5c0:	84 eb       	ldi	r24, 0xB4	; 180
     5c2:	90 e0       	ldi	r25, 0x00	; 0

000005c4 <.Loc.60>:
     5c4:	fc 01       	movw	r30, r24
     5c6:	10 82       	st	Z, r1

000005c8 <.Loc.61>:

	// Interrupts on OCA, OCB and OVF
	TIMSK2 = (1<<OCIE2B) | (1<<OCIE2A) | (1<<TOIE2);
     5c8:	80 e7       	ldi	r24, 0x70	; 112
     5ca:	90 e0       	ldi	r25, 0x00	; 0

000005cc <.Loc.62>:
     5cc:	27 e0       	ldi	r18, 0x07	; 7
     5ce:	fc 01       	movw	r30, r24
     5d0:	20 83       	st	Z, r18

000005d2 <.Loc.63>:

	sei();
     5d2:	78 94       	sei

000005d4 <.Loc.64>:
}
     5d4:	00 00       	nop
     5d6:	df 91       	pop	r29
     5d8:	cf 91       	pop	r28
     5da:	08 95       	ret

000005dc <h_bridge_set_percentage2>:

void h_bridge_set_percentage2(signed char percentage)
{
     5dc:	cf 93       	push	r28
     5de:	df 93       	push	r29
     5e0:	0f 92       	push	r0
     5e2:	cd b7       	in	r28, 0x3d	; 61
     5e4:	de b7       	in	r29, 0x3e	; 62
     5e6:	89 83       	std	Y+1, r24	; 0x01

000005e8 <.Loc.66>:
	if (percentage >= -100 && percentage <= 100)
     5e8:	89 81       	ldd	r24, Y+1	; 0x01
     5ea:	8c 39       	cpi	r24, 0x9C	; 156
     5ec:	e4 f1       	brlt	.+120    	; 0x666 <.L16>

000005ee <.Loc.67>:
     5ee:	89 81       	ldd	r24, Y+1	; 0x01
     5f0:	84 36       	cpi	r24, 0x64	; 100
     5f2:	09 f0       	breq	.+2      	; 0x5f6 <.Loc.68>

000005f4 <L0^A>:
     5f4:	c4 f5       	brge	.+112    	; 0x666 <.L16>

000005f6 <.Loc.68>:
	{
		if (percentage >= 0)
     5f6:	89 81       	ldd	r24, Y+1	; 0x01
     5f8:	88 23       	and	r24, r24
     5fa:	dc f0       	brlt	.+54     	; 0x632 <.L15>

000005fc <.Loc.69>:
		{
			// Disable LPWM, calculate RPWM
			OCR2B = 0;
     5fc:	84 eb       	ldi	r24, 0xB4	; 180
     5fe:	90 e0       	ldi	r25, 0x00	; 0

00000600 <.Loc.70>:
     600:	fc 01       	movw	r30, r24
     602:	10 82       	st	Z, r1

00000604 <.Loc.71>:
			OCR2A = (255*percentage)/100;
     604:	89 81       	ldd	r24, Y+1	; 0x01
     606:	08 2e       	mov	r0, r24
     608:	00 0c       	add	r0, r0
     60a:	99 0b       	sbc	r25, r25
     60c:	2f ef       	ldi	r18, 0xFF	; 255
     60e:	28 9f       	mul	r18, r24
     610:	a0 01       	movw	r20, r0
     612:	29 9f       	mul	r18, r25
     614:	50 0d       	add	r21, r0
     616:	11 24       	eor	r1, r1

00000618 <.Loc.72>:
     618:	24 e6       	ldi	r18, 0x64	; 100
     61a:	30 e0       	ldi	r19, 0x00	; 0
     61c:	ca 01       	movw	r24, r20
     61e:	b9 01       	movw	r22, r18
     620:	0e 94 99 17 	call	0x2f32	; 0x2f32 <__divmodhi4>
     624:	cb 01       	movw	r24, r22
     626:	9c 01       	movw	r18, r24

00000628 <.Loc.73>:
     628:	83 eb       	ldi	r24, 0xB3	; 179
     62a:	90 e0       	ldi	r25, 0x00	; 0

0000062c <.Loc.74>:
     62c:	fc 01       	movw	r30, r24
     62e:	20 83       	st	Z, r18

00000630 <.Loc.75>:
			// Disable RPWM, calculate LPWM
			OCR2A = 0;
			OCR2B = (255*percentage)/-100;
		}
	}
}
     630:	1a c0       	rjmp	.+52     	; 0x666 <.L16>

00000632 <.L15>:
			OCR2A = 0;
     632:	83 eb       	ldi	r24, 0xB3	; 179
     634:	90 e0       	ldi	r25, 0x00	; 0

00000636 <.Loc.77>:
     636:	fc 01       	movw	r30, r24
     638:	10 82       	st	Z, r1

0000063a <.Loc.78>:
			OCR2B = (255*percentage)/-100;
     63a:	89 81       	ldd	r24, Y+1	; 0x01
     63c:	08 2e       	mov	r0, r24
     63e:	00 0c       	add	r0, r0
     640:	99 0b       	sbc	r25, r25
     642:	2f ef       	ldi	r18, 0xFF	; 255
     644:	28 9f       	mul	r18, r24
     646:	a0 01       	movw	r20, r0
     648:	29 9f       	mul	r18, r25
     64a:	50 0d       	add	r21, r0
     64c:	11 24       	eor	r1, r1

0000064e <.Loc.79>:
     64e:	2c e9       	ldi	r18, 0x9C	; 156
     650:	3f ef       	ldi	r19, 0xFF	; 255
     652:	ca 01       	movw	r24, r20
     654:	b9 01       	movw	r22, r18
     656:	0e 94 99 17 	call	0x2f32	; 0x2f32 <__divmodhi4>
     65a:	cb 01       	movw	r24, r22
     65c:	9c 01       	movw	r18, r24

0000065e <.Loc.80>:
     65e:	84 eb       	ldi	r24, 0xB4	; 180
     660:	90 e0       	ldi	r25, 0x00	; 0

00000662 <.Loc.81>:
     662:	fc 01       	movw	r30, r24
     664:	20 83       	st	Z, r18

00000666 <.L16>:
}
     666:	00 00       	nop
     668:	0f 90       	pop	r0
     66a:	df 91       	pop	r29
     66c:	cf 91       	pop	r28
     66e:	08 95       	ret

00000670 <init_LED>:
#include "h_bridge.h"
#include "h_bridge2.h"
#define DEBOUNCE    _delay_ms(50)

void init_LED(void)
{
     670:	cf 93       	push	r28
     672:	df 93       	push	r29
     674:	cd b7       	in	r28, 0x3d	; 61
     676:	de b7       	in	r29, 0x3e	; 62

00000678 <.Loc.1>:
    DDRB = (1<<PB7) | (1<<PB6) | (1<<PB5);
     678:	84 e2       	ldi	r24, 0x24	; 36
     67a:	90 e0       	ldi	r25, 0x00	; 0

0000067c <.Loc.2>:
     67c:	20 ee       	ldi	r18, 0xE0	; 224
     67e:	fc 01       	movw	r30, r24
     680:	20 83       	st	Z, r18

00000682 <.Loc.3>:
    PORTB = (1<<PB7) | (1<<PB6) | (1<<PB5);
     682:	85 e2       	ldi	r24, 0x25	; 37
     684:	90 e0       	ldi	r25, 0x00	; 0

00000686 <.Loc.4>:
     686:	20 ee       	ldi	r18, 0xE0	; 224
     688:	fc 01       	movw	r30, r24
     68a:	20 83       	st	Z, r18

0000068c <.Loc.5>:
    DDRH |= (1<<PH5);       // D pin 8  //  relay
     68c:	81 e0       	ldi	r24, 0x01	; 1
     68e:	91 e0       	ldi	r25, 0x01	; 1
     690:	fc 01       	movw	r30, r24
     692:	20 81       	ld	r18, Z
     694:	81 e0       	ldi	r24, 0x01	; 1
     696:	91 e0       	ldi	r25, 0x01	; 1

00000698 <.Loc.6>:
     698:	20 62       	ori	r18, 0x20	; 32
     69a:	fc 01       	movw	r30, r24
     69c:	20 83       	st	Z, r18

0000069e <.Loc.7>:
    PORTH |= (1<<PH5);
     69e:	82 e0       	ldi	r24, 0x02	; 2
     6a0:	91 e0       	ldi	r25, 0x01	; 1
     6a2:	fc 01       	movw	r30, r24
     6a4:	20 81       	ld	r18, Z
     6a6:	82 e0       	ldi	r24, 0x02	; 2
     6a8:	91 e0       	ldi	r25, 0x01	; 1

000006aa <.Loc.8>:
     6aa:	20 62       	ori	r18, 0x20	; 32
     6ac:	fc 01       	movw	r30, r24
     6ae:	20 83       	st	Z, r18

000006b0 <.Loc.9>:

    // ---- bestuurings ledjes ---- //
    DDRG = (1<<PG1) | (1<<PG0);                         // D pin 40 41 //
     6b0:	83 e3       	ldi	r24, 0x33	; 51
     6b2:	90 e0       	ldi	r25, 0x00	; 0

000006b4 <.Loc.10>:
     6b4:	23 e0       	ldi	r18, 0x03	; 3
     6b6:	fc 01       	movw	r30, r24
     6b8:	20 83       	st	Z, r18

000006ba <.Loc.11>:
    DDRL = 0xff;                                        // D pin 42 43 44 45 46 47 48 49 //
     6ba:	8a e0       	ldi	r24, 0x0A	; 10
     6bc:	91 e0       	ldi	r25, 0x01	; 1

000006be <.Loc.12>:
     6be:	2f ef       	ldi	r18, 0xFF	; 255
     6c0:	fc 01       	movw	r30, r24
     6c2:	20 83       	st	Z, r18

000006c4 <.Loc.13>:
    DDRB = (1<<PB3) | (1<<PB2) | (1<<PB1) | (1<<PB0);   // D pin 50 51 52 53 //
     6c4:	84 e2       	ldi	r24, 0x24	; 36
     6c6:	90 e0       	ldi	r25, 0x00	; 0

000006c8 <.Loc.14>:
     6c8:	2f e0       	ldi	r18, 0x0F	; 15
     6ca:	fc 01       	movw	r30, r24
     6cc:	20 83       	st	Z, r18

000006ce <.Loc.15>:
    PORTG = (1<<PG1) | (1<<PG0);
     6ce:	84 e3       	ldi	r24, 0x34	; 52
     6d0:	90 e0       	ldi	r25, 0x00	; 0

000006d2 <.Loc.16>:
     6d2:	23 e0       	ldi	r18, 0x03	; 3
     6d4:	fc 01       	movw	r30, r24
     6d6:	20 83       	st	Z, r18

000006d8 <.Loc.17>:
    PORTL = 0xff;
     6d8:	8b e0       	ldi	r24, 0x0B	; 11
     6da:	91 e0       	ldi	r25, 0x01	; 1

000006dc <.Loc.18>:
     6dc:	2f ef       	ldi	r18, 0xFF	; 255
     6de:	fc 01       	movw	r30, r24
     6e0:	20 83       	st	Z, r18

000006e2 <.Loc.19>:
    PORTB = (1<<PB3) | (1<<PB2) | (1<<PB1) | (1<<PB0);
     6e2:	85 e2       	ldi	r24, 0x25	; 37
     6e4:	90 e0       	ldi	r25, 0x00	; 0

000006e6 <.Loc.20>:
     6e6:	2f e0       	ldi	r18, 0x0F	; 15
     6e8:	fc 01       	movw	r30, r24
     6ea:	20 83       	st	Z, r18

000006ec <.Loc.21>:
}
     6ec:	00 00       	nop
     6ee:	df 91       	pop	r29
     6f0:	cf 91       	pop	r28
     6f2:	08 95       	ret

000006f4 <init_knoppen>:

void init_knoppen(void)
{
     6f4:	cf 93       	push	r28
     6f6:	df 93       	push	r29
     6f8:	cd b7       	in	r28, 0x3d	; 61
     6fa:	de b7       	in	r29, 0x3e	; 62

000006fc <.Loc.23>:
    /**< PH3 t/m PH6, PG5 en PE3 bezet voor de H bruggen */
    DDRF &= ~(1<<PF1);      // A pin 1  //  start knop
     6fc:	80 e3       	ldi	r24, 0x30	; 48
     6fe:	90 e0       	ldi	r25, 0x00	; 0
     700:	fc 01       	movw	r30, r24
     702:	20 81       	ld	r18, Z

00000704 <.Loc.24>:
     704:	80 e3       	ldi	r24, 0x30	; 48
     706:	90 e0       	ldi	r25, 0x00	; 0

00000708 <.Loc.25>:
     708:	2d 7f       	andi	r18, 0xFD	; 253
     70a:	fc 01       	movw	r30, r24
     70c:	20 83       	st	Z, r18

0000070e <.Loc.26>:
    DDRF &= ~(1<<PF2);      // A pin 2  //  reset
     70e:	80 e3       	ldi	r24, 0x30	; 48
     710:	90 e0       	ldi	r25, 0x00	; 0
     712:	fc 01       	movw	r30, r24
     714:	20 81       	ld	r18, Z

00000716 <.Loc.27>:
     716:	80 e3       	ldi	r24, 0x30	; 48
     718:	90 e0       	ldi	r25, 0x00	; 0

0000071a <.Loc.28>:
     71a:	2b 7f       	andi	r18, 0xFB	; 251
     71c:	fc 01       	movw	r30, r24
     71e:	20 83       	st	Z, r18

00000720 <.Loc.29>:
    DDRF &= ~(1<<PF3);      // A pin 3  //  noodstop
     720:	80 e3       	ldi	r24, 0x30	; 48
     722:	90 e0       	ldi	r25, 0x00	; 0
     724:	fc 01       	movw	r30, r24
     726:	20 81       	ld	r18, Z

00000728 <.Loc.30>:
     728:	80 e3       	ldi	r24, 0x30	; 48
     72a:	90 e0       	ldi	r25, 0x00	; 0

0000072c <.Loc.31>:
     72c:	27 7f       	andi	r18, 0xF7	; 247
     72e:	fc 01       	movw	r30, r24
     730:	20 83       	st	Z, r18

00000732 <.Loc.32>:
    DDRF &= ~(1<<PF4);      // A pin 4  //  rotarie encoder rechts
     732:	80 e3       	ldi	r24, 0x30	; 48
     734:	90 e0       	ldi	r25, 0x00	; 0
     736:	fc 01       	movw	r30, r24
     738:	20 81       	ld	r18, Z

0000073a <.Loc.33>:
     73a:	80 e3       	ldi	r24, 0x30	; 48
     73c:	90 e0       	ldi	r25, 0x00	; 0

0000073e <.Loc.34>:
     73e:	2f 7e       	andi	r18, 0xEF	; 239
     740:	fc 01       	movw	r30, r24
     742:	20 83       	st	Z, r18

00000744 <.Loc.35>:
    DDRF &= ~(1<<PF5);      // A pin 5  //  rotarie encoder links
     744:	80 e3       	ldi	r24, 0x30	; 48
     746:	90 e0       	ldi	r25, 0x00	; 0
     748:	fc 01       	movw	r30, r24
     74a:	20 81       	ld	r18, Z

0000074c <.Loc.36>:
     74c:	80 e3       	ldi	r24, 0x30	; 48
     74e:	90 e0       	ldi	r25, 0x00	; 0

00000750 <.Loc.37>:
     750:	2f 7d       	andi	r18, 0xDF	; 223
     752:	fc 01       	movw	r30, r24
     754:	20 83       	st	Z, r18

00000756 <.Loc.38>:
    DDRK &= ~(1<<PK0);      // A pin 8  //  limit switches x-as
     756:	87 e0       	ldi	r24, 0x07	; 7
     758:	91 e0       	ldi	r25, 0x01	; 1
     75a:	fc 01       	movw	r30, r24
     75c:	20 81       	ld	r18, Z

0000075e <.Loc.39>:
     75e:	87 e0       	ldi	r24, 0x07	; 7
     760:	91 e0       	ldi	r25, 0x01	; 1

00000762 <.Loc.40>:
     762:	2e 7f       	andi	r18, 0xFE	; 254
     764:	fc 01       	movw	r30, r24
     766:	20 83       	st	Z, r18

00000768 <.Loc.41>:
    DDRK &= ~(1<<PK1);      // A pin 9  //  limit switches y-as
     768:	87 e0       	ldi	r24, 0x07	; 7
     76a:	91 e0       	ldi	r25, 0x01	; 1
     76c:	fc 01       	movw	r30, r24
     76e:	20 81       	ld	r18, Z

00000770 <.Loc.42>:
     770:	87 e0       	ldi	r24, 0x07	; 7
     772:	91 e0       	ldi	r25, 0x01	; 1

00000774 <.Loc.43>:
     774:	2d 7f       	andi	r18, 0xFD	; 253
     776:	fc 01       	movw	r30, r24
     778:	20 83       	st	Z, r18

0000077a <.Loc.44>:
    DDRK &= ~(1<<PK2);      // A pin 10 //  limit switches z-as
     77a:	87 e0       	ldi	r24, 0x07	; 7
     77c:	91 e0       	ldi	r25, 0x01	; 1
     77e:	fc 01       	movw	r30, r24
     780:	20 81       	ld	r18, Z

00000782 <.Loc.45>:
     782:	87 e0       	ldi	r24, 0x07	; 7
     784:	91 e0       	ldi	r25, 0x01	; 1

00000786 <.Loc.46>:
     786:	2b 7f       	andi	r18, 0xFB	; 251
     788:	fc 01       	movw	r30, r24
     78a:	20 83       	st	Z, r18

0000078c <.Loc.47>:
    DDRK &= ~(1<<PK3);      // A pin 11 //  rotaties tellen x-as
     78c:	87 e0       	ldi	r24, 0x07	; 7
     78e:	91 e0       	ldi	r25, 0x01	; 1
     790:	fc 01       	movw	r30, r24
     792:	20 81       	ld	r18, Z

00000794 <.Loc.48>:
     794:	87 e0       	ldi	r24, 0x07	; 7
     796:	91 e0       	ldi	r25, 0x01	; 1

00000798 <.Loc.49>:
     798:	27 7f       	andi	r18, 0xF7	; 247
     79a:	fc 01       	movw	r30, r24
     79c:	20 83       	st	Z, r18

0000079e <.Loc.50>:
    DDRK &= ~(1<<PK4);      // A pin 12 //  rotaties tellen y-as
     79e:	87 e0       	ldi	r24, 0x07	; 7
     7a0:	91 e0       	ldi	r25, 0x01	; 1
     7a2:	fc 01       	movw	r30, r24
     7a4:	20 81       	ld	r18, Z

000007a6 <.Loc.51>:
     7a6:	87 e0       	ldi	r24, 0x07	; 7
     7a8:	91 e0       	ldi	r25, 0x01	; 1

000007aa <.Loc.52>:
     7aa:	2f 7e       	andi	r18, 0xEF	; 239
     7ac:	fc 01       	movw	r30, r24
     7ae:	20 83       	st	Z, r18

000007b0 <.Loc.53>:
    DDRK &= ~(1<<PK5);      // A pin 13 //  rotaties tellen z-as
     7b0:	87 e0       	ldi	r24, 0x07	; 7
     7b2:	91 e0       	ldi	r25, 0x01	; 1
     7b4:	fc 01       	movw	r30, r24
     7b6:	20 81       	ld	r18, Z

000007b8 <.Loc.54>:
     7b8:	87 e0       	ldi	r24, 0x07	; 7
     7ba:	91 e0       	ldi	r25, 0x01	; 1

000007bc <.Loc.55>:
     7bc:	2f 7d       	andi	r18, 0xDF	; 223
     7be:	fc 01       	movw	r30, r24
     7c0:	20 83       	st	Z, r18

000007c2 <.Loc.56>:
}
     7c2:	00 00       	nop
     7c4:	df 91       	pop	r29
     7c6:	cf 91       	pop	r28
     7c8:	08 95       	ret

000007ca <init>:

int init(void)
{
     7ca:	cf 93       	push	r28
     7cc:	df 93       	push	r29
     7ce:	cd b7       	in	r28, 0x3d	; 61
     7d0:	de b7       	in	r29, 0x3e	; 62

000007d2 <.Loc.58>:
    init_h_bridge();        // h brug 1
     7d2:	0e 94 53 01 	call	0x2a6	; 0x2a6 <init_h_bridge>

000007d6 <.Loc.59>:
    init_h_bridge2();       // h brug 2
     7d6:	0e 94 ab 02 	call	0x556	; 0x556 <init_h_bridge2>

000007da <.Loc.60>:
    init_LED();             // LEDjes
     7da:	0e 94 38 03 	call	0x670	; 0x670 <init_LED>

000007de <.Loc.61>:
    init_knoppen();         // knoppen
     7de:	0e 94 7a 03 	call	0x6f4	; 0x6f4 <init_knoppen>

000007e2 <.Loc.62>:
}
     7e2:	00 00       	nop
     7e4:	df 91       	pop	r29
     7e6:	cf 91       	pop	r28
     7e8:	08 95       	ret

000007ea <main>:

int main(void)
{
     7ea:	0f 93       	push	r16
     7ec:	1f 93       	push	r17
     7ee:	cf 93       	push	r28
     7f0:	df 93       	push	r29
     7f2:	cd b7       	in	r28, 0x3d	; 61
     7f4:	de b7       	in	r29, 0x3e	; 62
     7f6:	cc 56       	subi	r28, 0x6C	; 108
     7f8:	d2 40       	sbci	r29, 0x02	; 2
     7fa:	0f b6       	in	r0, 0x3f	; 63
     7fc:	f8 94       	cli
     7fe:	de bf       	out	0x3e, r29	; 62
     800:	0f be       	out	0x3f, r0	; 63
     802:	cd bf       	out	0x3d, r28	; 61

00000804 <.Loc.64>:
    int besturingX[] = {};
    int besturingY[] = {};

    init();                                         // pinnen initialiseren //
     804:	0e 94 e5 03 	call	0x7ca	; 0x7ca <init>

00000808 <.Loc.65>:
    static int tellery = 0;                         // invoer y-as //
    static int tellerz = 0;                         // invoer z-as //
    static int rotatiex = 0;                        // rotaties van de motor x-as //
    static int rotatiey = 0;                        // rotaties van de motor y-as //
    static int rotariez = 0;                        // rotaties van de motor z-as //
    int knop_ingedruktx = 1;                        // limit switch niet eerder ingedrukt x-as //
     808:	81 e0       	ldi	r24, 0x01	; 1
     80a:	90 e0       	ldi	r25, 0x00	; 0
     80c:	9a 83       	std	Y+2, r25	; 0x02
     80e:	89 83       	std	Y+1, r24	; 0x01

00000810 <.Loc.66>:
    int knop_ingedrukty = 1;                        // limit switch niet eerder ingedrukt y-as //
     810:	81 e0       	ldi	r24, 0x01	; 1
     812:	90 e0       	ldi	r25, 0x00	; 0
     814:	9c 83       	std	Y+4, r25	; 0x04
     816:	8b 83       	std	Y+3, r24	; 0x03

00000818 <.Loc.67>:
    int knop_ingedruktz = 1;                        // limit switch niet eerder ingedrukt z-as //
     818:	81 e0       	ldi	r24, 0x01	; 1
     81a:	90 e0       	ldi	r25, 0x00	; 0
     81c:	98 87       	std	Y+8, r25	; 0x08
     81e:	8f 83       	std	Y+7, r24	; 0x07

00000820 <.Loc.68>:
    int stand = 1;                                  // stand voor de switch case statement //
     820:	81 e0       	ldi	r24, 0x01	; 1
     822:	90 e0       	ldi	r25, 0x00	; 0
     824:	9e 83       	std	Y+6, r25	; 0x06
     826:	8d 83       	std	Y+5, r24	; 0x05

00000828 <.L177>:

    while(1)
    {
        if ((PINF & (1<<PF3)) != 0)                 // noodstop //
     828:	8f e2       	ldi	r24, 0x2F	; 47
     82a:	90 e0       	ldi	r25, 0x00	; 0
     82c:	dc 01       	movw	r26, r24
     82e:	8c 91       	ld	r24, X

00000830 <.Loc.70>:
     830:	88 2f       	mov	r24, r24
     832:	90 e0       	ldi	r25, 0x00	; 0
     834:	88 70       	andi	r24, 0x08	; 8
     836:	99 27       	eor	r25, r25

00000838 <.Loc.71>:
     838:	00 97       	sbiw	r24, 0x00	; 0
     83a:	09 f4       	brne	.+2      	; 0x83e <L0^A+0x2>

0000083c <L0^A>:
     83c:	bc c0       	rjmp	.+376    	; 0x9b6 <.L5>
     83e:	80 e0       	ldi	r24, 0x00	; 0
     840:	90 e0       	ldi	r25, 0x00	; 0
     842:	a8 e4       	ldi	r26, 0x48	; 72
     844:	b2 e4       	ldi	r27, 0x42	; 66
     846:	89 87       	std	Y+9, r24	; 0x09
     848:	9a 87       	std	Y+10, r25	; 0x0a
     84a:	ab 87       	std	Y+11, r26	; 0x0b
     84c:	bc 87       	std	Y+12, r27	; 0x0c

0000084e <.LBB116>:

	__builtin_avr_delay_cycles(__ticks_dc);

#else
	uint16_t __ticks;
	__tmp = ((F_CPU) / 4e3) * __ms;
     84e:	20 e0       	ldi	r18, 0x00	; 0
     850:	30 e0       	ldi	r19, 0x00	; 0
     852:	4a e7       	ldi	r20, 0x7A	; 122
     854:	55 e4       	ldi	r21, 0x45	; 69
     856:	69 85       	ldd	r22, Y+9	; 0x09
     858:	7a 85       	ldd	r23, Y+10	; 0x0a
     85a:	8b 85       	ldd	r24, Y+11	; 0x0b
     85c:	9c 85       	ldd	r25, Y+12	; 0x0c
     85e:	0e 94 47 18 	call	0x308e	; 0x308e <__mulsf3>
     862:	c3 5b       	subi	r28, 0xB3	; 179
     864:	de 4f       	sbci	r29, 0xFE	; 254
     866:	68 83       	st	Y, r22
     868:	79 83       	std	Y+1, r23	; 0x01
     86a:	8a 83       	std	Y+2, r24	; 0x02
     86c:	9b 83       	std	Y+3, r25	; 0x03
     86e:	cd 54       	subi	r28, 0x4D	; 77
     870:	d1 40       	sbci	r29, 0x01	; 1
     872:	c3 5b       	subi	r28, 0xB3	; 179
     874:	de 4f       	sbci	r29, 0xFE	; 254
     876:	88 81       	ld	r24, Y
     878:	99 81       	ldd	r25, Y+1	; 0x01
     87a:	aa 81       	ldd	r26, Y+2	; 0x02
     87c:	bb 81       	ldd	r27, Y+3	; 0x03
     87e:	cd 54       	subi	r28, 0x4D	; 77
     880:	d1 40       	sbci	r29, 0x01	; 1
     882:	8d 87       	std	Y+13, r24	; 0x0d
     884:	9e 87       	std	Y+14, r25	; 0x0e
     886:	af 87       	std	Y+15, r26	; 0x0f
     888:	b8 8b       	std	Y+16, r27	; 0x10

0000088a <.Loc.73>:
	if (__tmp < 1.0)
     88a:	20 e0       	ldi	r18, 0x00	; 0
     88c:	30 e0       	ldi	r19, 0x00	; 0
     88e:	40 e8       	ldi	r20, 0x80	; 128
     890:	5f e3       	ldi	r21, 0x3F	; 63
     892:	6d 85       	ldd	r22, Y+13	; 0x0d
     894:	7e 85       	ldd	r23, Y+14	; 0x0e
     896:	8f 85       	ldd	r24, Y+15	; 0x0f
     898:	98 89       	ldd	r25, Y+16	; 0x10
     89a:	0e 94 c1 17 	call	0x2f82	; 0x2f82 <__cmpsf2>
     89e:	88 23       	and	r24, r24
     8a0:	2c f4       	brge	.+10     	; 0x8ac <.L214>

000008a2 <.Loc.74>:
		__ticks = 1;
     8a2:	81 e0       	ldi	r24, 0x01	; 1
     8a4:	90 e0       	ldi	r25, 0x00	; 0
     8a6:	9a 8b       	std	Y+18, r25	; 0x12
     8a8:	89 8b       	std	Y+17, r24	; 0x11
     8aa:	76 c0       	rjmp	.+236    	; 0x998 <.L8>

000008ac <.L214>:
	else if (__tmp > 65535)
     8ac:	20 e0       	ldi	r18, 0x00	; 0
     8ae:	3f ef       	ldi	r19, 0xFF	; 255
     8b0:	4f e7       	ldi	r20, 0x7F	; 127
     8b2:	57 e4       	ldi	r21, 0x47	; 71
     8b4:	6d 85       	ldd	r22, Y+13	; 0x0d
     8b6:	7e 85       	ldd	r23, Y+14	; 0x0e
     8b8:	8f 85       	ldd	r24, Y+15	; 0x0f
     8ba:	98 89       	ldd	r25, Y+16	; 0x10
     8bc:	0e 94 42 18 	call	0x3084	; 0x3084 <__gesf2>
     8c0:	88 23       	and	r24, r24
     8c2:	09 f0       	breq	.+2      	; 0x8c6 <L0^A>

000008c4 <L0^A>:
     8c4:	0c f4       	brge	.+2      	; 0x8c8 <.Loc.76>

000008c6 <L0^A>:
     8c6:	52 c0       	rjmp	.+164    	; 0x96c <.L215>

000008c8 <.Loc.76>:
	{
		//	__ticks = requested delay in 1/10 ms
		__ticks = (uint16_t) (__ms * 10.0);
     8c8:	20 e0       	ldi	r18, 0x00	; 0
     8ca:	30 e0       	ldi	r19, 0x00	; 0
     8cc:	40 e2       	ldi	r20, 0x20	; 32
     8ce:	51 e4       	ldi	r21, 0x41	; 65
     8d0:	69 85       	ldd	r22, Y+9	; 0x09
     8d2:	7a 85       	ldd	r23, Y+10	; 0x0a
     8d4:	8b 85       	ldd	r24, Y+11	; 0x0b
     8d6:	9c 85       	ldd	r25, Y+12	; 0x0c
     8d8:	0e 94 47 18 	call	0x308e	; 0x308e <__mulsf3>
     8dc:	cf 5a       	subi	r28, 0xAF	; 175
     8de:	de 4f       	sbci	r29, 0xFE	; 254
     8e0:	68 83       	st	Y, r22
     8e2:	79 83       	std	Y+1, r23	; 0x01
     8e4:	8a 83       	std	Y+2, r24	; 0x02
     8e6:	9b 83       	std	Y+3, r25	; 0x03
     8e8:	c1 55       	subi	r28, 0x51	; 81
     8ea:	d1 40       	sbci	r29, 0x01	; 1
     8ec:	cf 5a       	subi	r28, 0xAF	; 175
     8ee:	de 4f       	sbci	r29, 0xFE	; 254
     8f0:	88 81       	ld	r24, Y
     8f2:	99 81       	ldd	r25, Y+1	; 0x01
     8f4:	aa 81       	ldd	r26, Y+2	; 0x02
     8f6:	bb 81       	ldd	r27, Y+3	; 0x03
     8f8:	c1 55       	subi	r28, 0x51	; 81
     8fa:	d1 40       	sbci	r29, 0x01	; 1
     8fc:	cb 5f       	subi	r28, 0xFB	; 251
     8fe:	de 4f       	sbci	r29, 0xFE	; 254
     900:	88 83       	st	Y, r24
     902:	99 83       	std	Y+1, r25	; 0x01
     904:	aa 83       	std	Y+2, r26	; 0x02
     906:	bb 83       	std	Y+3, r27	; 0x03
     908:	c5 50       	subi	r28, 0x05	; 5
     90a:	d1 40       	sbci	r29, 0x01	; 1

0000090c <.Loc.77>:
     90c:	cb 5f       	subi	r28, 0xFB	; 251
     90e:	de 4f       	sbci	r29, 0xFE	; 254
     910:	68 81       	ld	r22, Y
     912:	79 81       	ldd	r23, Y+1	; 0x01
     914:	8a 81       	ldd	r24, Y+2	; 0x02
     916:	9b 81       	ldd	r25, Y+3	; 0x03
     918:	c5 50       	subi	r28, 0x05	; 5
     91a:	d1 40       	sbci	r29, 0x01	; 1
     91c:	0e 94 c6 17 	call	0x2f8c	; 0x2f8c <__fixunssfsi>
     920:	cb 5a       	subi	r28, 0xAB	; 171
     922:	de 4f       	sbci	r29, 0xFE	; 254
     924:	68 83       	st	Y, r22
     926:	79 83       	std	Y+1, r23	; 0x01
     928:	8a 83       	std	Y+2, r24	; 0x02
     92a:	9b 83       	std	Y+3, r25	; 0x03
     92c:	c5 55       	subi	r28, 0x55	; 85
     92e:	d1 40       	sbci	r29, 0x01	; 1
     930:	cb 5a       	subi	r28, 0xAB	; 171
     932:	de 4f       	sbci	r29, 0xFE	; 254
     934:	a8 81       	ld	r26, Y
     936:	b9 81       	ldd	r27, Y+1	; 0x01
     938:	c5 55       	subi	r28, 0x55	; 85
     93a:	d1 40       	sbci	r29, 0x01	; 1
     93c:	ba 8b       	std	Y+18, r27	; 0x12
     93e:	a9 8b       	std	Y+17, r26	; 0x11

00000940 <.Loc.78>:
		while(__ticks)
     940:	10 c0       	rjmp	.+32     	; 0x962 <.L11>

00000942 <.L12>:
     942:	80 e9       	ldi	r24, 0x90	; 144
     944:	91 e0       	ldi	r25, 0x01	; 1
     946:	9c 8b       	std	Y+20, r25	; 0x14
     948:	8b 8b       	std	Y+19, r24	; 0x13

0000094a <.LBB118>:
		"sbc %B0,__zero_reg__"    "\n\t"
		"brne 1b"
		: "+d" (__count)
	);
#else
	__asm__ volatile (
     94a:	8b 89       	ldd	r24, Y+19	; 0x13
     94c:	9c 89       	ldd	r25, Y+20	; 0x14

0000094e <.L1^B1>:
     94e:	01 97       	sbiw	r24, 0x01	; 1
     950:	f1 f7       	brne	.-4      	; 0x94e <.L1^B1>
     952:	9c 8b       	std	Y+20, r25	; 0x14
     954:	8b 8b       	std	Y+19, r24	; 0x13

00000956 <.Loc.80>:
	...

00000958 <.LBE118>:
		{
			// wait 1/10 ms
			_delay_loop_2(((F_CPU) / 4e3) / 10);
			__ticks --;
     958:	89 89       	ldd	r24, Y+17	; 0x11
     95a:	9a 89       	ldd	r25, Y+18	; 0x12
     95c:	01 97       	sbiw	r24, 0x01	; 1
     95e:	9a 8b       	std	Y+18, r25	; 0x12
     960:	89 8b       	std	Y+17, r24	; 0x11

00000962 <.L11>:
		while(__ticks)
     962:	89 89       	ldd	r24, Y+17	; 0x11
     964:	9a 89       	ldd	r25, Y+18	; 0x12
     966:	00 97       	sbiw	r24, 0x00	; 0
     968:	61 f7       	brne	.-40     	; 0x942 <.L12>

0000096a <.Loc.83>:
		}
		return;
     96a:	21 c0       	rjmp	.+66     	; 0x9ae <.L13>

0000096c <.L215>:
	}
	else
		__ticks = (uint16_t)__tmp;
     96c:	6d 85       	ldd	r22, Y+13	; 0x0d
     96e:	7e 85       	ldd	r23, Y+14	; 0x0e
     970:	8f 85       	ldd	r24, Y+15	; 0x0f
     972:	98 89       	ldd	r25, Y+16	; 0x10
     974:	0e 94 c6 17 	call	0x2f8c	; 0x2f8c <__fixunssfsi>
     978:	c7 5a       	subi	r28, 0xA7	; 167
     97a:	de 4f       	sbci	r29, 0xFE	; 254
     97c:	68 83       	st	Y, r22
     97e:	79 83       	std	Y+1, r23	; 0x01
     980:	8a 83       	std	Y+2, r24	; 0x02
     982:	9b 83       	std	Y+3, r25	; 0x03
     984:	c9 55       	subi	r28, 0x59	; 89
     986:	d1 40       	sbci	r29, 0x01	; 1
     988:	c7 5a       	subi	r28, 0xA7	; 167
     98a:	de 4f       	sbci	r29, 0xFE	; 254
     98c:	e8 81       	ld	r30, Y
     98e:	f9 81       	ldd	r31, Y+1	; 0x01
     990:	c9 55       	subi	r28, 0x59	; 89
     992:	d1 40       	sbci	r29, 0x01	; 1
     994:	fa 8b       	std	Y+18, r31	; 0x12
     996:	e9 8b       	std	Y+17, r30	; 0x11

00000998 <.L8>:
     998:	89 89       	ldd	r24, Y+17	; 0x11
     99a:	9a 89       	ldd	r25, Y+18	; 0x12
     99c:	9e 8b       	std	Y+22, r25	; 0x16
     99e:	8d 8b       	std	Y+21, r24	; 0x15

000009a0 <.LBB120>:
     9a0:	8d 89       	ldd	r24, Y+21	; 0x15
     9a2:	9e 89       	ldd	r25, Y+22	; 0x16

000009a4 <.L1^B2>:
     9a4:	01 97       	sbiw	r24, 0x01	; 1
     9a6:	f1 f7       	brne	.-4      	; 0x9a4 <.L1^B2>
     9a8:	9e 8b       	std	Y+22, r25	; 0x16
     9aa:	8d 8b       	std	Y+21, r24	; 0x15

000009ac <.Loc.86>:
	...

000009ae <.L13>:
        {
            DEBOUNCE;
            stand = 6;                              // stand 6 is de nood toestand //
     9ae:	86 e0       	ldi	r24, 0x06	; 6
     9b0:	90 e0       	ldi	r25, 0x00	; 0
     9b2:	9e 83       	std	Y+6, r25	; 0x06
     9b4:	8d 83       	std	Y+5, r24	; 0x05

000009b6 <.L5>:
        }
        if ((PINF & (1<<PF2)) == 0)                 // reset knop //
     9b6:	8f e2       	ldi	r24, 0x2F	; 47
     9b8:	90 e0       	ldi	r25, 0x00	; 0
     9ba:	dc 01       	movw	r26, r24
     9bc:	8c 91       	ld	r24, X

000009be <.Loc.89>:
     9be:	88 2f       	mov	r24, r24
     9c0:	90 e0       	ldi	r25, 0x00	; 0
     9c2:	84 70       	andi	r24, 0x04	; 4
     9c4:	99 27       	eor	r25, r25

000009c6 <.Loc.90>:
     9c6:	00 97       	sbiw	r24, 0x00	; 0
     9c8:	09 f0       	breq	.+2      	; 0x9cc <L0^A+0x2>

000009ca <L0^A>:
     9ca:	c3 c0       	rjmp	.+390    	; 0xb52 <.L14>
     9cc:	80 e0       	ldi	r24, 0x00	; 0
     9ce:	90 e0       	ldi	r25, 0x00	; 0
     9d0:	a8 e4       	ldi	r26, 0x48	; 72
     9d2:	b2 e4       	ldi	r27, 0x42	; 66
     9d4:	8f 8b       	std	Y+23, r24	; 0x17
     9d6:	98 8f       	std	Y+24, r25	; 0x18
     9d8:	a9 8f       	std	Y+25, r26	; 0x19
     9da:	ba 8f       	std	Y+26, r27	; 0x1a

000009dc <.LBB122>:
	__tmp = ((F_CPU) / 4e3) * __ms;
     9dc:	20 e0       	ldi	r18, 0x00	; 0
     9de:	30 e0       	ldi	r19, 0x00	; 0
     9e0:	4a e7       	ldi	r20, 0x7A	; 122
     9e2:	55 e4       	ldi	r21, 0x45	; 69
     9e4:	6f 89       	ldd	r22, Y+23	; 0x17
     9e6:	78 8d       	ldd	r23, Y+24	; 0x18
     9e8:	89 8d       	ldd	r24, Y+25	; 0x19
     9ea:	9a 8d       	ldd	r25, Y+26	; 0x1a
     9ec:	0e 94 47 18 	call	0x308e	; 0x308e <__mulsf3>
     9f0:	c3 5a       	subi	r28, 0xA3	; 163
     9f2:	de 4f       	sbci	r29, 0xFE	; 254
     9f4:	68 83       	st	Y, r22
     9f6:	79 83       	std	Y+1, r23	; 0x01
     9f8:	8a 83       	std	Y+2, r24	; 0x02
     9fa:	9b 83       	std	Y+3, r25	; 0x03
     9fc:	cd 55       	subi	r28, 0x5D	; 93
     9fe:	d1 40       	sbci	r29, 0x01	; 1
     a00:	c3 5a       	subi	r28, 0xA3	; 163
     a02:	de 4f       	sbci	r29, 0xFE	; 254
     a04:	88 81       	ld	r24, Y
     a06:	99 81       	ldd	r25, Y+1	; 0x01
     a08:	aa 81       	ldd	r26, Y+2	; 0x02
     a0a:	bb 81       	ldd	r27, Y+3	; 0x03
     a0c:	cd 55       	subi	r28, 0x5D	; 93
     a0e:	d1 40       	sbci	r29, 0x01	; 1
     a10:	8b 8f       	std	Y+27, r24	; 0x1b
     a12:	9c 8f       	std	Y+28, r25	; 0x1c
     a14:	ad 8f       	std	Y+29, r26	; 0x1d
     a16:	be 8f       	std	Y+30, r27	; 0x1e

00000a18 <.Loc.92>:
	if (__tmp < 1.0)
     a18:	20 e0       	ldi	r18, 0x00	; 0
     a1a:	30 e0       	ldi	r19, 0x00	; 0
     a1c:	40 e8       	ldi	r20, 0x80	; 128
     a1e:	5f e3       	ldi	r21, 0x3F	; 63
     a20:	6b 8d       	ldd	r22, Y+27	; 0x1b
     a22:	7c 8d       	ldd	r23, Y+28	; 0x1c
     a24:	8d 8d       	ldd	r24, Y+29	; 0x1d
     a26:	9e 8d       	ldd	r25, Y+30	; 0x1e
     a28:	0e 94 c1 17 	call	0x2f82	; 0x2f82 <__cmpsf2>
     a2c:	88 23       	and	r24, r24
     a2e:	2c f4       	brge	.+10     	; 0xa3a <.L216>

00000a30 <.Loc.93>:
		__ticks = 1;
     a30:	81 e0       	ldi	r24, 0x01	; 1
     a32:	90 e0       	ldi	r25, 0x00	; 0
     a34:	98 a3       	std	Y+32, r25	; 0x20
     a36:	8f 8f       	std	Y+31, r24	; 0x1f
     a38:	76 c0       	rjmp	.+236    	; 0xb26 <.L17>

00000a3a <.L216>:
	else if (__tmp > 65535)
     a3a:	20 e0       	ldi	r18, 0x00	; 0
     a3c:	3f ef       	ldi	r19, 0xFF	; 255
     a3e:	4f e7       	ldi	r20, 0x7F	; 127
     a40:	57 e4       	ldi	r21, 0x47	; 71
     a42:	6b 8d       	ldd	r22, Y+27	; 0x1b
     a44:	7c 8d       	ldd	r23, Y+28	; 0x1c
     a46:	8d 8d       	ldd	r24, Y+29	; 0x1d
     a48:	9e 8d       	ldd	r25, Y+30	; 0x1e
     a4a:	0e 94 42 18 	call	0x3084	; 0x3084 <__gesf2>
     a4e:	88 23       	and	r24, r24
     a50:	09 f0       	breq	.+2      	; 0xa54 <L0^A>

00000a52 <L0^A>:
     a52:	0c f4       	brge	.+2      	; 0xa56 <.Loc.95>

00000a54 <L0^A>:
     a54:	52 c0       	rjmp	.+164    	; 0xafa <.L217>

00000a56 <.Loc.95>:
		__ticks = (uint16_t) (__ms * 10.0);
     a56:	20 e0       	ldi	r18, 0x00	; 0
     a58:	30 e0       	ldi	r19, 0x00	; 0
     a5a:	40 e2       	ldi	r20, 0x20	; 32
     a5c:	51 e4       	ldi	r21, 0x41	; 65
     a5e:	6f 89       	ldd	r22, Y+23	; 0x17
     a60:	78 8d       	ldd	r23, Y+24	; 0x18
     a62:	89 8d       	ldd	r24, Y+25	; 0x19
     a64:	9a 8d       	ldd	r25, Y+26	; 0x1a
     a66:	0e 94 47 18 	call	0x308e	; 0x308e <__mulsf3>
     a6a:	cf 59       	subi	r28, 0x9F	; 159
     a6c:	de 4f       	sbci	r29, 0xFE	; 254
     a6e:	68 83       	st	Y, r22
     a70:	79 83       	std	Y+1, r23	; 0x01
     a72:	8a 83       	std	Y+2, r24	; 0x02
     a74:	9b 83       	std	Y+3, r25	; 0x03
     a76:	c1 56       	subi	r28, 0x61	; 97
     a78:	d1 40       	sbci	r29, 0x01	; 1
     a7a:	cf 59       	subi	r28, 0x9F	; 159
     a7c:	de 4f       	sbci	r29, 0xFE	; 254
     a7e:	88 81       	ld	r24, Y
     a80:	99 81       	ldd	r25, Y+1	; 0x01
     a82:	aa 81       	ldd	r26, Y+2	; 0x02
     a84:	bb 81       	ldd	r27, Y+3	; 0x03
     a86:	c1 56       	subi	r28, 0x61	; 97
     a88:	d1 40       	sbci	r29, 0x01	; 1
     a8a:	c7 5f       	subi	r28, 0xF7	; 247
     a8c:	de 4f       	sbci	r29, 0xFE	; 254
     a8e:	88 83       	st	Y, r24
     a90:	99 83       	std	Y+1, r25	; 0x01
     a92:	aa 83       	std	Y+2, r26	; 0x02
     a94:	bb 83       	std	Y+3, r27	; 0x03
     a96:	c9 50       	subi	r28, 0x09	; 9
     a98:	d1 40       	sbci	r29, 0x01	; 1

00000a9a <.Loc.96>:
     a9a:	c7 5f       	subi	r28, 0xF7	; 247
     a9c:	de 4f       	sbci	r29, 0xFE	; 254
     a9e:	68 81       	ld	r22, Y
     aa0:	79 81       	ldd	r23, Y+1	; 0x01
     aa2:	8a 81       	ldd	r24, Y+2	; 0x02
     aa4:	9b 81       	ldd	r25, Y+3	; 0x03
     aa6:	c9 50       	subi	r28, 0x09	; 9
     aa8:	d1 40       	sbci	r29, 0x01	; 1
     aaa:	0e 94 c6 17 	call	0x2f8c	; 0x2f8c <__fixunssfsi>
     aae:	cb 59       	subi	r28, 0x9B	; 155
     ab0:	de 4f       	sbci	r29, 0xFE	; 254
     ab2:	68 83       	st	Y, r22
     ab4:	79 83       	std	Y+1, r23	; 0x01
     ab6:	8a 83       	std	Y+2, r24	; 0x02
     ab8:	9b 83       	std	Y+3, r25	; 0x03
     aba:	c5 56       	subi	r28, 0x65	; 101
     abc:	d1 40       	sbci	r29, 0x01	; 1
     abe:	cb 59       	subi	r28, 0x9B	; 155
     ac0:	de 4f       	sbci	r29, 0xFE	; 254
     ac2:	a8 81       	ld	r26, Y
     ac4:	b9 81       	ldd	r27, Y+1	; 0x01
     ac6:	c5 56       	subi	r28, 0x65	; 101
     ac8:	d1 40       	sbci	r29, 0x01	; 1
     aca:	b8 a3       	std	Y+32, r27	; 0x20
     acc:	af 8f       	std	Y+31, r26	; 0x1f

00000ace <.Loc.97>:
		while(__ticks)
     ace:	10 c0       	rjmp	.+32     	; 0xaf0 <.L20>

00000ad0 <.L21>:
     ad0:	80 e9       	ldi	r24, 0x90	; 144
     ad2:	91 e0       	ldi	r25, 0x01	; 1
     ad4:	9a a3       	std	Y+34, r25	; 0x22
     ad6:	89 a3       	std	Y+33, r24	; 0x21

00000ad8 <.LBB125>:
     ad8:	89 a1       	ldd	r24, Y+33	; 0x21
     ada:	9a a1       	ldd	r25, Y+34	; 0x22

00000adc <.L1^B3>:
     adc:	01 97       	sbiw	r24, 0x01	; 1
     ade:	f1 f7       	brne	.-4      	; 0xadc <.L1^B3>
     ae0:	9a a3       	std	Y+34, r25	; 0x22
     ae2:	89 a3       	std	Y+33, r24	; 0x21

00000ae4 <.Loc.99>:
	...

00000ae6 <.LBE125>:
			__ticks --;
     ae6:	8f 8d       	ldd	r24, Y+31	; 0x1f
     ae8:	98 a1       	ldd	r25, Y+32	; 0x20
     aea:	01 97       	sbiw	r24, 0x01	; 1
     aec:	98 a3       	std	Y+32, r25	; 0x20
     aee:	8f 8f       	std	Y+31, r24	; 0x1f

00000af0 <.L20>:
		while(__ticks)
     af0:	8f 8d       	ldd	r24, Y+31	; 0x1f
     af2:	98 a1       	ldd	r25, Y+32	; 0x20
     af4:	00 97       	sbiw	r24, 0x00	; 0
     af6:	61 f7       	brne	.-40     	; 0xad0 <.L21>

00000af8 <.Loc.102>:
		return;
     af8:	21 c0       	rjmp	.+66     	; 0xb3c <.L22>

00000afa <.L217>:
		__ticks = (uint16_t)__tmp;
     afa:	6b 8d       	ldd	r22, Y+27	; 0x1b
     afc:	7c 8d       	ldd	r23, Y+28	; 0x1c
     afe:	8d 8d       	ldd	r24, Y+29	; 0x1d
     b00:	9e 8d       	ldd	r25, Y+30	; 0x1e
     b02:	0e 94 c6 17 	call	0x2f8c	; 0x2f8c <__fixunssfsi>
     b06:	c7 59       	subi	r28, 0x97	; 151
     b08:	de 4f       	sbci	r29, 0xFE	; 254
     b0a:	68 83       	st	Y, r22
     b0c:	79 83       	std	Y+1, r23	; 0x01
     b0e:	8a 83       	std	Y+2, r24	; 0x02
     b10:	9b 83       	std	Y+3, r25	; 0x03
     b12:	c9 56       	subi	r28, 0x69	; 105
     b14:	d1 40       	sbci	r29, 0x01	; 1
     b16:	c7 59       	subi	r28, 0x97	; 151
     b18:	de 4f       	sbci	r29, 0xFE	; 254
     b1a:	e8 81       	ld	r30, Y
     b1c:	f9 81       	ldd	r31, Y+1	; 0x01
     b1e:	c9 56       	subi	r28, 0x69	; 105
     b20:	d1 40       	sbci	r29, 0x01	; 1
     b22:	f8 a3       	std	Y+32, r31	; 0x20
     b24:	ef 8f       	std	Y+31, r30	; 0x1f

00000b26 <.L17>:
     b26:	8f 8d       	ldd	r24, Y+31	; 0x1f
     b28:	98 a1       	ldd	r25, Y+32	; 0x20
     b2a:	9c a3       	std	Y+36, r25	; 0x24
     b2c:	8b a3       	std	Y+35, r24	; 0x23

00000b2e <.LBB127>:
     b2e:	8b a1       	ldd	r24, Y+35	; 0x23
     b30:	9c a1       	ldd	r25, Y+36	; 0x24

00000b32 <.L1^B4>:
     b32:	01 97       	sbiw	r24, 0x01	; 1
     b34:	f1 f7       	brne	.-4      	; 0xb32 <.L1^B4>
     b36:	9c a3       	std	Y+36, r25	; 0x24
     b38:	8b a3       	std	Y+35, r24	; 0x23

00000b3a <.Loc.105>:
	...

00000b3c <.L22>:
        {
            DEBOUNCE;
            h_bridge_set_percentage(-80);           // h brug x-as terug naar begin //
     b3c:	80 eb       	ldi	r24, 0xB0	; 176
     b3e:	0e 94 96 01 	call	0x32c	; 0x32c <h_bridge_set_percentage>

00000b42 <.Loc.107>:
            h_bridge_set_percentage2(-80);          // h brug y-as terug naar begin //
     b42:	80 eb       	ldi	r24, 0xB0	; 176
     b44:	9f ef       	ldi	r25, 0xFF	; 255
     b46:	0e 94 ee 02 	call	0x5dc	; 0x5dc <h_bridge_set_percentage2>

00000b4a <.Loc.108>:
            stand = 5;                              // door naar case 5 //
     b4a:	85 e0       	ldi	r24, 0x05	; 5
     b4c:	90 e0       	ldi	r25, 0x00	; 0
     b4e:	9e 83       	std	Y+6, r25	; 0x06
     b50:	8d 83       	std	Y+5, r24	; 0x05

00000b52 <.L14>:
        }
        switch(stand)
     b52:	8d 81       	ldd	r24, Y+5	; 0x05
     b54:	9e 81       	ldd	r25, Y+6	; 0x06
     b56:	86 30       	cpi	r24, 0x06	; 6
     b58:	91 05       	cpc	r25, r1
     b5a:	11 f4       	brne	.+4      	; 0xb60 <L0^A+0x4>

00000b5c <L0^A>:
     b5c:	0c 94 5a 16 	jmp	0x2cb4	; 0x2cb4 <.L23>
     b60:	8d 81       	ldd	r24, Y+5	; 0x05
     b62:	9e 81       	ldd	r25, Y+6	; 0x06
     b64:	86 30       	cpi	r24, 0x06	; 6
     b66:	91 05       	cpc	r25, r1
     b68:	11 f0       	breq	.+4      	; 0xb6e <L0^A+0x2>

00000b6a <L0^A>:
     b6a:	0c f0       	brlt	.+2      	; 0xb6e <L0^A+0x2>

00000b6c <L0^A>:
     b6c:	5d ce       	rjmp	.-838    	; 0x828 <.L177>
     b6e:	8d 81       	ldd	r24, Y+5	; 0x05
     b70:	9e 81       	ldd	r25, Y+6	; 0x06
     b72:	85 30       	cpi	r24, 0x05	; 5
     b74:	91 05       	cpc	r25, r1
     b76:	11 f4       	brne	.+4      	; 0xb7c <L0^A+0x4>

00000b78 <L0^A>:
     b78:	0c 94 12 14 	jmp	0x2824	; 0x2824 <.L25>
     b7c:	8d 81       	ldd	r24, Y+5	; 0x05
     b7e:	9e 81       	ldd	r25, Y+6	; 0x06
     b80:	85 30       	cpi	r24, 0x05	; 5
     b82:	91 05       	cpc	r25, r1
     b84:	11 f0       	breq	.+4      	; 0xb8a <L0^A+0x2>

00000b86 <L0^A>:
     b86:	0c f0       	brlt	.+2      	; 0xb8a <L0^A+0x2>

00000b88 <L0^A>:
     b88:	4f ce       	rjmp	.-866    	; 0x828 <.L177>
     b8a:	8d 81       	ldd	r24, Y+5	; 0x05
     b8c:	9e 81       	ldd	r25, Y+6	; 0x06
     b8e:	84 30       	cpi	r24, 0x04	; 4
     b90:	91 05       	cpc	r25, r1
     b92:	11 f4       	brne	.+4      	; 0xb98 <.Ldebug_abbrev0+0x3>

00000b94 <L0^A>:
     b94:	0c 94 87 17 	jmp	0x2f0e	; 0x2f0e <.L250>
     b98:	8d 81       	ldd	r24, Y+5	; 0x05
     b9a:	9e 81       	ldd	r25, Y+6	; 0x06
     b9c:	84 30       	cpi	r24, 0x04	; 4
     b9e:	91 05       	cpc	r25, r1
     ba0:	11 f0       	breq	.+4      	; 0xba6 <L0^A+0x2>

00000ba2 <L0^A>:
     ba2:	0c f0       	brlt	.+2      	; 0xba6 <L0^A+0x2>

00000ba4 <L0^A>:
     ba4:	41 ce       	rjmp	.-894    	; 0x828 <.L177>
     ba6:	8d 81       	ldd	r24, Y+5	; 0x05
     ba8:	9e 81       	ldd	r25, Y+6	; 0x06
     baa:	83 30       	cpi	r24, 0x03	; 3
     bac:	91 05       	cpc	r25, r1
     bae:	09 f4       	brne	.+2      	; 0xbb2 <L0^A+0x2>

00000bb0 <L0^A>:
     bb0:	3e c6       	rjmp	.+3196   	; 0x182e <.L27>
     bb2:	8d 81       	ldd	r24, Y+5	; 0x05
     bb4:	9e 81       	ldd	r25, Y+6	; 0x06
     bb6:	83 30       	cpi	r24, 0x03	; 3
     bb8:	91 05       	cpc	r25, r1
     bba:	11 f0       	breq	.+4      	; 0xbc0 <L0^A+0x2>

00000bbc <L0^A>:
     bbc:	0c f0       	brlt	.+2      	; 0xbc0 <L0^A+0x2>

00000bbe <L0^A>:
     bbe:	34 ce       	rjmp	.-920    	; 0x828 <.L177>
     bc0:	8d 81       	ldd	r24, Y+5	; 0x05
     bc2:	9e 81       	ldd	r25, Y+6	; 0x06
     bc4:	81 30       	cpi	r24, 0x01	; 1
     bc6:	91 05       	cpc	r25, r1
     bc8:	41 f0       	breq	.+16     	; 0xbda <.L28>
     bca:	8d 81       	ldd	r24, Y+5	; 0x05
     bcc:	9e 81       	ldd	r25, Y+6	; 0x06
     bce:	82 30       	cpi	r24, 0x02	; 2
     bd0:	91 05       	cpc	r25, r1
     bd2:	09 f4       	brne	.+2      	; 0xbd6 <L0^A+0x2>

00000bd4 <L0^A>:
     bd4:	ca c2       	rjmp	.+1428   	; 0x116a <.L29>
     bd6:	0c 94 97 17 	jmp	0x2f2e	; 0x2f2e <.L24>

00000bda <.L28>:
        {
        case 1:
            h_bridge_set_percentage(0);
     bda:	80 e0       	ldi	r24, 0x00	; 0
     bdc:	0e 94 96 01 	call	0x32c	; 0x32c <h_bridge_set_percentage>

00000be0 <.Loc.111>:
            h_bridge_set_percentage2(0);
     be0:	80 e0       	ldi	r24, 0x00	; 0
     be2:	90 e0       	ldi	r25, 0x00	; 0
     be4:	0e 94 ee 02 	call	0x5dc	; 0x5dc <h_bridge_set_percentage2>

00000be8 <.Loc.112>:
            if ((PINF & (1<<PF4)) != 0)             // rotary encoder naar rechts draaien voor de x-as //
     be8:	8f e2       	ldi	r24, 0x2F	; 47
     bea:	90 e0       	ldi	r25, 0x00	; 0
     bec:	dc 01       	movw	r26, r24
     bee:	8c 91       	ld	r24, X

00000bf0 <.Loc.113>:
     bf0:	88 2f       	mov	r24, r24
     bf2:	90 e0       	ldi	r25, 0x00	; 0
     bf4:	80 71       	andi	r24, 0x10	; 16
     bf6:	99 27       	eor	r25, r25

00000bf8 <.Loc.114>:
     bf8:	00 97       	sbiw	r24, 0x00	; 0
     bfa:	09 f4       	brne	.+2      	; 0xbfe <L0^A+0x2>

00000bfc <L0^A>:
     bfc:	c1 c0       	rjmp	.+386    	; 0xd80 <.L30>
     bfe:	80 e0       	ldi	r24, 0x00	; 0
     c00:	90 e0       	ldi	r25, 0x00	; 0
     c02:	a8 e4       	ldi	r26, 0x48	; 72
     c04:	b2 e4       	ldi	r27, 0x42	; 66
     c06:	8d a3       	std	Y+37, r24	; 0x25
     c08:	9e a3       	std	Y+38, r25	; 0x26
     c0a:	af a3       	std	Y+39, r26	; 0x27
     c0c:	b8 a7       	std	Y+40, r27	; 0x28

00000c0e <.LBB130>:
	__tmp = ((F_CPU) / 4e3) * __ms;
     c0e:	20 e0       	ldi	r18, 0x00	; 0
     c10:	30 e0       	ldi	r19, 0x00	; 0
     c12:	4a e7       	ldi	r20, 0x7A	; 122
     c14:	55 e4       	ldi	r21, 0x45	; 69
     c16:	6d a1       	ldd	r22, Y+37	; 0x25
     c18:	7e a1       	ldd	r23, Y+38	; 0x26
     c1a:	8f a1       	ldd	r24, Y+39	; 0x27
     c1c:	98 a5       	ldd	r25, Y+40	; 0x28
     c1e:	0e 94 47 18 	call	0x308e	; 0x308e <__mulsf3>
     c22:	c3 59       	subi	r28, 0x93	; 147
     c24:	de 4f       	sbci	r29, 0xFE	; 254
     c26:	68 83       	st	Y, r22
     c28:	79 83       	std	Y+1, r23	; 0x01
     c2a:	8a 83       	std	Y+2, r24	; 0x02
     c2c:	9b 83       	std	Y+3, r25	; 0x03
     c2e:	cd 56       	subi	r28, 0x6D	; 109
     c30:	d1 40       	sbci	r29, 0x01	; 1
     c32:	c3 59       	subi	r28, 0x93	; 147
     c34:	de 4f       	sbci	r29, 0xFE	; 254
     c36:	88 81       	ld	r24, Y
     c38:	99 81       	ldd	r25, Y+1	; 0x01
     c3a:	aa 81       	ldd	r26, Y+2	; 0x02
     c3c:	bb 81       	ldd	r27, Y+3	; 0x03
     c3e:	cd 56       	subi	r28, 0x6D	; 109
     c40:	d1 40       	sbci	r29, 0x01	; 1
     c42:	89 a7       	std	Y+41, r24	; 0x29
     c44:	9a a7       	std	Y+42, r25	; 0x2a
     c46:	ab a7       	std	Y+43, r26	; 0x2b
     c48:	bc a7       	std	Y+44, r27	; 0x2c

00000c4a <.Loc.116>:
	if (__tmp < 1.0)
     c4a:	20 e0       	ldi	r18, 0x00	; 0
     c4c:	30 e0       	ldi	r19, 0x00	; 0
     c4e:	40 e8       	ldi	r20, 0x80	; 128
     c50:	5f e3       	ldi	r21, 0x3F	; 63
     c52:	69 a5       	ldd	r22, Y+41	; 0x29
     c54:	7a a5       	ldd	r23, Y+42	; 0x2a
     c56:	8b a5       	ldd	r24, Y+43	; 0x2b
     c58:	9c a5       	ldd	r25, Y+44	; 0x2c
     c5a:	0e 94 c1 17 	call	0x2f82	; 0x2f82 <__cmpsf2>
     c5e:	88 23       	and	r24, r24
     c60:	2c f4       	brge	.+10     	; 0xc6c <.L218>

00000c62 <.Loc.117>:
		__ticks = 1;
     c62:	81 e0       	ldi	r24, 0x01	; 1
     c64:	90 e0       	ldi	r25, 0x00	; 0
     c66:	9e a7       	std	Y+46, r25	; 0x2e
     c68:	8d a7       	std	Y+45, r24	; 0x2d
     c6a:	76 c0       	rjmp	.+236    	; 0xd58 <.L33>

00000c6c <.L218>:
	else if (__tmp > 65535)
     c6c:	20 e0       	ldi	r18, 0x00	; 0
     c6e:	3f ef       	ldi	r19, 0xFF	; 255
     c70:	4f e7       	ldi	r20, 0x7F	; 127
     c72:	57 e4       	ldi	r21, 0x47	; 71
     c74:	69 a5       	ldd	r22, Y+41	; 0x29
     c76:	7a a5       	ldd	r23, Y+42	; 0x2a
     c78:	8b a5       	ldd	r24, Y+43	; 0x2b
     c7a:	9c a5       	ldd	r25, Y+44	; 0x2c
     c7c:	0e 94 42 18 	call	0x3084	; 0x3084 <__gesf2>
     c80:	88 23       	and	r24, r24
     c82:	09 f0       	breq	.+2      	; 0xc86 <L0^A>

00000c84 <L0^A>:
     c84:	0c f4       	brge	.+2      	; 0xc88 <.Loc.119>

00000c86 <L0^A>:
     c86:	52 c0       	rjmp	.+164    	; 0xd2c <.L219>

00000c88 <.Loc.119>:
		__ticks = (uint16_t) (__ms * 10.0);
     c88:	20 e0       	ldi	r18, 0x00	; 0
     c8a:	30 e0       	ldi	r19, 0x00	; 0
     c8c:	40 e2       	ldi	r20, 0x20	; 32
     c8e:	51 e4       	ldi	r21, 0x41	; 65
     c90:	6d a1       	ldd	r22, Y+37	; 0x25
     c92:	7e a1       	ldd	r23, Y+38	; 0x26
     c94:	8f a1       	ldd	r24, Y+39	; 0x27
     c96:	98 a5       	ldd	r25, Y+40	; 0x28
     c98:	0e 94 47 18 	call	0x308e	; 0x308e <__mulsf3>
     c9c:	cf 58       	subi	r28, 0x8F	; 143
     c9e:	de 4f       	sbci	r29, 0xFE	; 254
     ca0:	68 83       	st	Y, r22
     ca2:	79 83       	std	Y+1, r23	; 0x01
     ca4:	8a 83       	std	Y+2, r24	; 0x02
     ca6:	9b 83       	std	Y+3, r25	; 0x03
     ca8:	c1 57       	subi	r28, 0x71	; 113
     caa:	d1 40       	sbci	r29, 0x01	; 1
     cac:	cf 58       	subi	r28, 0x8F	; 143
     cae:	de 4f       	sbci	r29, 0xFE	; 254
     cb0:	88 81       	ld	r24, Y
     cb2:	99 81       	ldd	r25, Y+1	; 0x01
     cb4:	aa 81       	ldd	r26, Y+2	; 0x02
     cb6:	bb 81       	ldd	r27, Y+3	; 0x03
     cb8:	c1 57       	subi	r28, 0x71	; 113
     cba:	d1 40       	sbci	r29, 0x01	; 1
     cbc:	c3 5f       	subi	r28, 0xF3	; 243
     cbe:	de 4f       	sbci	r29, 0xFE	; 254
     cc0:	88 83       	st	Y, r24
     cc2:	99 83       	std	Y+1, r25	; 0x01
     cc4:	aa 83       	std	Y+2, r26	; 0x02
     cc6:	bb 83       	std	Y+3, r27	; 0x03
     cc8:	cd 50       	subi	r28, 0x0D	; 13
     cca:	d1 40       	sbci	r29, 0x01	; 1

00000ccc <.Loc.120>:
     ccc:	c3 5f       	subi	r28, 0xF3	; 243
     cce:	de 4f       	sbci	r29, 0xFE	; 254
     cd0:	68 81       	ld	r22, Y
     cd2:	79 81       	ldd	r23, Y+1	; 0x01
     cd4:	8a 81       	ldd	r24, Y+2	; 0x02
     cd6:	9b 81       	ldd	r25, Y+3	; 0x03
     cd8:	cd 50       	subi	r28, 0x0D	; 13
     cda:	d1 40       	sbci	r29, 0x01	; 1
     cdc:	0e 94 c6 17 	call	0x2f8c	; 0x2f8c <__fixunssfsi>
     ce0:	cb 58       	subi	r28, 0x8B	; 139
     ce2:	de 4f       	sbci	r29, 0xFE	; 254
     ce4:	68 83       	st	Y, r22
     ce6:	79 83       	std	Y+1, r23	; 0x01
     ce8:	8a 83       	std	Y+2, r24	; 0x02
     cea:	9b 83       	std	Y+3, r25	; 0x03
     cec:	c5 57       	subi	r28, 0x75	; 117
     cee:	d1 40       	sbci	r29, 0x01	; 1
     cf0:	cb 58       	subi	r28, 0x8B	; 139
     cf2:	de 4f       	sbci	r29, 0xFE	; 254
     cf4:	a8 81       	ld	r26, Y
     cf6:	b9 81       	ldd	r27, Y+1	; 0x01
     cf8:	c5 57       	subi	r28, 0x75	; 117
     cfa:	d1 40       	sbci	r29, 0x01	; 1
     cfc:	be a7       	std	Y+46, r27	; 0x2e
     cfe:	ad a7       	std	Y+45, r26	; 0x2d

00000d00 <.Loc.121>:
		while(__ticks)
     d00:	10 c0       	rjmp	.+32     	; 0xd22 <.L36>

00000d02 <.L37>:
     d02:	80 e9       	ldi	r24, 0x90	; 144
     d04:	91 e0       	ldi	r25, 0x01	; 1
     d06:	98 ab       	std	Y+48, r25	; 0x30
     d08:	8f a7       	std	Y+47, r24	; 0x2f

00000d0a <.LBB132>:
     d0a:	8f a5       	ldd	r24, Y+47	; 0x2f
     d0c:	98 a9       	ldd	r25, Y+48	; 0x30

00000d0e <.L1^B5>:
     d0e:	01 97       	sbiw	r24, 0x01	; 1
     d10:	f1 f7       	brne	.-4      	; 0xd0e <.L1^B5>
     d12:	98 ab       	std	Y+48, r25	; 0x30
     d14:	8f a7       	std	Y+47, r24	; 0x2f

00000d16 <.Loc.123>:
	...

00000d18 <.LBE132>:
			__ticks --;
     d18:	8d a5       	ldd	r24, Y+45	; 0x2d
     d1a:	9e a5       	ldd	r25, Y+46	; 0x2e
     d1c:	01 97       	sbiw	r24, 0x01	; 1
     d1e:	9e a7       	std	Y+46, r25	; 0x2e
     d20:	8d a7       	std	Y+45, r24	; 0x2d

00000d22 <.L36>:
		while(__ticks)
     d22:	8d a5       	ldd	r24, Y+45	; 0x2d
     d24:	9e a5       	ldd	r25, Y+46	; 0x2e
     d26:	00 97       	sbiw	r24, 0x00	; 0
     d28:	61 f7       	brne	.-40     	; 0xd02 <.L37>

00000d2a <.Loc.126>:
		return;
     d2a:	21 c0       	rjmp	.+66     	; 0xd6e <.L38>

00000d2c <.L219>:
		__ticks = (uint16_t)__tmp;
     d2c:	69 a5       	ldd	r22, Y+41	; 0x29
     d2e:	7a a5       	ldd	r23, Y+42	; 0x2a
     d30:	8b a5       	ldd	r24, Y+43	; 0x2b
     d32:	9c a5       	ldd	r25, Y+44	; 0x2c
     d34:	0e 94 c6 17 	call	0x2f8c	; 0x2f8c <__fixunssfsi>
     d38:	c7 58       	subi	r28, 0x87	; 135
     d3a:	de 4f       	sbci	r29, 0xFE	; 254
     d3c:	68 83       	st	Y, r22
     d3e:	79 83       	std	Y+1, r23	; 0x01
     d40:	8a 83       	std	Y+2, r24	; 0x02
     d42:	9b 83       	std	Y+3, r25	; 0x03
     d44:	c9 57       	subi	r28, 0x79	; 121
     d46:	d1 40       	sbci	r29, 0x01	; 1
     d48:	c7 58       	subi	r28, 0x87	; 135
     d4a:	de 4f       	sbci	r29, 0xFE	; 254
     d4c:	e8 81       	ld	r30, Y
     d4e:	f9 81       	ldd	r31, Y+1	; 0x01
     d50:	c9 57       	subi	r28, 0x79	; 121
     d52:	d1 40       	sbci	r29, 0x01	; 1
     d54:	fe a7       	std	Y+46, r31	; 0x2e
     d56:	ed a7       	std	Y+45, r30	; 0x2d

00000d58 <.L33>:
     d58:	8d a5       	ldd	r24, Y+45	; 0x2d
     d5a:	9e a5       	ldd	r25, Y+46	; 0x2e
     d5c:	9a ab       	std	Y+50, r25	; 0x32
     d5e:	89 ab       	std	Y+49, r24	; 0x31

00000d60 <.LBB134>:
     d60:	89 a9       	ldd	r24, Y+49	; 0x31
     d62:	9a a9       	ldd	r25, Y+50	; 0x32

00000d64 <.L1^B6>:
     d64:	01 97       	sbiw	r24, 0x01	; 1
     d66:	f1 f7       	brne	.-4      	; 0xd64 <.L1^B6>
     d68:	9a ab       	std	Y+50, r25	; 0x32
     d6a:	89 ab       	std	Y+49, r24	; 0x31

00000d6c <.Loc.129>:
	...

00000d6e <.L38>:
            {
                DEBOUNCE;
                tellerx++;                          // rotaties naar rechts tellen //
     d6e:	80 91 00 02 	lds	r24, 0x0200	; 0x800200 <tellerx.5>
     d72:	90 91 01 02 	lds	r25, 0x0201	; 0x800201 <tellerx.5+0x1>
     d76:	01 96       	adiw	r24, 0x01	; 1
     d78:	90 93 01 02 	sts	0x0201, r25	; 0x800201 <tellerx.5+0x1>
     d7c:	80 93 00 02 	sts	0x0200, r24	; 0x800200 <tellerx.5>

00000d80 <.L30>:
                ///PORTB ^= (1<<PB7);
            }
            if ((PINF & (1<<PF5)) != 0)             // rotary encoder naar links draaien voor de x-as //
     d80:	8f e2       	ldi	r24, 0x2F	; 47
     d82:	90 e0       	ldi	r25, 0x00	; 0
     d84:	dc 01       	movw	r26, r24
     d86:	8c 91       	ld	r24, X

00000d88 <.Loc.132>:
     d88:	88 2f       	mov	r24, r24
     d8a:	90 e0       	ldi	r25, 0x00	; 0
     d8c:	80 72       	andi	r24, 0x20	; 32
     d8e:	99 27       	eor	r25, r25

00000d90 <.Loc.133>:
     d90:	00 97       	sbiw	r24, 0x00	; 0
     d92:	09 f4       	brne	.+2      	; 0xd96 <L0^A+0x2>

00000d94 <L0^A>:
     d94:	cc c0       	rjmp	.+408    	; 0xf2e <.L39>
     d96:	80 e0       	ldi	r24, 0x00	; 0
     d98:	90 e0       	ldi	r25, 0x00	; 0
     d9a:	a8 e4       	ldi	r26, 0x48	; 72
     d9c:	b2 e4       	ldi	r27, 0x42	; 66
     d9e:	8b ab       	std	Y+51, r24	; 0x33
     da0:	9c ab       	std	Y+52, r25	; 0x34
     da2:	ad ab       	std	Y+53, r26	; 0x35
     da4:	be ab       	std	Y+54, r27	; 0x36

00000da6 <.LBB136>:
	__tmp = ((F_CPU) / 4e3) * __ms;
     da6:	20 e0       	ldi	r18, 0x00	; 0
     da8:	30 e0       	ldi	r19, 0x00	; 0
     daa:	4a e7       	ldi	r20, 0x7A	; 122
     dac:	55 e4       	ldi	r21, 0x45	; 69
     dae:	6b a9       	ldd	r22, Y+51	; 0x33
     db0:	7c a9       	ldd	r23, Y+52	; 0x34
     db2:	8d a9       	ldd	r24, Y+53	; 0x35
     db4:	9e a9       	ldd	r25, Y+54	; 0x36
     db6:	0e 94 47 18 	call	0x308e	; 0x308e <__mulsf3>
     dba:	c3 58       	subi	r28, 0x83	; 131
     dbc:	de 4f       	sbci	r29, 0xFE	; 254
     dbe:	68 83       	st	Y, r22
     dc0:	79 83       	std	Y+1, r23	; 0x01
     dc2:	8a 83       	std	Y+2, r24	; 0x02
     dc4:	9b 83       	std	Y+3, r25	; 0x03
     dc6:	cd 57       	subi	r28, 0x7D	; 125
     dc8:	d1 40       	sbci	r29, 0x01	; 1
     dca:	c3 58       	subi	r28, 0x83	; 131
     dcc:	de 4f       	sbci	r29, 0xFE	; 254
     dce:	88 81       	ld	r24, Y
     dd0:	99 81       	ldd	r25, Y+1	; 0x01
     dd2:	aa 81       	ldd	r26, Y+2	; 0x02
     dd4:	bb 81       	ldd	r27, Y+3	; 0x03
     dd6:	cd 57       	subi	r28, 0x7D	; 125
     dd8:	d1 40       	sbci	r29, 0x01	; 1
     dda:	8f ab       	std	Y+55, r24	; 0x37
     ddc:	98 af       	std	Y+56, r25	; 0x38
     dde:	a9 af       	std	Y+57, r26	; 0x39
     de0:	ba af       	std	Y+58, r27	; 0x3a

00000de2 <.Loc.135>:
	if (__tmp < 1.0)
     de2:	20 e0       	ldi	r18, 0x00	; 0
     de4:	30 e0       	ldi	r19, 0x00	; 0
     de6:	40 e8       	ldi	r20, 0x80	; 128
     de8:	5f e3       	ldi	r21, 0x3F	; 63
     dea:	6f a9       	ldd	r22, Y+55	; 0x37
     dec:	78 ad       	ldd	r23, Y+56	; 0x38
     dee:	89 ad       	ldd	r24, Y+57	; 0x39
     df0:	9a ad       	ldd	r25, Y+58	; 0x3a
     df2:	0e 94 c1 17 	call	0x2f82	; 0x2f82 <__cmpsf2>
     df6:	88 23       	and	r24, r24
     df8:	2c f4       	brge	.+10     	; 0xe04 <.L220>

00000dfa <.Loc.136>:
		__ticks = 1;
     dfa:	81 e0       	ldi	r24, 0x01	; 1
     dfc:	90 e0       	ldi	r25, 0x00	; 0
     dfe:	9c af       	std	Y+60, r25	; 0x3c
     e00:	8b af       	std	Y+59, r24	; 0x3b
     e02:	76 c0       	rjmp	.+236    	; 0xef0 <.L42>

00000e04 <.L220>:
	else if (__tmp > 65535)
     e04:	20 e0       	ldi	r18, 0x00	; 0
     e06:	3f ef       	ldi	r19, 0xFF	; 255
     e08:	4f e7       	ldi	r20, 0x7F	; 127
     e0a:	57 e4       	ldi	r21, 0x47	; 71
     e0c:	6f a9       	ldd	r22, Y+55	; 0x37
     e0e:	78 ad       	ldd	r23, Y+56	; 0x38
     e10:	89 ad       	ldd	r24, Y+57	; 0x39
     e12:	9a ad       	ldd	r25, Y+58	; 0x3a
     e14:	0e 94 42 18 	call	0x3084	; 0x3084 <__gesf2>
     e18:	88 23       	and	r24, r24
     e1a:	09 f0       	breq	.+2      	; 0xe1e <L0^A>

00000e1c <L0^A>:
     e1c:	0c f4       	brge	.+2      	; 0xe20 <.Loc.138>

00000e1e <L0^A>:
     e1e:	52 c0       	rjmp	.+164    	; 0xec4 <.L221>

00000e20 <.Loc.138>:
		__ticks = (uint16_t) (__ms * 10.0);
     e20:	20 e0       	ldi	r18, 0x00	; 0
     e22:	30 e0       	ldi	r19, 0x00	; 0
     e24:	40 e2       	ldi	r20, 0x20	; 32
     e26:	51 e4       	ldi	r21, 0x41	; 65
     e28:	6b a9       	ldd	r22, Y+51	; 0x33
     e2a:	7c a9       	ldd	r23, Y+52	; 0x34
     e2c:	8d a9       	ldd	r24, Y+53	; 0x35
     e2e:	9e a9       	ldd	r25, Y+54	; 0x36
     e30:	0e 94 47 18 	call	0x308e	; 0x308e <__mulsf3>
     e34:	cf 57       	subi	r28, 0x7F	; 127
     e36:	de 4f       	sbci	r29, 0xFE	; 254
     e38:	68 83       	st	Y, r22
     e3a:	79 83       	std	Y+1, r23	; 0x01
     e3c:	8a 83       	std	Y+2, r24	; 0x02
     e3e:	9b 83       	std	Y+3, r25	; 0x03
     e40:	c1 58       	subi	r28, 0x81	; 129
     e42:	d1 40       	sbci	r29, 0x01	; 1
     e44:	cf 57       	subi	r28, 0x7F	; 127
     e46:	de 4f       	sbci	r29, 0xFE	; 254
     e48:	88 81       	ld	r24, Y
     e4a:	99 81       	ldd	r25, Y+1	; 0x01
     e4c:	aa 81       	ldd	r26, Y+2	; 0x02
     e4e:	bb 81       	ldd	r27, Y+3	; 0x03
     e50:	c1 58       	subi	r28, 0x81	; 129
     e52:	d1 40       	sbci	r29, 0x01	; 1
     e54:	cf 5e       	subi	r28, 0xEF	; 239
     e56:	de 4f       	sbci	r29, 0xFE	; 254
     e58:	88 83       	st	Y, r24
     e5a:	99 83       	std	Y+1, r25	; 0x01
     e5c:	aa 83       	std	Y+2, r26	; 0x02
     e5e:	bb 83       	std	Y+3, r27	; 0x03
     e60:	c1 51       	subi	r28, 0x11	; 17
     e62:	d1 40       	sbci	r29, 0x01	; 1

00000e64 <.Loc.139>:
     e64:	cf 5e       	subi	r28, 0xEF	; 239
     e66:	de 4f       	sbci	r29, 0xFE	; 254
     e68:	68 81       	ld	r22, Y
     e6a:	79 81       	ldd	r23, Y+1	; 0x01
     e6c:	8a 81       	ldd	r24, Y+2	; 0x02
     e6e:	9b 81       	ldd	r25, Y+3	; 0x03
     e70:	c1 51       	subi	r28, 0x11	; 17
     e72:	d1 40       	sbci	r29, 0x01	; 1
     e74:	0e 94 c6 17 	call	0x2f8c	; 0x2f8c <__fixunssfsi>
     e78:	cb 57       	subi	r28, 0x7B	; 123
     e7a:	de 4f       	sbci	r29, 0xFE	; 254
     e7c:	68 83       	st	Y, r22
     e7e:	79 83       	std	Y+1, r23	; 0x01
     e80:	8a 83       	std	Y+2, r24	; 0x02
     e82:	9b 83       	std	Y+3, r25	; 0x03
     e84:	c5 58       	subi	r28, 0x85	; 133
     e86:	d1 40       	sbci	r29, 0x01	; 1
     e88:	cb 57       	subi	r28, 0x7B	; 123
     e8a:	de 4f       	sbci	r29, 0xFE	; 254
     e8c:	a8 81       	ld	r26, Y
     e8e:	b9 81       	ldd	r27, Y+1	; 0x01
     e90:	c5 58       	subi	r28, 0x85	; 133
     e92:	d1 40       	sbci	r29, 0x01	; 1
     e94:	bc af       	std	Y+60, r27	; 0x3c
     e96:	ab af       	std	Y+59, r26	; 0x3b

00000e98 <.Loc.140>:
		while(__ticks)
     e98:	10 c0       	rjmp	.+32     	; 0xeba <.L45>

00000e9a <.L46>:
     e9a:	80 e9       	ldi	r24, 0x90	; 144
     e9c:	91 e0       	ldi	r25, 0x01	; 1
     e9e:	9e af       	std	Y+62, r25	; 0x3e
     ea0:	8d af       	std	Y+61, r24	; 0x3d

00000ea2 <.LBB138>:
     ea2:	8d ad       	ldd	r24, Y+61	; 0x3d
     ea4:	9e ad       	ldd	r25, Y+62	; 0x3e

00000ea6 <.L1^B7>:
     ea6:	01 97       	sbiw	r24, 0x01	; 1
     ea8:	f1 f7       	brne	.-4      	; 0xea6 <.L1^B7>
     eaa:	9e af       	std	Y+62, r25	; 0x3e
     eac:	8d af       	std	Y+61, r24	; 0x3d

00000eae <.Loc.142>:
	...

00000eb0 <.LBE138>:
			__ticks --;
     eb0:	8b ad       	ldd	r24, Y+59	; 0x3b
     eb2:	9c ad       	ldd	r25, Y+60	; 0x3c
     eb4:	01 97       	sbiw	r24, 0x01	; 1
     eb6:	9c af       	std	Y+60, r25	; 0x3c
     eb8:	8b af       	std	Y+59, r24	; 0x3b

00000eba <.L45>:
		while(__ticks)
     eba:	8b ad       	ldd	r24, Y+59	; 0x3b
     ebc:	9c ad       	ldd	r25, Y+60	; 0x3c
     ebe:	00 97       	sbiw	r24, 0x00	; 0
     ec0:	61 f7       	brne	.-40     	; 0xe9a <.L46>

00000ec2 <.Loc.145>:
		return;
     ec2:	2c c0       	rjmp	.+88     	; 0xf1c <.L47>

00000ec4 <.L221>:
		__ticks = (uint16_t)__tmp;
     ec4:	6f a9       	ldd	r22, Y+55	; 0x37
     ec6:	78 ad       	ldd	r23, Y+56	; 0x38
     ec8:	89 ad       	ldd	r24, Y+57	; 0x39
     eca:	9a ad       	ldd	r25, Y+58	; 0x3a
     ecc:	0e 94 c6 17 	call	0x2f8c	; 0x2f8c <__fixunssfsi>
     ed0:	c7 57       	subi	r28, 0x77	; 119
     ed2:	de 4f       	sbci	r29, 0xFE	; 254
     ed4:	68 83       	st	Y, r22
     ed6:	79 83       	std	Y+1, r23	; 0x01
     ed8:	8a 83       	std	Y+2, r24	; 0x02
     eda:	9b 83       	std	Y+3, r25	; 0x03
     edc:	c9 58       	subi	r28, 0x89	; 137
     ede:	d1 40       	sbci	r29, 0x01	; 1
     ee0:	c7 57       	subi	r28, 0x77	; 119
     ee2:	de 4f       	sbci	r29, 0xFE	; 254
     ee4:	e8 81       	ld	r30, Y
     ee6:	f9 81       	ldd	r31, Y+1	; 0x01
     ee8:	c9 58       	subi	r28, 0x89	; 137
     eea:	d1 40       	sbci	r29, 0x01	; 1
     eec:	fc af       	std	Y+60, r31	; 0x3c
     eee:	eb af       	std	Y+59, r30	; 0x3b

00000ef0 <.L42>:
     ef0:	2b ad       	ldd	r18, Y+59	; 0x3b
     ef2:	3c ad       	ldd	r19, Y+60	; 0x3c
     ef4:	ce 01       	movw	r24, r28
     ef6:	cf 96       	adiw	r24, 0x3f	; 63
     ef8:	dc 01       	movw	r26, r24
     efa:	2d 93       	st	X+, r18
     efc:	3c 93       	st	X, r19

00000efe <.LBB140>:
     efe:	ce 01       	movw	r24, r28
     f00:	cf 96       	adiw	r24, 0x3f	; 63
     f02:	fc 01       	movw	r30, r24
     f04:	80 81       	ld	r24, Z
     f06:	91 81       	ldd	r25, Z+1	; 0x01

00000f08 <.L1^B8>:
     f08:	01 97       	sbiw	r24, 0x01	; 1
     f0a:	f1 f7       	brne	.-4      	; 0xf08 <.L1^B8>
     f0c:	9e 01       	movw	r18, r28
     f0e:	21 5c       	subi	r18, 0xC1	; 193
     f10:	3f 4f       	sbci	r19, 0xFF	; 255
     f12:	d9 01       	movw	r26, r18
     f14:	11 96       	adiw	r26, 0x01	; 1
     f16:	9c 93       	st	X, r25
     f18:	8e 93       	st	-X, r24

00000f1a <.Loc.148>:
	...

00000f1c <.L47>:
            {
                DEBOUNCE;
                tellerx--;                          // rotaties naar links tellen //
     f1c:	80 91 00 02 	lds	r24, 0x0200	; 0x800200 <tellerx.5>
     f20:	90 91 01 02 	lds	r25, 0x0201	; 0x800201 <tellerx.5+0x1>
     f24:	01 97       	sbiw	r24, 0x01	; 1
     f26:	90 93 01 02 	sts	0x0201, r25	; 0x800201 <tellerx.5+0x1>
     f2a:	80 93 00 02 	sts	0x0200, r24	; 0x800200 <tellerx.5>

00000f2e <.L39>:
                ///PORTB ^= (1<<PB6);
            }
            if ((PINF & (1<<PF1)) != 0)             // knop voor activeren x-as //
     f2e:	8f e2       	ldi	r24, 0x2F	; 47
     f30:	90 e0       	ldi	r25, 0x00	; 0
     f32:	fc 01       	movw	r30, r24
     f34:	80 81       	ld	r24, Z

00000f36 <.Loc.151>:
     f36:	88 2f       	mov	r24, r24
     f38:	90 e0       	ldi	r25, 0x00	; 0
     f3a:	82 70       	andi	r24, 0x02	; 2
     f3c:	99 27       	eor	r25, r25

00000f3e <.Loc.152>:
     f3e:	00 97       	sbiw	r24, 0x00	; 0
     f40:	11 f4       	brne	.+4      	; 0xf46 <L0^A+0x4>

00000f42 <L0^A>:
     f42:	0c 94 8a 17 	jmp	0x2f14	; 0x2f14 <.L251>
     f46:	9e 01       	movw	r18, r28
     f48:	2f 5b       	subi	r18, 0xBF	; 191
     f4a:	3f 4f       	sbci	r19, 0xFF	; 255
     f4c:	80 e0       	ldi	r24, 0x00	; 0
     f4e:	90 e0       	ldi	r25, 0x00	; 0
     f50:	a8 e4       	ldi	r26, 0x48	; 72
     f52:	b2 e4       	ldi	r27, 0x42	; 66
     f54:	f9 01       	movw	r30, r18
     f56:	80 83       	st	Z, r24
     f58:	91 83       	std	Z+1, r25	; 0x01
     f5a:	a2 83       	std	Z+2, r26	; 0x02
     f5c:	b3 83       	std	Z+3, r27	; 0x03

00000f5e <.LBB142>:
	__tmp = ((F_CPU) / 4e3) * __ms;
     f5e:	8e 01       	movw	r16, r28
     f60:	0b 5b       	subi	r16, 0xBB	; 187
     f62:	1f 4f       	sbci	r17, 0xFF	; 255
     f64:	ce 01       	movw	r24, r28
     f66:	8f 5b       	subi	r24, 0xBF	; 191
     f68:	9f 4f       	sbci	r25, 0xFF	; 255
     f6a:	20 e0       	ldi	r18, 0x00	; 0
     f6c:	30 e0       	ldi	r19, 0x00	; 0
     f6e:	4a e7       	ldi	r20, 0x7A	; 122
     f70:	55 e4       	ldi	r21, 0x45	; 69
     f72:	dc 01       	movw	r26, r24
     f74:	6d 91       	ld	r22, X+
     f76:	7d 91       	ld	r23, X+
     f78:	8d 91       	ld	r24, X+
     f7a:	9c 91       	ld	r25, X
     f7c:	0e 94 47 18 	call	0x308e	; 0x308e <__mulsf3>
     f80:	c3 57       	subi	r28, 0x73	; 115
     f82:	de 4f       	sbci	r29, 0xFE	; 254
     f84:	68 83       	st	Y, r22
     f86:	79 83       	std	Y+1, r23	; 0x01
     f88:	8a 83       	std	Y+2, r24	; 0x02
     f8a:	9b 83       	std	Y+3, r25	; 0x03
     f8c:	cd 58       	subi	r28, 0x8D	; 141
     f8e:	d1 40       	sbci	r29, 0x01	; 1
     f90:	c3 57       	subi	r28, 0x73	; 115
     f92:	de 4f       	sbci	r29, 0xFE	; 254
     f94:	88 81       	ld	r24, Y
     f96:	99 81       	ldd	r25, Y+1	; 0x01
     f98:	aa 81       	ldd	r26, Y+2	; 0x02
     f9a:	bb 81       	ldd	r27, Y+3	; 0x03
     f9c:	cd 58       	subi	r28, 0x8D	; 141
     f9e:	d1 40       	sbci	r29, 0x01	; 1
     fa0:	f8 01       	movw	r30, r16
     fa2:	80 83       	st	Z, r24
     fa4:	91 83       	std	Z+1, r25	; 0x01
     fa6:	a2 83       	std	Z+2, r26	; 0x02
     fa8:	b3 83       	std	Z+3, r27	; 0x03

00000faa <.Loc.154>:
	if (__tmp < 1.0)
     faa:	ce 01       	movw	r24, r28
     fac:	8b 5b       	subi	r24, 0xBB	; 187
     fae:	9f 4f       	sbci	r25, 0xFF	; 255
     fb0:	20 e0       	ldi	r18, 0x00	; 0
     fb2:	30 e0       	ldi	r19, 0x00	; 0
     fb4:	40 e8       	ldi	r20, 0x80	; 128
     fb6:	5f e3       	ldi	r21, 0x3F	; 63
     fb8:	dc 01       	movw	r26, r24
     fba:	6d 91       	ld	r22, X+
     fbc:	7d 91       	ld	r23, X+
     fbe:	8d 91       	ld	r24, X+
     fc0:	9c 91       	ld	r25, X
     fc2:	0e 94 c1 17 	call	0x2f82	; 0x2f82 <__cmpsf2>
     fc6:	88 23       	and	r24, r24
     fc8:	4c f4       	brge	.+18     	; 0xfdc <.L222>

00000fca <.Loc.155>:
		__ticks = 1;
     fca:	ce 01       	movw	r24, r28
     fcc:	87 5b       	subi	r24, 0xB7	; 183
     fce:	9f 4f       	sbci	r25, 0xFF	; 255
     fd0:	21 e0       	ldi	r18, 0x01	; 1
     fd2:	30 e0       	ldi	r19, 0x00	; 0
     fd4:	fc 01       	movw	r30, r24
     fd6:	31 83       	std	Z+1, r19	; 0x01
     fd8:	20 83       	st	Z, r18
     fda:	a5 c0       	rjmp	.+330    	; 0x1126 <.L51>

00000fdc <.L222>:
	else if (__tmp > 65535)
     fdc:	ce 01       	movw	r24, r28
     fde:	8b 5b       	subi	r24, 0xBB	; 187
     fe0:	9f 4f       	sbci	r25, 0xFF	; 255
     fe2:	20 e0       	ldi	r18, 0x00	; 0
     fe4:	3f ef       	ldi	r19, 0xFF	; 255
     fe6:	4f e7       	ldi	r20, 0x7F	; 127
     fe8:	57 e4       	ldi	r21, 0x47	; 71
     fea:	dc 01       	movw	r26, r24
     fec:	6d 91       	ld	r22, X+
     fee:	7d 91       	ld	r23, X+
     ff0:	8d 91       	ld	r24, X+
     ff2:	9c 91       	ld	r25, X
     ff4:	0e 94 42 18 	call	0x3084	; 0x3084 <__gesf2>
     ff8:	88 23       	and	r24, r24
     ffa:	09 f0       	breq	.+2      	; 0xffe <L0^A>

00000ffc <L0^A>:
     ffc:	0c f4       	brge	.+2      	; 0x1000 <.Loc.157>

00000ffe <L0^A>:
     ffe:	75 c0       	rjmp	.+234    	; 0x10ea <.L223>

00001000 <.Loc.157>:
		__ticks = (uint16_t) (__ms * 10.0);
    1000:	ce 01       	movw	r24, r28
    1002:	8f 5b       	subi	r24, 0xBF	; 191
    1004:	9f 4f       	sbci	r25, 0xFF	; 255
    1006:	20 e0       	ldi	r18, 0x00	; 0
    1008:	30 e0       	ldi	r19, 0x00	; 0
    100a:	40 e2       	ldi	r20, 0x20	; 32
    100c:	51 e4       	ldi	r21, 0x41	; 65
    100e:	fc 01       	movw	r30, r24
    1010:	60 81       	ld	r22, Z
    1012:	71 81       	ldd	r23, Z+1	; 0x01
    1014:	82 81       	ldd	r24, Z+2	; 0x02
    1016:	93 81       	ldd	r25, Z+3	; 0x03
    1018:	0e 94 47 18 	call	0x308e	; 0x308e <__mulsf3>
    101c:	cf 56       	subi	r28, 0x6F	; 111
    101e:	de 4f       	sbci	r29, 0xFE	; 254
    1020:	68 83       	st	Y, r22
    1022:	79 83       	std	Y+1, r23	; 0x01
    1024:	8a 83       	std	Y+2, r24	; 0x02
    1026:	9b 83       	std	Y+3, r25	; 0x03
    1028:	c1 59       	subi	r28, 0x91	; 145
    102a:	d1 40       	sbci	r29, 0x01	; 1
    102c:	cf 56       	subi	r28, 0x6F	; 111
    102e:	de 4f       	sbci	r29, 0xFE	; 254
    1030:	88 81       	ld	r24, Y
    1032:	99 81       	ldd	r25, Y+1	; 0x01
    1034:	aa 81       	ldd	r26, Y+2	; 0x02
    1036:	bb 81       	ldd	r27, Y+3	; 0x03
    1038:	c1 59       	subi	r28, 0x91	; 145
    103a:	d1 40       	sbci	r29, 0x01	; 1
    103c:	cb 5e       	subi	r28, 0xEB	; 235
    103e:	de 4f       	sbci	r29, 0xFE	; 254
    1040:	88 83       	st	Y, r24
    1042:	99 83       	std	Y+1, r25	; 0x01
    1044:	aa 83       	std	Y+2, r26	; 0x02
    1046:	bb 83       	std	Y+3, r27	; 0x03
    1048:	c5 51       	subi	r28, 0x15	; 21
    104a:	d1 40       	sbci	r29, 0x01	; 1

0000104c <.Loc.158>:
    104c:	8e 01       	movw	r16, r28
    104e:	07 5b       	subi	r16, 0xB7	; 183
    1050:	1f 4f       	sbci	r17, 0xFF	; 255
    1052:	cb 5e       	subi	r28, 0xEB	; 235
    1054:	de 4f       	sbci	r29, 0xFE	; 254
    1056:	68 81       	ld	r22, Y
    1058:	79 81       	ldd	r23, Y+1	; 0x01
    105a:	8a 81       	ldd	r24, Y+2	; 0x02
    105c:	9b 81       	ldd	r25, Y+3	; 0x03
    105e:	c5 51       	subi	r28, 0x15	; 21
    1060:	d1 40       	sbci	r29, 0x01	; 1
    1062:	0e 94 c6 17 	call	0x2f8c	; 0x2f8c <__fixunssfsi>
    1066:	cb 56       	subi	r28, 0x6B	; 107
    1068:	de 4f       	sbci	r29, 0xFE	; 254
    106a:	68 83       	st	Y, r22
    106c:	79 83       	std	Y+1, r23	; 0x01
    106e:	8a 83       	std	Y+2, r24	; 0x02
    1070:	9b 83       	std	Y+3, r25	; 0x03
    1072:	c5 59       	subi	r28, 0x95	; 149
    1074:	d1 40       	sbci	r29, 0x01	; 1
    1076:	cb 56       	subi	r28, 0x6B	; 107
    1078:	de 4f       	sbci	r29, 0xFE	; 254
    107a:	e8 81       	ld	r30, Y
    107c:	f9 81       	ldd	r31, Y+1	; 0x01
    107e:	c5 59       	subi	r28, 0x95	; 149
    1080:	d1 40       	sbci	r29, 0x01	; 1
    1082:	d8 01       	movw	r26, r16
    1084:	11 96       	adiw	r26, 0x01	; 1
    1086:	fc 93       	st	X, r31
    1088:	ee 93       	st	-X, r30

0000108a <.Loc.159>:
		while(__ticks)
    108a:	26 c0       	rjmp	.+76     	; 0x10d8 <.L54>

0000108c <.L55>:
    108c:	ce 01       	movw	r24, r28
    108e:	85 5b       	subi	r24, 0xB5	; 181
    1090:	9f 4f       	sbci	r25, 0xFF	; 255
    1092:	20 e9       	ldi	r18, 0x90	; 144
    1094:	31 e0       	ldi	r19, 0x01	; 1
    1096:	dc 01       	movw	r26, r24
    1098:	2d 93       	st	X+, r18
    109a:	3c 93       	st	X, r19

0000109c <.LBB144>:
    109c:	ce 01       	movw	r24, r28
    109e:	85 5b       	subi	r24, 0xB5	; 181
    10a0:	9f 4f       	sbci	r25, 0xFF	; 255
    10a2:	fc 01       	movw	r30, r24
    10a4:	80 81       	ld	r24, Z
    10a6:	91 81       	ldd	r25, Z+1	; 0x01

000010a8 <.L1^B9>:
    10a8:	01 97       	sbiw	r24, 0x01	; 1
    10aa:	f1 f7       	brne	.-4      	; 0x10a8 <.L1^B9>
    10ac:	9e 01       	movw	r18, r28
    10ae:	25 5b       	subi	r18, 0xB5	; 181
    10b0:	3f 4f       	sbci	r19, 0xFF	; 255
    10b2:	d9 01       	movw	r26, r18
    10b4:	8d 93       	st	X+, r24
    10b6:	9c 93       	st	X, r25

000010b8 <.Loc.161>:
	...

000010ba <.LBE144>:
			__ticks --;
    10ba:	ce 01       	movw	r24, r28
    10bc:	87 5b       	subi	r24, 0xB7	; 183
    10be:	9f 4f       	sbci	r25, 0xFF	; 255
    10c0:	9e 01       	movw	r18, r28
    10c2:	27 5b       	subi	r18, 0xB7	; 183
    10c4:	3f 4f       	sbci	r19, 0xFF	; 255
    10c6:	f9 01       	movw	r30, r18
    10c8:	20 81       	ld	r18, Z
    10ca:	31 81       	ldd	r19, Z+1	; 0x01
    10cc:	21 50       	subi	r18, 0x01	; 1
    10ce:	31 09       	sbc	r19, r1
    10d0:	dc 01       	movw	r26, r24
    10d2:	11 96       	adiw	r26, 0x01	; 1
    10d4:	3c 93       	st	X, r19
    10d6:	2e 93       	st	-X, r18

000010d8 <.L54>:
		while(__ticks)
    10d8:	ce 01       	movw	r24, r28
    10da:	87 5b       	subi	r24, 0xB7	; 183
    10dc:	9f 4f       	sbci	r25, 0xFF	; 255
    10de:	fc 01       	movw	r30, r24
    10e0:	80 81       	ld	r24, Z
    10e2:	91 81       	ldd	r25, Z+1	; 0x01
    10e4:	00 97       	sbiw	r24, 0x00	; 0
    10e6:	91 f6       	brne	.-92     	; 0x108c <.L55>

000010e8 <.Loc.164>:
		return;
    10e8:	3a c0       	rjmp	.+116    	; 0x115e <.L56>

000010ea <.L223>:
		__ticks = (uint16_t)__tmp;
    10ea:	8e 01       	movw	r16, r28
    10ec:	07 5b       	subi	r16, 0xB7	; 183
    10ee:	1f 4f       	sbci	r17, 0xFF	; 255
    10f0:	ce 01       	movw	r24, r28
    10f2:	8b 5b       	subi	r24, 0xBB	; 187
    10f4:	9f 4f       	sbci	r25, 0xFF	; 255
    10f6:	dc 01       	movw	r26, r24
    10f8:	6d 91       	ld	r22, X+
    10fa:	7d 91       	ld	r23, X+
    10fc:	8d 91       	ld	r24, X+
    10fe:	9c 91       	ld	r25, X
    1100:	0e 94 c6 17 	call	0x2f8c	; 0x2f8c <__fixunssfsi>
    1104:	c7 56       	subi	r28, 0x67	; 103
    1106:	de 4f       	sbci	r29, 0xFE	; 254
    1108:	68 83       	st	Y, r22
    110a:	79 83       	std	Y+1, r23	; 0x01
    110c:	8a 83       	std	Y+2, r24	; 0x02
    110e:	9b 83       	std	Y+3, r25	; 0x03
    1110:	c9 59       	subi	r28, 0x99	; 153
    1112:	d1 40       	sbci	r29, 0x01	; 1
    1114:	c7 56       	subi	r28, 0x67	; 103
    1116:	de 4f       	sbci	r29, 0xFE	; 254
    1118:	88 81       	ld	r24, Y
    111a:	99 81       	ldd	r25, Y+1	; 0x01
    111c:	c9 59       	subi	r28, 0x99	; 153
    111e:	d1 40       	sbci	r29, 0x01	; 1
    1120:	f8 01       	movw	r30, r16
    1122:	91 83       	std	Z+1, r25	; 0x01
    1124:	80 83       	st	Z, r24

00001126 <.L51>:
    1126:	ce 01       	movw	r24, r28
    1128:	83 5b       	subi	r24, 0xB3	; 179
    112a:	9f 4f       	sbci	r25, 0xFF	; 255
    112c:	9e 01       	movw	r18, r28
    112e:	27 5b       	subi	r18, 0xB7	; 183
    1130:	3f 4f       	sbci	r19, 0xFF	; 255
    1132:	d9 01       	movw	r26, r18
    1134:	2d 91       	ld	r18, X+
    1136:	3c 91       	ld	r19, X
    1138:	fc 01       	movw	r30, r24
    113a:	31 83       	std	Z+1, r19	; 0x01
    113c:	20 83       	st	Z, r18

0000113e <.LBB146>:
    113e:	ce 01       	movw	r24, r28
    1140:	83 5b       	subi	r24, 0xB3	; 179
    1142:	9f 4f       	sbci	r25, 0xFF	; 255
    1144:	dc 01       	movw	r26, r24
    1146:	8d 91       	ld	r24, X+
    1148:	9c 91       	ld	r25, X
    114a:	11 97       	sbiw	r26, 0x01	; 1

0000114c <.L1^B10>:
    114c:	01 97       	sbiw	r24, 0x01	; 1
    114e:	f1 f7       	brne	.-4      	; 0x114c <.L1^B10>
    1150:	9e 01       	movw	r18, r28
    1152:	23 5b       	subi	r18, 0xB3	; 179
    1154:	3f 4f       	sbci	r19, 0xFF	; 255
    1156:	f9 01       	movw	r30, r18
    1158:	91 83       	std	Z+1, r25	; 0x01
    115a:	80 83       	st	Z, r24

0000115c <.Loc.167>:
	...

0000115e <.L56>:
            {
                DEBOUNCE;
                stand = 2;                          // door naar case 2 //
    115e:	82 e0       	ldi	r24, 0x02	; 2
    1160:	90 e0       	ldi	r25, 0x00	; 0
    1162:	9e 83       	std	Y+6, r25	; 0x06
    1164:	8d 83       	std	Y+5, r24	; 0x05

00001166 <.Loc.169>:
            }
            break;
    1166:	0c 94 8a 17 	jmp	0x2f14	; 0x2f14 <.L251>

0000116a <.L29>:
        case 2:
            if ((PINF & (1<<PF4)) != 0)             // rotary encoder naar rechts draaien voor de y-as //
    116a:	8f e2       	ldi	r24, 0x2F	; 47
    116c:	90 e0       	ldi	r25, 0x00	; 0
    116e:	dc 01       	movw	r26, r24
    1170:	8c 91       	ld	r24, X

00001172 <.Loc.171>:
    1172:	88 2f       	mov	r24, r24
    1174:	90 e0       	ldi	r25, 0x00	; 0
    1176:	80 71       	andi	r24, 0x10	; 16
    1178:	99 27       	eor	r25, r25

0000117a <.Loc.172>:
    117a:	00 97       	sbiw	r24, 0x00	; 0
    117c:	09 f4       	brne	.+2      	; 0x1180 <L0^A+0x2>

0000117e <L0^A>:
    117e:	14 c1       	rjmp	.+552    	; 0x13a8 <.L57>
    1180:	9e 01       	movw	r18, r28
    1182:	21 5b       	subi	r18, 0xB1	; 177
    1184:	3f 4f       	sbci	r19, 0xFF	; 255
    1186:	80 e0       	ldi	r24, 0x00	; 0
    1188:	90 e0       	ldi	r25, 0x00	; 0
    118a:	a8 e4       	ldi	r26, 0x48	; 72
    118c:	b2 e4       	ldi	r27, 0x42	; 66
    118e:	f9 01       	movw	r30, r18
    1190:	80 83       	st	Z, r24
    1192:	91 83       	std	Z+1, r25	; 0x01
    1194:	a2 83       	std	Z+2, r26	; 0x02
    1196:	b3 83       	std	Z+3, r27	; 0x03

00001198 <.LBB148>:
	__tmp = ((F_CPU) / 4e3) * __ms;
    1198:	8e 01       	movw	r16, r28
    119a:	0d 5a       	subi	r16, 0xAD	; 173
    119c:	1f 4f       	sbci	r17, 0xFF	; 255
    119e:	ce 01       	movw	r24, r28
    11a0:	81 5b       	subi	r24, 0xB1	; 177
    11a2:	9f 4f       	sbci	r25, 0xFF	; 255
    11a4:	20 e0       	ldi	r18, 0x00	; 0
    11a6:	30 e0       	ldi	r19, 0x00	; 0
    11a8:	4a e7       	ldi	r20, 0x7A	; 122
    11aa:	55 e4       	ldi	r21, 0x45	; 69
    11ac:	dc 01       	movw	r26, r24
    11ae:	6d 91       	ld	r22, X+
    11b0:	7d 91       	ld	r23, X+
    11b2:	8d 91       	ld	r24, X+
    11b4:	9c 91       	ld	r25, X
    11b6:	0e 94 47 18 	call	0x308e	; 0x308e <__mulsf3>
    11ba:	c3 56       	subi	r28, 0x63	; 99
    11bc:	de 4f       	sbci	r29, 0xFE	; 254
    11be:	68 83       	st	Y, r22
    11c0:	79 83       	std	Y+1, r23	; 0x01
    11c2:	8a 83       	std	Y+2, r24	; 0x02
    11c4:	9b 83       	std	Y+3, r25	; 0x03
    11c6:	cd 59       	subi	r28, 0x9D	; 157
    11c8:	d1 40       	sbci	r29, 0x01	; 1
    11ca:	c3 56       	subi	r28, 0x63	; 99
    11cc:	de 4f       	sbci	r29, 0xFE	; 254
    11ce:	88 81       	ld	r24, Y
    11d0:	99 81       	ldd	r25, Y+1	; 0x01
    11d2:	aa 81       	ldd	r26, Y+2	; 0x02
    11d4:	bb 81       	ldd	r27, Y+3	; 0x03
    11d6:	cd 59       	subi	r28, 0x9D	; 157
    11d8:	d1 40       	sbci	r29, 0x01	; 1
    11da:	f8 01       	movw	r30, r16
    11dc:	80 83       	st	Z, r24
    11de:	91 83       	std	Z+1, r25	; 0x01
    11e0:	a2 83       	std	Z+2, r26	; 0x02
    11e2:	b3 83       	std	Z+3, r27	; 0x03

000011e4 <.Loc.174>:
	if (__tmp < 1.0)
    11e4:	ce 01       	movw	r24, r28
    11e6:	8d 5a       	subi	r24, 0xAD	; 173
    11e8:	9f 4f       	sbci	r25, 0xFF	; 255
    11ea:	20 e0       	ldi	r18, 0x00	; 0
    11ec:	30 e0       	ldi	r19, 0x00	; 0
    11ee:	40 e8       	ldi	r20, 0x80	; 128
    11f0:	5f e3       	ldi	r21, 0x3F	; 63
    11f2:	dc 01       	movw	r26, r24
    11f4:	6d 91       	ld	r22, X+
    11f6:	7d 91       	ld	r23, X+
    11f8:	8d 91       	ld	r24, X+
    11fa:	9c 91       	ld	r25, X
    11fc:	0e 94 c1 17 	call	0x2f82	; 0x2f82 <__cmpsf2>
    1200:	88 23       	and	r24, r24
    1202:	4c f4       	brge	.+18     	; 0x1216 <.L224>

00001204 <.Loc.175>:
		__ticks = 1;
    1204:	ce 01       	movw	r24, r28
    1206:	89 5a       	subi	r24, 0xA9	; 169
    1208:	9f 4f       	sbci	r25, 0xFF	; 255
    120a:	21 e0       	ldi	r18, 0x01	; 1
    120c:	30 e0       	ldi	r19, 0x00	; 0
    120e:	fc 01       	movw	r30, r24
    1210:	31 83       	std	Z+1, r19	; 0x01
    1212:	20 83       	st	Z, r18
    1214:	a5 c0       	rjmp	.+330    	; 0x1360 <.L60>

00001216 <.L224>:
	else if (__tmp > 65535)
    1216:	ce 01       	movw	r24, r28
    1218:	8d 5a       	subi	r24, 0xAD	; 173
    121a:	9f 4f       	sbci	r25, 0xFF	; 255
    121c:	20 e0       	ldi	r18, 0x00	; 0
    121e:	3f ef       	ldi	r19, 0xFF	; 255
    1220:	4f e7       	ldi	r20, 0x7F	; 127
    1222:	57 e4       	ldi	r21, 0x47	; 71
    1224:	dc 01       	movw	r26, r24
    1226:	6d 91       	ld	r22, X+
    1228:	7d 91       	ld	r23, X+
    122a:	8d 91       	ld	r24, X+
    122c:	9c 91       	ld	r25, X
    122e:	0e 94 42 18 	call	0x3084	; 0x3084 <__gesf2>
    1232:	88 23       	and	r24, r24
    1234:	09 f0       	breq	.+2      	; 0x1238 <L0^A>

00001236 <L0^A>:
    1236:	0c f4       	brge	.+2      	; 0x123a <.Loc.177>

00001238 <L0^A>:
    1238:	75 c0       	rjmp	.+234    	; 0x1324 <.L225>

0000123a <.Loc.177>:
		__ticks = (uint16_t) (__ms * 10.0);
    123a:	ce 01       	movw	r24, r28
    123c:	81 5b       	subi	r24, 0xB1	; 177
    123e:	9f 4f       	sbci	r25, 0xFF	; 255
    1240:	20 e0       	ldi	r18, 0x00	; 0
    1242:	30 e0       	ldi	r19, 0x00	; 0
    1244:	40 e2       	ldi	r20, 0x20	; 32
    1246:	51 e4       	ldi	r21, 0x41	; 65
    1248:	fc 01       	movw	r30, r24
    124a:	60 81       	ld	r22, Z
    124c:	71 81       	ldd	r23, Z+1	; 0x01
    124e:	82 81       	ldd	r24, Z+2	; 0x02
    1250:	93 81       	ldd	r25, Z+3	; 0x03
    1252:	0e 94 47 18 	call	0x308e	; 0x308e <__mulsf3>
    1256:	cf 55       	subi	r28, 0x5F	; 95
    1258:	de 4f       	sbci	r29, 0xFE	; 254
    125a:	68 83       	st	Y, r22
    125c:	79 83       	std	Y+1, r23	; 0x01
    125e:	8a 83       	std	Y+2, r24	; 0x02
    1260:	9b 83       	std	Y+3, r25	; 0x03
    1262:	c1 5a       	subi	r28, 0xA1	; 161
    1264:	d1 40       	sbci	r29, 0x01	; 1
    1266:	cf 55       	subi	r28, 0x5F	; 95
    1268:	de 4f       	sbci	r29, 0xFE	; 254
    126a:	88 81       	ld	r24, Y
    126c:	99 81       	ldd	r25, Y+1	; 0x01
    126e:	aa 81       	ldd	r26, Y+2	; 0x02
    1270:	bb 81       	ldd	r27, Y+3	; 0x03
    1272:	c1 5a       	subi	r28, 0xA1	; 161
    1274:	d1 40       	sbci	r29, 0x01	; 1
    1276:	c7 5e       	subi	r28, 0xE7	; 231
    1278:	de 4f       	sbci	r29, 0xFE	; 254
    127a:	88 83       	st	Y, r24
    127c:	99 83       	std	Y+1, r25	; 0x01
    127e:	aa 83       	std	Y+2, r26	; 0x02
    1280:	bb 83       	std	Y+3, r27	; 0x03
    1282:	c9 51       	subi	r28, 0x19	; 25
    1284:	d1 40       	sbci	r29, 0x01	; 1

00001286 <.Loc.178>:
    1286:	8e 01       	movw	r16, r28
    1288:	09 5a       	subi	r16, 0xA9	; 169
    128a:	1f 4f       	sbci	r17, 0xFF	; 255
    128c:	c7 5e       	subi	r28, 0xE7	; 231
    128e:	de 4f       	sbci	r29, 0xFE	; 254
    1290:	68 81       	ld	r22, Y
    1292:	79 81       	ldd	r23, Y+1	; 0x01
    1294:	8a 81       	ldd	r24, Y+2	; 0x02
    1296:	9b 81       	ldd	r25, Y+3	; 0x03
    1298:	c9 51       	subi	r28, 0x19	; 25
    129a:	d1 40       	sbci	r29, 0x01	; 1
    129c:	0e 94 c6 17 	call	0x2f8c	; 0x2f8c <__fixunssfsi>
    12a0:	cb 55       	subi	r28, 0x5B	; 91
    12a2:	de 4f       	sbci	r29, 0xFE	; 254
    12a4:	68 83       	st	Y, r22
    12a6:	79 83       	std	Y+1, r23	; 0x01
    12a8:	8a 83       	std	Y+2, r24	; 0x02
    12aa:	9b 83       	std	Y+3, r25	; 0x03
    12ac:	c5 5a       	subi	r28, 0xA5	; 165
    12ae:	d1 40       	sbci	r29, 0x01	; 1
    12b0:	cb 55       	subi	r28, 0x5B	; 91
    12b2:	de 4f       	sbci	r29, 0xFE	; 254
    12b4:	e8 81       	ld	r30, Y
    12b6:	f9 81       	ldd	r31, Y+1	; 0x01
    12b8:	c5 5a       	subi	r28, 0xA5	; 165
    12ba:	d1 40       	sbci	r29, 0x01	; 1
    12bc:	d8 01       	movw	r26, r16
    12be:	11 96       	adiw	r26, 0x01	; 1
    12c0:	fc 93       	st	X, r31
    12c2:	ee 93       	st	-X, r30

000012c4 <.Loc.179>:
		while(__ticks)
    12c4:	26 c0       	rjmp	.+76     	; 0x1312 <.L63>

000012c6 <.L64>:
    12c6:	ce 01       	movw	r24, r28
    12c8:	87 5a       	subi	r24, 0xA7	; 167
    12ca:	9f 4f       	sbci	r25, 0xFF	; 255
    12cc:	20 e9       	ldi	r18, 0x90	; 144
    12ce:	31 e0       	ldi	r19, 0x01	; 1
    12d0:	dc 01       	movw	r26, r24
    12d2:	2d 93       	st	X+, r18
    12d4:	3c 93       	st	X, r19

000012d6 <.LBB150>:
    12d6:	ce 01       	movw	r24, r28
    12d8:	87 5a       	subi	r24, 0xA7	; 167
    12da:	9f 4f       	sbci	r25, 0xFF	; 255
    12dc:	fc 01       	movw	r30, r24
    12de:	80 81       	ld	r24, Z
    12e0:	91 81       	ldd	r25, Z+1	; 0x01

000012e2 <.L1^B11>:
    12e2:	01 97       	sbiw	r24, 0x01	; 1
    12e4:	f1 f7       	brne	.-4      	; 0x12e2 <.L1^B11>
    12e6:	9e 01       	movw	r18, r28
    12e8:	27 5a       	subi	r18, 0xA7	; 167
    12ea:	3f 4f       	sbci	r19, 0xFF	; 255
    12ec:	d9 01       	movw	r26, r18
    12ee:	8d 93       	st	X+, r24
    12f0:	9c 93       	st	X, r25

000012f2 <.Loc.181>:
	...

000012f4 <.LBE150>:
			__ticks --;
    12f4:	ce 01       	movw	r24, r28
    12f6:	89 5a       	subi	r24, 0xA9	; 169
    12f8:	9f 4f       	sbci	r25, 0xFF	; 255
    12fa:	9e 01       	movw	r18, r28
    12fc:	29 5a       	subi	r18, 0xA9	; 169
    12fe:	3f 4f       	sbci	r19, 0xFF	; 255
    1300:	f9 01       	movw	r30, r18
    1302:	20 81       	ld	r18, Z
    1304:	31 81       	ldd	r19, Z+1	; 0x01
    1306:	21 50       	subi	r18, 0x01	; 1
    1308:	31 09       	sbc	r19, r1
    130a:	dc 01       	movw	r26, r24
    130c:	11 96       	adiw	r26, 0x01	; 1
    130e:	3c 93       	st	X, r19
    1310:	2e 93       	st	-X, r18

00001312 <.L63>:
		while(__ticks)
    1312:	ce 01       	movw	r24, r28
    1314:	89 5a       	subi	r24, 0xA9	; 169
    1316:	9f 4f       	sbci	r25, 0xFF	; 255
    1318:	fc 01       	movw	r30, r24
    131a:	80 81       	ld	r24, Z
    131c:	91 81       	ldd	r25, Z+1	; 0x01
    131e:	00 97       	sbiw	r24, 0x00	; 0
    1320:	91 f6       	brne	.-92     	; 0x12c6 <.L64>

00001322 <.Loc.184>:
		return;
    1322:	39 c0       	rjmp	.+114    	; 0x1396 <.L65>

00001324 <.L225>:
		__ticks = (uint16_t)__tmp;
    1324:	8e 01       	movw	r16, r28
    1326:	09 5a       	subi	r16, 0xA9	; 169
    1328:	1f 4f       	sbci	r17, 0xFF	; 255
    132a:	ce 01       	movw	r24, r28
    132c:	8d 5a       	subi	r24, 0xAD	; 173
    132e:	9f 4f       	sbci	r25, 0xFF	; 255
    1330:	dc 01       	movw	r26, r24
    1332:	6d 91       	ld	r22, X+
    1334:	7d 91       	ld	r23, X+
    1336:	8d 91       	ld	r24, X+
    1338:	9c 91       	ld	r25, X
    133a:	0e 94 c6 17 	call	0x2f8c	; 0x2f8c <__fixunssfsi>
    133e:	c7 55       	subi	r28, 0x57	; 87
    1340:	de 4f       	sbci	r29, 0xFE	; 254
    1342:	68 83       	st	Y, r22
    1344:	79 83       	std	Y+1, r23	; 0x01
    1346:	8a 83       	std	Y+2, r24	; 0x02
    1348:	9b 83       	std	Y+3, r25	; 0x03
    134a:	c9 5a       	subi	r28, 0xA9	; 169
    134c:	d1 40       	sbci	r29, 0x01	; 1
    134e:	c7 55       	subi	r28, 0x57	; 87
    1350:	de 4f       	sbci	r29, 0xFE	; 254
    1352:	88 81       	ld	r24, Y
    1354:	99 81       	ldd	r25, Y+1	; 0x01
    1356:	c9 5a       	subi	r28, 0xA9	; 169
    1358:	d1 40       	sbci	r29, 0x01	; 1
    135a:	f8 01       	movw	r30, r16
    135c:	91 83       	std	Z+1, r25	; 0x01
    135e:	80 83       	st	Z, r24

00001360 <.L60>:
    1360:	ce 01       	movw	r24, r28
    1362:	85 5a       	subi	r24, 0xA5	; 165
    1364:	9f 4f       	sbci	r25, 0xFF	; 255
    1366:	9e 01       	movw	r18, r28
    1368:	29 5a       	subi	r18, 0xA9	; 169
    136a:	3f 4f       	sbci	r19, 0xFF	; 255
    136c:	d9 01       	movw	r26, r18
    136e:	2d 91       	ld	r18, X+
    1370:	3c 91       	ld	r19, X
    1372:	fc 01       	movw	r30, r24
    1374:	31 83       	std	Z+1, r19	; 0x01
    1376:	20 83       	st	Z, r18

00001378 <.LBB152>:
    1378:	ce 01       	movw	r24, r28
    137a:	85 5a       	subi	r24, 0xA5	; 165
    137c:	9f 4f       	sbci	r25, 0xFF	; 255
    137e:	dc 01       	movw	r26, r24
    1380:	8d 91       	ld	r24, X+
    1382:	9c 91       	ld	r25, X

00001384 <.L1^B12>:
    1384:	01 97       	sbiw	r24, 0x01	; 1
    1386:	f1 f7       	brne	.-4      	; 0x1384 <.L1^B12>
    1388:	9e 01       	movw	r18, r28
    138a:	25 5a       	subi	r18, 0xA5	; 165
    138c:	3f 4f       	sbci	r19, 0xFF	; 255
    138e:	f9 01       	movw	r30, r18
    1390:	91 83       	std	Z+1, r25	; 0x01
    1392:	80 83       	st	Z, r24

00001394 <.Loc.187>:
	...

00001396 <.L65>:
            {
                DEBOUNCE;
                tellery++;                          // rotaties naar rechts tellen //
    1396:	80 91 02 02 	lds	r24, 0x0202	; 0x800202 <tellery.4>
    139a:	90 91 03 02 	lds	r25, 0x0203	; 0x800203 <tellery.4+0x1>
    139e:	01 96       	adiw	r24, 0x01	; 1
    13a0:	90 93 03 02 	sts	0x0203, r25	; 0x800203 <tellery.4+0x1>
    13a4:	80 93 02 02 	sts	0x0202, r24	; 0x800202 <tellery.4>

000013a8 <.L57>:
                ///PORTB ^= (1<<PB7);
            }
            if ((PINF & (1<<PF5)) != 0)             // rotary encoder naar links draaien voor de y-as //
    13a8:	8f e2       	ldi	r24, 0x2F	; 47
    13aa:	90 e0       	ldi	r25, 0x00	; 0
    13ac:	dc 01       	movw	r26, r24
    13ae:	8c 91       	ld	r24, X

000013b0 <.Loc.190>:
    13b0:	88 2f       	mov	r24, r24
    13b2:	90 e0       	ldi	r25, 0x00	; 0
    13b4:	80 72       	andi	r24, 0x20	; 32
    13b6:	99 27       	eor	r25, r25

000013b8 <.Loc.191>:
    13b8:	00 97       	sbiw	r24, 0x00	; 0
    13ba:	09 f4       	brne	.+2      	; 0x13be <L0^A+0x2>

000013bc <L0^A>:
    13bc:	14 c1       	rjmp	.+552    	; 0x15e6 <.L66>
    13be:	9e 01       	movw	r18, r28
    13c0:	23 5a       	subi	r18, 0xA3	; 163
    13c2:	3f 4f       	sbci	r19, 0xFF	; 255
    13c4:	80 e0       	ldi	r24, 0x00	; 0
    13c6:	90 e0       	ldi	r25, 0x00	; 0
    13c8:	a8 e4       	ldi	r26, 0x48	; 72
    13ca:	b2 e4       	ldi	r27, 0x42	; 66
    13cc:	f9 01       	movw	r30, r18
    13ce:	80 83       	st	Z, r24
    13d0:	91 83       	std	Z+1, r25	; 0x01
    13d2:	a2 83       	std	Z+2, r26	; 0x02
    13d4:	b3 83       	std	Z+3, r27	; 0x03

000013d6 <.LBB154>:
	__tmp = ((F_CPU) / 4e3) * __ms;
    13d6:	8e 01       	movw	r16, r28
    13d8:	0f 59       	subi	r16, 0x9F	; 159
    13da:	1f 4f       	sbci	r17, 0xFF	; 255
    13dc:	ce 01       	movw	r24, r28
    13de:	83 5a       	subi	r24, 0xA3	; 163
    13e0:	9f 4f       	sbci	r25, 0xFF	; 255
    13e2:	20 e0       	ldi	r18, 0x00	; 0
    13e4:	30 e0       	ldi	r19, 0x00	; 0
    13e6:	4a e7       	ldi	r20, 0x7A	; 122
    13e8:	55 e4       	ldi	r21, 0x45	; 69
    13ea:	dc 01       	movw	r26, r24
    13ec:	6d 91       	ld	r22, X+
    13ee:	7d 91       	ld	r23, X+
    13f0:	8d 91       	ld	r24, X+
    13f2:	9c 91       	ld	r25, X
    13f4:	0e 94 47 18 	call	0x308e	; 0x308e <__mulsf3>
    13f8:	c3 55       	subi	r28, 0x53	; 83
    13fa:	de 4f       	sbci	r29, 0xFE	; 254
    13fc:	68 83       	st	Y, r22
    13fe:	79 83       	std	Y+1, r23	; 0x01
    1400:	8a 83       	std	Y+2, r24	; 0x02
    1402:	9b 83       	std	Y+3, r25	; 0x03
    1404:	cd 5a       	subi	r28, 0xAD	; 173
    1406:	d1 40       	sbci	r29, 0x01	; 1
    1408:	c3 55       	subi	r28, 0x53	; 83
    140a:	de 4f       	sbci	r29, 0xFE	; 254
    140c:	88 81       	ld	r24, Y
    140e:	99 81       	ldd	r25, Y+1	; 0x01
    1410:	aa 81       	ldd	r26, Y+2	; 0x02
    1412:	bb 81       	ldd	r27, Y+3	; 0x03
    1414:	cd 5a       	subi	r28, 0xAD	; 173
    1416:	d1 40       	sbci	r29, 0x01	; 1
    1418:	f8 01       	movw	r30, r16
    141a:	80 83       	st	Z, r24
    141c:	91 83       	std	Z+1, r25	; 0x01
    141e:	a2 83       	std	Z+2, r26	; 0x02
    1420:	b3 83       	std	Z+3, r27	; 0x03

00001422 <.Loc.193>:
	if (__tmp < 1.0)
    1422:	ce 01       	movw	r24, r28
    1424:	8f 59       	subi	r24, 0x9F	; 159
    1426:	9f 4f       	sbci	r25, 0xFF	; 255
    1428:	20 e0       	ldi	r18, 0x00	; 0
    142a:	30 e0       	ldi	r19, 0x00	; 0
    142c:	40 e8       	ldi	r20, 0x80	; 128
    142e:	5f e3       	ldi	r21, 0x3F	; 63
    1430:	dc 01       	movw	r26, r24
    1432:	6d 91       	ld	r22, X+
    1434:	7d 91       	ld	r23, X+
    1436:	8d 91       	ld	r24, X+
    1438:	9c 91       	ld	r25, X
    143a:	0e 94 c1 17 	call	0x2f82	; 0x2f82 <__cmpsf2>
    143e:	88 23       	and	r24, r24
    1440:	4c f4       	brge	.+18     	; 0x1454 <.L226>

00001442 <.Loc.194>:
		__ticks = 1;
    1442:	ce 01       	movw	r24, r28
    1444:	8b 59       	subi	r24, 0x9B	; 155
    1446:	9f 4f       	sbci	r25, 0xFF	; 255
    1448:	21 e0       	ldi	r18, 0x01	; 1
    144a:	30 e0       	ldi	r19, 0x00	; 0
    144c:	fc 01       	movw	r30, r24
    144e:	31 83       	std	Z+1, r19	; 0x01
    1450:	20 83       	st	Z, r18
    1452:	a5 c0       	rjmp	.+330    	; 0x159e <.L69>

00001454 <.L226>:
	else if (__tmp > 65535)
    1454:	ce 01       	movw	r24, r28
    1456:	8f 59       	subi	r24, 0x9F	; 159
    1458:	9f 4f       	sbci	r25, 0xFF	; 255
    145a:	20 e0       	ldi	r18, 0x00	; 0
    145c:	3f ef       	ldi	r19, 0xFF	; 255
    145e:	4f e7       	ldi	r20, 0x7F	; 127
    1460:	57 e4       	ldi	r21, 0x47	; 71
    1462:	dc 01       	movw	r26, r24
    1464:	6d 91       	ld	r22, X+
    1466:	7d 91       	ld	r23, X+
    1468:	8d 91       	ld	r24, X+
    146a:	9c 91       	ld	r25, X
    146c:	0e 94 42 18 	call	0x3084	; 0x3084 <__gesf2>
    1470:	88 23       	and	r24, r24
    1472:	09 f0       	breq	.+2      	; 0x1476 <L0^A>

00001474 <L0^A>:
    1474:	0c f4       	brge	.+2      	; 0x1478 <.Loc.196>

00001476 <L0^A>:
    1476:	75 c0       	rjmp	.+234    	; 0x1562 <.L227>

00001478 <.Loc.196>:
		__ticks = (uint16_t) (__ms * 10.0);
    1478:	ce 01       	movw	r24, r28
    147a:	83 5a       	subi	r24, 0xA3	; 163
    147c:	9f 4f       	sbci	r25, 0xFF	; 255
    147e:	20 e0       	ldi	r18, 0x00	; 0
    1480:	30 e0       	ldi	r19, 0x00	; 0
    1482:	40 e2       	ldi	r20, 0x20	; 32
    1484:	51 e4       	ldi	r21, 0x41	; 65
    1486:	fc 01       	movw	r30, r24
    1488:	60 81       	ld	r22, Z
    148a:	71 81       	ldd	r23, Z+1	; 0x01
    148c:	82 81       	ldd	r24, Z+2	; 0x02
    148e:	93 81       	ldd	r25, Z+3	; 0x03
    1490:	0e 94 47 18 	call	0x308e	; 0x308e <__mulsf3>
    1494:	cf 54       	subi	r28, 0x4F	; 79
    1496:	de 4f       	sbci	r29, 0xFE	; 254
    1498:	68 83       	st	Y, r22
    149a:	79 83       	std	Y+1, r23	; 0x01
    149c:	8a 83       	std	Y+2, r24	; 0x02
    149e:	9b 83       	std	Y+3, r25	; 0x03
    14a0:	c1 5b       	subi	r28, 0xB1	; 177
    14a2:	d1 40       	sbci	r29, 0x01	; 1
    14a4:	cf 54       	subi	r28, 0x4F	; 79
    14a6:	de 4f       	sbci	r29, 0xFE	; 254
    14a8:	88 81       	ld	r24, Y
    14aa:	99 81       	ldd	r25, Y+1	; 0x01
    14ac:	aa 81       	ldd	r26, Y+2	; 0x02
    14ae:	bb 81       	ldd	r27, Y+3	; 0x03
    14b0:	c1 5b       	subi	r28, 0xB1	; 177
    14b2:	d1 40       	sbci	r29, 0x01	; 1
    14b4:	c3 5e       	subi	r28, 0xE3	; 227
    14b6:	de 4f       	sbci	r29, 0xFE	; 254
    14b8:	88 83       	st	Y, r24
    14ba:	99 83       	std	Y+1, r25	; 0x01
    14bc:	aa 83       	std	Y+2, r26	; 0x02
    14be:	bb 83       	std	Y+3, r27	; 0x03
    14c0:	cd 51       	subi	r28, 0x1D	; 29
    14c2:	d1 40       	sbci	r29, 0x01	; 1

000014c4 <.Loc.197>:
    14c4:	8e 01       	movw	r16, r28
    14c6:	0b 59       	subi	r16, 0x9B	; 155
    14c8:	1f 4f       	sbci	r17, 0xFF	; 255
    14ca:	c3 5e       	subi	r28, 0xE3	; 227
    14cc:	de 4f       	sbci	r29, 0xFE	; 254
    14ce:	68 81       	ld	r22, Y
    14d0:	79 81       	ldd	r23, Y+1	; 0x01
    14d2:	8a 81       	ldd	r24, Y+2	; 0x02
    14d4:	9b 81       	ldd	r25, Y+3	; 0x03
    14d6:	cd 51       	subi	r28, 0x1D	; 29
    14d8:	d1 40       	sbci	r29, 0x01	; 1
    14da:	0e 94 c6 17 	call	0x2f8c	; 0x2f8c <__fixunssfsi>
    14de:	cb 54       	subi	r28, 0x4B	; 75
    14e0:	de 4f       	sbci	r29, 0xFE	; 254
    14e2:	68 83       	st	Y, r22
    14e4:	79 83       	std	Y+1, r23	; 0x01
    14e6:	8a 83       	std	Y+2, r24	; 0x02
    14e8:	9b 83       	std	Y+3, r25	; 0x03
    14ea:	c5 5b       	subi	r28, 0xB5	; 181
    14ec:	d1 40       	sbci	r29, 0x01	; 1
    14ee:	cb 54       	subi	r28, 0x4B	; 75
    14f0:	de 4f       	sbci	r29, 0xFE	; 254
    14f2:	e8 81       	ld	r30, Y
    14f4:	f9 81       	ldd	r31, Y+1	; 0x01
    14f6:	c5 5b       	subi	r28, 0xB5	; 181
    14f8:	d1 40       	sbci	r29, 0x01	; 1
    14fa:	d8 01       	movw	r26, r16
    14fc:	11 96       	adiw	r26, 0x01	; 1
    14fe:	fc 93       	st	X, r31
    1500:	ee 93       	st	-X, r30

00001502 <.Loc.198>:
		while(__ticks)
    1502:	26 c0       	rjmp	.+76     	; 0x1550 <.L72>

00001504 <.L73>:
    1504:	ce 01       	movw	r24, r28
    1506:	89 59       	subi	r24, 0x99	; 153
    1508:	9f 4f       	sbci	r25, 0xFF	; 255
    150a:	20 e9       	ldi	r18, 0x90	; 144
    150c:	31 e0       	ldi	r19, 0x01	; 1
    150e:	dc 01       	movw	r26, r24
    1510:	2d 93       	st	X+, r18
    1512:	3c 93       	st	X, r19

00001514 <.LBB156>:
    1514:	ce 01       	movw	r24, r28
    1516:	89 59       	subi	r24, 0x99	; 153
    1518:	9f 4f       	sbci	r25, 0xFF	; 255
    151a:	fc 01       	movw	r30, r24
    151c:	80 81       	ld	r24, Z
    151e:	91 81       	ldd	r25, Z+1	; 0x01

00001520 <.L1^B13>:
    1520:	01 97       	sbiw	r24, 0x01	; 1
    1522:	f1 f7       	brne	.-4      	; 0x1520 <.L1^B13>
    1524:	9e 01       	movw	r18, r28
    1526:	29 59       	subi	r18, 0x99	; 153
    1528:	3f 4f       	sbci	r19, 0xFF	; 255
    152a:	d9 01       	movw	r26, r18
    152c:	8d 93       	st	X+, r24
    152e:	9c 93       	st	X, r25

00001530 <.Loc.200>:
	...

00001532 <.LBE156>:
			__ticks --;
    1532:	ce 01       	movw	r24, r28
    1534:	8b 59       	subi	r24, 0x9B	; 155
    1536:	9f 4f       	sbci	r25, 0xFF	; 255
    1538:	9e 01       	movw	r18, r28
    153a:	2b 59       	subi	r18, 0x9B	; 155
    153c:	3f 4f       	sbci	r19, 0xFF	; 255
    153e:	f9 01       	movw	r30, r18
    1540:	20 81       	ld	r18, Z
    1542:	31 81       	ldd	r19, Z+1	; 0x01
    1544:	21 50       	subi	r18, 0x01	; 1
    1546:	31 09       	sbc	r19, r1
    1548:	dc 01       	movw	r26, r24
    154a:	11 96       	adiw	r26, 0x01	; 1
    154c:	3c 93       	st	X, r19
    154e:	2e 93       	st	-X, r18

00001550 <.L72>:
		while(__ticks)
    1550:	ce 01       	movw	r24, r28
    1552:	8b 59       	subi	r24, 0x9B	; 155
    1554:	9f 4f       	sbci	r25, 0xFF	; 255
    1556:	fc 01       	movw	r30, r24
    1558:	80 81       	ld	r24, Z
    155a:	91 81       	ldd	r25, Z+1	; 0x01
    155c:	00 97       	sbiw	r24, 0x00	; 0
    155e:	91 f6       	brne	.-92     	; 0x1504 <.L73>

00001560 <.Loc.203>:
		return;
    1560:	39 c0       	rjmp	.+114    	; 0x15d4 <.L74>

00001562 <.L227>:
		__ticks = (uint16_t)__tmp;
    1562:	8e 01       	movw	r16, r28
    1564:	0b 59       	subi	r16, 0x9B	; 155
    1566:	1f 4f       	sbci	r17, 0xFF	; 255
    1568:	ce 01       	movw	r24, r28
    156a:	8f 59       	subi	r24, 0x9F	; 159
    156c:	9f 4f       	sbci	r25, 0xFF	; 255
    156e:	dc 01       	movw	r26, r24
    1570:	6d 91       	ld	r22, X+
    1572:	7d 91       	ld	r23, X+
    1574:	8d 91       	ld	r24, X+
    1576:	9c 91       	ld	r25, X
    1578:	0e 94 c6 17 	call	0x2f8c	; 0x2f8c <__fixunssfsi>
    157c:	c7 54       	subi	r28, 0x47	; 71
    157e:	de 4f       	sbci	r29, 0xFE	; 254
    1580:	68 83       	st	Y, r22
    1582:	79 83       	std	Y+1, r23	; 0x01
    1584:	8a 83       	std	Y+2, r24	; 0x02
    1586:	9b 83       	std	Y+3, r25	; 0x03
    1588:	c9 5b       	subi	r28, 0xB9	; 185
    158a:	d1 40       	sbci	r29, 0x01	; 1
    158c:	c7 54       	subi	r28, 0x47	; 71
    158e:	de 4f       	sbci	r29, 0xFE	; 254
    1590:	88 81       	ld	r24, Y
    1592:	99 81       	ldd	r25, Y+1	; 0x01
    1594:	c9 5b       	subi	r28, 0xB9	; 185
    1596:	d1 40       	sbci	r29, 0x01	; 1
    1598:	f8 01       	movw	r30, r16
    159a:	91 83       	std	Z+1, r25	; 0x01
    159c:	80 83       	st	Z, r24

0000159e <.L69>:
    159e:	ce 01       	movw	r24, r28
    15a0:	87 59       	subi	r24, 0x97	; 151
    15a2:	9f 4f       	sbci	r25, 0xFF	; 255
    15a4:	9e 01       	movw	r18, r28
    15a6:	2b 59       	subi	r18, 0x9B	; 155
    15a8:	3f 4f       	sbci	r19, 0xFF	; 255
    15aa:	d9 01       	movw	r26, r18
    15ac:	2d 91       	ld	r18, X+
    15ae:	3c 91       	ld	r19, X
    15b0:	fc 01       	movw	r30, r24
    15b2:	31 83       	std	Z+1, r19	; 0x01
    15b4:	20 83       	st	Z, r18

000015b6 <.LBB158>:
    15b6:	ce 01       	movw	r24, r28
    15b8:	87 59       	subi	r24, 0x97	; 151
    15ba:	9f 4f       	sbci	r25, 0xFF	; 255
    15bc:	dc 01       	movw	r26, r24
    15be:	8d 91       	ld	r24, X+
    15c0:	9c 91       	ld	r25, X

000015c2 <.L1^B14>:
    15c2:	01 97       	sbiw	r24, 0x01	; 1
    15c4:	f1 f7       	brne	.-4      	; 0x15c2 <.L1^B14>
    15c6:	9e 01       	movw	r18, r28
    15c8:	27 59       	subi	r18, 0x97	; 151
    15ca:	3f 4f       	sbci	r19, 0xFF	; 255
    15cc:	f9 01       	movw	r30, r18
    15ce:	91 83       	std	Z+1, r25	; 0x01
    15d0:	80 83       	st	Z, r24

000015d2 <.Loc.206>:
	...

000015d4 <.L74>:
            {
                DEBOUNCE;
                tellery--;                          // rotaties naar links tellen //
    15d4:	80 91 02 02 	lds	r24, 0x0202	; 0x800202 <tellery.4>
    15d8:	90 91 03 02 	lds	r25, 0x0203	; 0x800203 <tellery.4+0x1>
    15dc:	01 97       	sbiw	r24, 0x01	; 1
    15de:	90 93 03 02 	sts	0x0203, r25	; 0x800203 <tellery.4+0x1>
    15e2:	80 93 02 02 	sts	0x0202, r24	; 0x800202 <tellery.4>

000015e6 <.L66>:
                ///PORTB ^= (1<<PB6);
            }
            if (!(PINF & (1<<PF1)) == 0)            // knop voor activeren van beide assen //
    15e6:	8f e2       	ldi	r24, 0x2F	; 47
    15e8:	90 e0       	ldi	r25, 0x00	; 0
    15ea:	dc 01       	movw	r26, r24
    15ec:	8c 91       	ld	r24, X

000015ee <.Loc.209>:
    15ee:	88 2f       	mov	r24, r24
    15f0:	90 e0       	ldi	r25, 0x00	; 0
    15f2:	82 70       	andi	r24, 0x02	; 2
    15f4:	99 27       	eor	r25, r25

000015f6 <.Loc.210>:
    15f6:	00 97       	sbiw	r24, 0x00	; 0
    15f8:	11 f4       	brne	.+4      	; 0x15fe <L0^A+0x4>

000015fa <L0^A>:
    15fa:	0c 94 8d 17 	jmp	0x2f1a	; 0x2f1a <.L252>
    15fe:	9e 01       	movw	r18, r28
    1600:	25 59       	subi	r18, 0x95	; 149
    1602:	3f 4f       	sbci	r19, 0xFF	; 255
    1604:	80 e0       	ldi	r24, 0x00	; 0
    1606:	90 e0       	ldi	r25, 0x00	; 0
    1608:	a8 e4       	ldi	r26, 0x48	; 72
    160a:	b2 e4       	ldi	r27, 0x42	; 66
    160c:	f9 01       	movw	r30, r18
    160e:	80 83       	st	Z, r24
    1610:	91 83       	std	Z+1, r25	; 0x01
    1612:	a2 83       	std	Z+2, r26	; 0x02
    1614:	b3 83       	std	Z+3, r27	; 0x03

00001616 <.LBB160>:
	__tmp = ((F_CPU) / 4e3) * __ms;
    1616:	8e 01       	movw	r16, r28
    1618:	01 59       	subi	r16, 0x91	; 145
    161a:	1f 4f       	sbci	r17, 0xFF	; 255
    161c:	ce 01       	movw	r24, r28
    161e:	85 59       	subi	r24, 0x95	; 149
    1620:	9f 4f       	sbci	r25, 0xFF	; 255
    1622:	20 e0       	ldi	r18, 0x00	; 0
    1624:	30 e0       	ldi	r19, 0x00	; 0
    1626:	4a e7       	ldi	r20, 0x7A	; 122
    1628:	55 e4       	ldi	r21, 0x45	; 69
    162a:	dc 01       	movw	r26, r24
    162c:	6d 91       	ld	r22, X+
    162e:	7d 91       	ld	r23, X+
    1630:	8d 91       	ld	r24, X+
    1632:	9c 91       	ld	r25, X
    1634:	0e 94 47 18 	call	0x308e	; 0x308e <__mulsf3>
    1638:	c3 54       	subi	r28, 0x43	; 67
    163a:	de 4f       	sbci	r29, 0xFE	; 254
    163c:	68 83       	st	Y, r22
    163e:	79 83       	std	Y+1, r23	; 0x01
    1640:	8a 83       	std	Y+2, r24	; 0x02
    1642:	9b 83       	std	Y+3, r25	; 0x03
    1644:	cd 5b       	subi	r28, 0xBD	; 189
    1646:	d1 40       	sbci	r29, 0x01	; 1
    1648:	c3 54       	subi	r28, 0x43	; 67
    164a:	de 4f       	sbci	r29, 0xFE	; 254
    164c:	88 81       	ld	r24, Y
    164e:	99 81       	ldd	r25, Y+1	; 0x01
    1650:	aa 81       	ldd	r26, Y+2	; 0x02
    1652:	bb 81       	ldd	r27, Y+3	; 0x03
    1654:	cd 5b       	subi	r28, 0xBD	; 189
    1656:	d1 40       	sbci	r29, 0x01	; 1
    1658:	f8 01       	movw	r30, r16
    165a:	80 83       	st	Z, r24
    165c:	91 83       	std	Z+1, r25	; 0x01
    165e:	a2 83       	std	Z+2, r26	; 0x02
    1660:	b3 83       	std	Z+3, r27	; 0x03

00001662 <.Loc.212>:
	if (__tmp < 1.0)
    1662:	ce 01       	movw	r24, r28
    1664:	81 59       	subi	r24, 0x91	; 145
    1666:	9f 4f       	sbci	r25, 0xFF	; 255
    1668:	20 e0       	ldi	r18, 0x00	; 0
    166a:	30 e0       	ldi	r19, 0x00	; 0
    166c:	40 e8       	ldi	r20, 0x80	; 128
    166e:	5f e3       	ldi	r21, 0x3F	; 63
    1670:	dc 01       	movw	r26, r24
    1672:	6d 91       	ld	r22, X+
    1674:	7d 91       	ld	r23, X+
    1676:	8d 91       	ld	r24, X+
    1678:	9c 91       	ld	r25, X
    167a:	0e 94 c1 17 	call	0x2f82	; 0x2f82 <__cmpsf2>
    167e:	88 23       	and	r24, r24
    1680:	4c f4       	brge	.+18     	; 0x1694 <.L228>

00001682 <.Loc.213>:
		__ticks = 1;
    1682:	ce 01       	movw	r24, r28
    1684:	8d 58       	subi	r24, 0x8D	; 141
    1686:	9f 4f       	sbci	r25, 0xFF	; 255
    1688:	21 e0       	ldi	r18, 0x01	; 1
    168a:	30 e0       	ldi	r19, 0x00	; 0
    168c:	fc 01       	movw	r30, r24
    168e:	31 83       	std	Z+1, r19	; 0x01
    1690:	20 83       	st	Z, r18
    1692:	a5 c0       	rjmp	.+330    	; 0x17de <.L78>

00001694 <.L228>:
	else if (__tmp > 65535)
    1694:	ce 01       	movw	r24, r28
    1696:	81 59       	subi	r24, 0x91	; 145
    1698:	9f 4f       	sbci	r25, 0xFF	; 255
    169a:	20 e0       	ldi	r18, 0x00	; 0
    169c:	3f ef       	ldi	r19, 0xFF	; 255
    169e:	4f e7       	ldi	r20, 0x7F	; 127
    16a0:	57 e4       	ldi	r21, 0x47	; 71
    16a2:	dc 01       	movw	r26, r24
    16a4:	6d 91       	ld	r22, X+
    16a6:	7d 91       	ld	r23, X+
    16a8:	8d 91       	ld	r24, X+
    16aa:	9c 91       	ld	r25, X
    16ac:	0e 94 42 18 	call	0x3084	; 0x3084 <__gesf2>
    16b0:	88 23       	and	r24, r24
    16b2:	09 f0       	breq	.+2      	; 0x16b6 <L0^A>

000016b4 <L0^A>:
    16b4:	0c f4       	brge	.+2      	; 0x16b8 <.Loc.215>

000016b6 <L0^A>:
    16b6:	75 c0       	rjmp	.+234    	; 0x17a2 <.L229>

000016b8 <.Loc.215>:
		__ticks = (uint16_t) (__ms * 10.0);
    16b8:	ce 01       	movw	r24, r28
    16ba:	85 59       	subi	r24, 0x95	; 149
    16bc:	9f 4f       	sbci	r25, 0xFF	; 255
    16be:	20 e0       	ldi	r18, 0x00	; 0
    16c0:	30 e0       	ldi	r19, 0x00	; 0
    16c2:	40 e2       	ldi	r20, 0x20	; 32
    16c4:	51 e4       	ldi	r21, 0x41	; 65
    16c6:	fc 01       	movw	r30, r24
    16c8:	60 81       	ld	r22, Z
    16ca:	71 81       	ldd	r23, Z+1	; 0x01
    16cc:	82 81       	ldd	r24, Z+2	; 0x02
    16ce:	93 81       	ldd	r25, Z+3	; 0x03
    16d0:	0e 94 47 18 	call	0x308e	; 0x308e <__mulsf3>
    16d4:	cf 53       	subi	r28, 0x3F	; 63
    16d6:	de 4f       	sbci	r29, 0xFE	; 254
    16d8:	68 83       	st	Y, r22
    16da:	79 83       	std	Y+1, r23	; 0x01
    16dc:	8a 83       	std	Y+2, r24	; 0x02
    16de:	9b 83       	std	Y+3, r25	; 0x03
    16e0:	c1 5c       	subi	r28, 0xC1	; 193
    16e2:	d1 40       	sbci	r29, 0x01	; 1
    16e4:	cf 53       	subi	r28, 0x3F	; 63
    16e6:	de 4f       	sbci	r29, 0xFE	; 254
    16e8:	88 81       	ld	r24, Y
    16ea:	99 81       	ldd	r25, Y+1	; 0x01
    16ec:	aa 81       	ldd	r26, Y+2	; 0x02
    16ee:	bb 81       	ldd	r27, Y+3	; 0x03
    16f0:	c1 5c       	subi	r28, 0xC1	; 193
    16f2:	d1 40       	sbci	r29, 0x01	; 1
    16f4:	cf 5d       	subi	r28, 0xDF	; 223
    16f6:	de 4f       	sbci	r29, 0xFE	; 254
    16f8:	88 83       	st	Y, r24
    16fa:	99 83       	std	Y+1, r25	; 0x01
    16fc:	aa 83       	std	Y+2, r26	; 0x02
    16fe:	bb 83       	std	Y+3, r27	; 0x03
    1700:	c1 52       	subi	r28, 0x21	; 33
    1702:	d1 40       	sbci	r29, 0x01	; 1

00001704 <.Loc.216>:
    1704:	8e 01       	movw	r16, r28
    1706:	0d 58       	subi	r16, 0x8D	; 141
    1708:	1f 4f       	sbci	r17, 0xFF	; 255
    170a:	cf 5d       	subi	r28, 0xDF	; 223
    170c:	de 4f       	sbci	r29, 0xFE	; 254
    170e:	68 81       	ld	r22, Y
    1710:	79 81       	ldd	r23, Y+1	; 0x01
    1712:	8a 81       	ldd	r24, Y+2	; 0x02
    1714:	9b 81       	ldd	r25, Y+3	; 0x03
    1716:	c1 52       	subi	r28, 0x21	; 33
    1718:	d1 40       	sbci	r29, 0x01	; 1
    171a:	0e 94 c6 17 	call	0x2f8c	; 0x2f8c <__fixunssfsi>
    171e:	cb 53       	subi	r28, 0x3B	; 59
    1720:	de 4f       	sbci	r29, 0xFE	; 254
    1722:	68 83       	st	Y, r22
    1724:	79 83       	std	Y+1, r23	; 0x01
    1726:	8a 83       	std	Y+2, r24	; 0x02
    1728:	9b 83       	std	Y+3, r25	; 0x03
    172a:	c5 5c       	subi	r28, 0xC5	; 197
    172c:	d1 40       	sbci	r29, 0x01	; 1
    172e:	cb 53       	subi	r28, 0x3B	; 59
    1730:	de 4f       	sbci	r29, 0xFE	; 254
    1732:	e8 81       	ld	r30, Y
    1734:	f9 81       	ldd	r31, Y+1	; 0x01
    1736:	c5 5c       	subi	r28, 0xC5	; 197
    1738:	d1 40       	sbci	r29, 0x01	; 1
    173a:	d8 01       	movw	r26, r16
    173c:	11 96       	adiw	r26, 0x01	; 1
    173e:	fc 93       	st	X, r31
    1740:	ee 93       	st	-X, r30

00001742 <.Loc.217>:
		while(__ticks)
    1742:	26 c0       	rjmp	.+76     	; 0x1790 <.L81>

00001744 <.L82>:
    1744:	ce 01       	movw	r24, r28
    1746:	8b 58       	subi	r24, 0x8B	; 139
    1748:	9f 4f       	sbci	r25, 0xFF	; 255
    174a:	20 e9       	ldi	r18, 0x90	; 144
    174c:	31 e0       	ldi	r19, 0x01	; 1
    174e:	dc 01       	movw	r26, r24
    1750:	2d 93       	st	X+, r18
    1752:	3c 93       	st	X, r19

00001754 <.LBB162>:
    1754:	ce 01       	movw	r24, r28
    1756:	8b 58       	subi	r24, 0x8B	; 139
    1758:	9f 4f       	sbci	r25, 0xFF	; 255
    175a:	fc 01       	movw	r30, r24
    175c:	80 81       	ld	r24, Z
    175e:	91 81       	ldd	r25, Z+1	; 0x01

00001760 <.L1^B15>:
    1760:	01 97       	sbiw	r24, 0x01	; 1
    1762:	f1 f7       	brne	.-4      	; 0x1760 <.L1^B15>
    1764:	9e 01       	movw	r18, r28
    1766:	2b 58       	subi	r18, 0x8B	; 139
    1768:	3f 4f       	sbci	r19, 0xFF	; 255
    176a:	d9 01       	movw	r26, r18
    176c:	8d 93       	st	X+, r24
    176e:	9c 93       	st	X, r25

00001770 <.Loc.219>:
	...

00001772 <.LBE162>:
			__ticks --;
    1772:	ce 01       	movw	r24, r28
    1774:	8d 58       	subi	r24, 0x8D	; 141
    1776:	9f 4f       	sbci	r25, 0xFF	; 255
    1778:	9e 01       	movw	r18, r28
    177a:	2d 58       	subi	r18, 0x8D	; 141
    177c:	3f 4f       	sbci	r19, 0xFF	; 255
    177e:	f9 01       	movw	r30, r18
    1780:	20 81       	ld	r18, Z
    1782:	31 81       	ldd	r19, Z+1	; 0x01
    1784:	21 50       	subi	r18, 0x01	; 1
    1786:	31 09       	sbc	r19, r1
    1788:	dc 01       	movw	r26, r24
    178a:	11 96       	adiw	r26, 0x01	; 1
    178c:	3c 93       	st	X, r19
    178e:	2e 93       	st	-X, r18

00001790 <.L81>:
		while(__ticks)
    1790:	ce 01       	movw	r24, r28
    1792:	8d 58       	subi	r24, 0x8D	; 141
    1794:	9f 4f       	sbci	r25, 0xFF	; 255
    1796:	fc 01       	movw	r30, r24
    1798:	80 81       	ld	r24, Z
    179a:	91 81       	ldd	r25, Z+1	; 0x01
    179c:	00 97       	sbiw	r24, 0x00	; 0
    179e:	91 f6       	brne	.-92     	; 0x1744 <.L82>

000017a0 <.Loc.222>:
		return;
    17a0:	39 c0       	rjmp	.+114    	; 0x1814 <.L83>

000017a2 <.L229>:
		__ticks = (uint16_t)__tmp;
    17a2:	8e 01       	movw	r16, r28
    17a4:	0d 58       	subi	r16, 0x8D	; 141
    17a6:	1f 4f       	sbci	r17, 0xFF	; 255
    17a8:	ce 01       	movw	r24, r28
    17aa:	81 59       	subi	r24, 0x91	; 145
    17ac:	9f 4f       	sbci	r25, 0xFF	; 255
    17ae:	dc 01       	movw	r26, r24
    17b0:	6d 91       	ld	r22, X+
    17b2:	7d 91       	ld	r23, X+
    17b4:	8d 91       	ld	r24, X+
    17b6:	9c 91       	ld	r25, X
    17b8:	0e 94 c6 17 	call	0x2f8c	; 0x2f8c <__fixunssfsi>
    17bc:	c7 53       	subi	r28, 0x37	; 55
    17be:	de 4f       	sbci	r29, 0xFE	; 254
    17c0:	68 83       	st	Y, r22
    17c2:	79 83       	std	Y+1, r23	; 0x01
    17c4:	8a 83       	std	Y+2, r24	; 0x02
    17c6:	9b 83       	std	Y+3, r25	; 0x03
    17c8:	c9 5c       	subi	r28, 0xC9	; 201
    17ca:	d1 40       	sbci	r29, 0x01	; 1
    17cc:	c7 53       	subi	r28, 0x37	; 55
    17ce:	de 4f       	sbci	r29, 0xFE	; 254
    17d0:	88 81       	ld	r24, Y
    17d2:	99 81       	ldd	r25, Y+1	; 0x01
    17d4:	c9 5c       	subi	r28, 0xC9	; 201
    17d6:	d1 40       	sbci	r29, 0x01	; 1
    17d8:	f8 01       	movw	r30, r16
    17da:	91 83       	std	Z+1, r25	; 0x01
    17dc:	80 83       	st	Z, r24

000017de <.L78>:
    17de:	ce 01       	movw	r24, r28
    17e0:	89 58       	subi	r24, 0x89	; 137
    17e2:	9f 4f       	sbci	r25, 0xFF	; 255
    17e4:	9e 01       	movw	r18, r28
    17e6:	2d 58       	subi	r18, 0x8D	; 141
    17e8:	3f 4f       	sbci	r19, 0xFF	; 255
    17ea:	d9 01       	movw	r26, r18
    17ec:	2d 91       	ld	r18, X+
    17ee:	3c 91       	ld	r19, X
    17f0:	fc 01       	movw	r30, r24
    17f2:	31 83       	std	Z+1, r19	; 0x01
    17f4:	20 83       	st	Z, r18

000017f6 <.LBB164>:
    17f6:	ce 01       	movw	r24, r28
    17f8:	89 58       	subi	r24, 0x89	; 137
    17fa:	9f 4f       	sbci	r25, 0xFF	; 255
    17fc:	dc 01       	movw	r26, r24
    17fe:	8d 91       	ld	r24, X+
    1800:	9c 91       	ld	r25, X

00001802 <.L1^B16>:
    1802:	01 97       	sbiw	r24, 0x01	; 1
    1804:	f1 f7       	brne	.-4      	; 0x1802 <.L1^B16>
    1806:	9e 01       	movw	r18, r28
    1808:	29 58       	subi	r18, 0x89	; 137
    180a:	3f 4f       	sbci	r19, 0xFF	; 255
    180c:	f9 01       	movw	r30, r18
    180e:	91 83       	std	Z+1, r25	; 0x01
    1810:	80 83       	st	Z, r24

00001812 <.Loc.225>:
	...

00001814 <.L83>:
            {
                DEBOUNCE;
                h_bridge_set_percentage(60);        // start h brug 1 //
    1814:	8c e3       	ldi	r24, 0x3C	; 60
    1816:	0e 94 96 01 	call	0x32c	; 0x32c <h_bridge_set_percentage>

0000181a <.Loc.227>:
                h_bridge_set_percentage2(60);       // start h brug 2 //
    181a:	8c e3       	ldi	r24, 0x3C	; 60
    181c:	90 e0       	ldi	r25, 0x00	; 0
    181e:	0e 94 ee 02 	call	0x5dc	; 0x5dc <h_bridge_set_percentage2>

00001822 <.Loc.228>:
                stand = 3;                          // door naar case 3 //
    1822:	83 e0       	ldi	r24, 0x03	; 3
    1824:	90 e0       	ldi	r25, 0x00	; 0
    1826:	9e 83       	std	Y+6, r25	; 0x06
    1828:	8d 83       	std	Y+5, r24	; 0x05

0000182a <.Loc.229>:
            }
            break;
    182a:	0c 94 8d 17 	jmp	0x2f1a	; 0x2f1a <.L252>

0000182e <.L27>:

        case 3:
            if ((PINK & (1<<PK3)) == 0)             // limit switch rotaties tellen x-as //
    182e:	86 e0       	ldi	r24, 0x06	; 6
    1830:	91 e0       	ldi	r25, 0x01	; 1
    1832:	dc 01       	movw	r26, r24
    1834:	8c 91       	ld	r24, X

00001836 <.Loc.231>:
    1836:	88 2f       	mov	r24, r24
    1838:	90 e0       	ldi	r25, 0x00	; 0
    183a:	88 70       	andi	r24, 0x08	; 8
    183c:	99 27       	eor	r25, r25

0000183e <.Loc.232>:
    183e:	00 97       	sbiw	r24, 0x00	; 0
    1840:	09 f0       	breq	.+2      	; 0x1844 <L0^A+0x2>

00001842 <L0^A>:
    1842:	2a c2       	rjmp	.+1108   	; 0x1c98 <.L84>
    1844:	9e 01       	movw	r18, r28
    1846:	27 58       	subi	r18, 0x87	; 135
    1848:	3f 4f       	sbci	r19, 0xFF	; 255
    184a:	80 e0       	ldi	r24, 0x00	; 0
    184c:	90 e0       	ldi	r25, 0x00	; 0
    184e:	a8 e4       	ldi	r26, 0x48	; 72
    1850:	b2 e4       	ldi	r27, 0x42	; 66
    1852:	f9 01       	movw	r30, r18
    1854:	80 83       	st	Z, r24
    1856:	91 83       	std	Z+1, r25	; 0x01
    1858:	a2 83       	std	Z+2, r26	; 0x02
    185a:	b3 83       	std	Z+3, r27	; 0x03

0000185c <.LBB166>:
	__tmp = ((F_CPU) / 4e3) * __ms;
    185c:	8e 01       	movw	r16, r28
    185e:	03 58       	subi	r16, 0x83	; 131
    1860:	1f 4f       	sbci	r17, 0xFF	; 255
    1862:	ce 01       	movw	r24, r28
    1864:	87 58       	subi	r24, 0x87	; 135
    1866:	9f 4f       	sbci	r25, 0xFF	; 255
    1868:	20 e0       	ldi	r18, 0x00	; 0
    186a:	30 e0       	ldi	r19, 0x00	; 0
    186c:	4a e7       	ldi	r20, 0x7A	; 122
    186e:	55 e4       	ldi	r21, 0x45	; 69
    1870:	dc 01       	movw	r26, r24
    1872:	6d 91       	ld	r22, X+
    1874:	7d 91       	ld	r23, X+
    1876:	8d 91       	ld	r24, X+
    1878:	9c 91       	ld	r25, X
    187a:	0e 94 47 18 	call	0x308e	; 0x308e <__mulsf3>
    187e:	c3 53       	subi	r28, 0x33	; 51
    1880:	de 4f       	sbci	r29, 0xFE	; 254
    1882:	68 83       	st	Y, r22
    1884:	79 83       	std	Y+1, r23	; 0x01
    1886:	8a 83       	std	Y+2, r24	; 0x02
    1888:	9b 83       	std	Y+3, r25	; 0x03
    188a:	cd 5c       	subi	r28, 0xCD	; 205
    188c:	d1 40       	sbci	r29, 0x01	; 1
    188e:	c3 53       	subi	r28, 0x33	; 51
    1890:	de 4f       	sbci	r29, 0xFE	; 254
    1892:	88 81       	ld	r24, Y
    1894:	99 81       	ldd	r25, Y+1	; 0x01
    1896:	aa 81       	ldd	r26, Y+2	; 0x02
    1898:	bb 81       	ldd	r27, Y+3	; 0x03
    189a:	cd 5c       	subi	r28, 0xCD	; 205
    189c:	d1 40       	sbci	r29, 0x01	; 1
    189e:	f8 01       	movw	r30, r16
    18a0:	80 83       	st	Z, r24
    18a2:	91 83       	std	Z+1, r25	; 0x01
    18a4:	a2 83       	std	Z+2, r26	; 0x02
    18a6:	b3 83       	std	Z+3, r27	; 0x03

000018a8 <.Loc.234>:
	if (__tmp < 1.0)
    18a8:	ce 01       	movw	r24, r28
    18aa:	83 58       	subi	r24, 0x83	; 131
    18ac:	9f 4f       	sbci	r25, 0xFF	; 255
    18ae:	20 e0       	ldi	r18, 0x00	; 0
    18b0:	30 e0       	ldi	r19, 0x00	; 0
    18b2:	40 e8       	ldi	r20, 0x80	; 128
    18b4:	5f e3       	ldi	r21, 0x3F	; 63
    18b6:	dc 01       	movw	r26, r24
    18b8:	6d 91       	ld	r22, X+
    18ba:	7d 91       	ld	r23, X+
    18bc:	8d 91       	ld	r24, X+
    18be:	9c 91       	ld	r25, X
    18c0:	0e 94 c1 17 	call	0x2f82	; 0x2f82 <__cmpsf2>
    18c4:	88 23       	and	r24, r24
    18c6:	4c f4       	brge	.+18     	; 0x18da <.L230>

000018c8 <.Loc.235>:
		__ticks = 1;
    18c8:	ce 01       	movw	r24, r28
    18ca:	8f 57       	subi	r24, 0x7F	; 127
    18cc:	9f 4f       	sbci	r25, 0xFF	; 255
    18ce:	21 e0       	ldi	r18, 0x01	; 1
    18d0:	30 e0       	ldi	r19, 0x00	; 0
    18d2:	fc 01       	movw	r30, r24
    18d4:	31 83       	std	Z+1, r19	; 0x01
    18d6:	20 83       	st	Z, r18
    18d8:	a5 c0       	rjmp	.+330    	; 0x1a24 <.L87>

000018da <.L230>:
	else if (__tmp > 65535)
    18da:	ce 01       	movw	r24, r28
    18dc:	83 58       	subi	r24, 0x83	; 131
    18de:	9f 4f       	sbci	r25, 0xFF	; 255
    18e0:	20 e0       	ldi	r18, 0x00	; 0
    18e2:	3f ef       	ldi	r19, 0xFF	; 255
    18e4:	4f e7       	ldi	r20, 0x7F	; 127
    18e6:	57 e4       	ldi	r21, 0x47	; 71
    18e8:	dc 01       	movw	r26, r24
    18ea:	6d 91       	ld	r22, X+
    18ec:	7d 91       	ld	r23, X+
    18ee:	8d 91       	ld	r24, X+
    18f0:	9c 91       	ld	r25, X
    18f2:	0e 94 42 18 	call	0x3084	; 0x3084 <__gesf2>
    18f6:	88 23       	and	r24, r24
    18f8:	09 f0       	breq	.+2      	; 0x18fc <L0^A>

000018fa <L0^A>:
    18fa:	0c f4       	brge	.+2      	; 0x18fe <.Loc.237>

000018fc <L0^A>:
    18fc:	75 c0       	rjmp	.+234    	; 0x19e8 <.L231>

000018fe <.Loc.237>:
		__ticks = (uint16_t) (__ms * 10.0);
    18fe:	ce 01       	movw	r24, r28
    1900:	87 58       	subi	r24, 0x87	; 135
    1902:	9f 4f       	sbci	r25, 0xFF	; 255
    1904:	20 e0       	ldi	r18, 0x00	; 0
    1906:	30 e0       	ldi	r19, 0x00	; 0
    1908:	40 e2       	ldi	r20, 0x20	; 32
    190a:	51 e4       	ldi	r21, 0x41	; 65
    190c:	fc 01       	movw	r30, r24
    190e:	60 81       	ld	r22, Z
    1910:	71 81       	ldd	r23, Z+1	; 0x01
    1912:	82 81       	ldd	r24, Z+2	; 0x02
    1914:	93 81       	ldd	r25, Z+3	; 0x03
    1916:	0e 94 47 18 	call	0x308e	; 0x308e <__mulsf3>
    191a:	cf 52       	subi	r28, 0x2F	; 47
    191c:	de 4f       	sbci	r29, 0xFE	; 254
    191e:	68 83       	st	Y, r22
    1920:	79 83       	std	Y+1, r23	; 0x01
    1922:	8a 83       	std	Y+2, r24	; 0x02
    1924:	9b 83       	std	Y+3, r25	; 0x03
    1926:	c1 5d       	subi	r28, 0xD1	; 209
    1928:	d1 40       	sbci	r29, 0x01	; 1
    192a:	cf 52       	subi	r28, 0x2F	; 47
    192c:	de 4f       	sbci	r29, 0xFE	; 254
    192e:	88 81       	ld	r24, Y
    1930:	99 81       	ldd	r25, Y+1	; 0x01
    1932:	aa 81       	ldd	r26, Y+2	; 0x02
    1934:	bb 81       	ldd	r27, Y+3	; 0x03
    1936:	c1 5d       	subi	r28, 0xD1	; 209
    1938:	d1 40       	sbci	r29, 0x01	; 1
    193a:	cb 5d       	subi	r28, 0xDB	; 219
    193c:	de 4f       	sbci	r29, 0xFE	; 254
    193e:	88 83       	st	Y, r24
    1940:	99 83       	std	Y+1, r25	; 0x01
    1942:	aa 83       	std	Y+2, r26	; 0x02
    1944:	bb 83       	std	Y+3, r27	; 0x03
    1946:	c5 52       	subi	r28, 0x25	; 37
    1948:	d1 40       	sbci	r29, 0x01	; 1

0000194a <.Loc.238>:
    194a:	8e 01       	movw	r16, r28
    194c:	0f 57       	subi	r16, 0x7F	; 127
    194e:	1f 4f       	sbci	r17, 0xFF	; 255
    1950:	cb 5d       	subi	r28, 0xDB	; 219
    1952:	de 4f       	sbci	r29, 0xFE	; 254
    1954:	68 81       	ld	r22, Y
    1956:	79 81       	ldd	r23, Y+1	; 0x01
    1958:	8a 81       	ldd	r24, Y+2	; 0x02
    195a:	9b 81       	ldd	r25, Y+3	; 0x03
    195c:	c5 52       	subi	r28, 0x25	; 37
    195e:	d1 40       	sbci	r29, 0x01	; 1
    1960:	0e 94 c6 17 	call	0x2f8c	; 0x2f8c <__fixunssfsi>
    1964:	cb 52       	subi	r28, 0x2B	; 43
    1966:	de 4f       	sbci	r29, 0xFE	; 254
    1968:	68 83       	st	Y, r22
    196a:	79 83       	std	Y+1, r23	; 0x01
    196c:	8a 83       	std	Y+2, r24	; 0x02
    196e:	9b 83       	std	Y+3, r25	; 0x03
    1970:	c5 5d       	subi	r28, 0xD5	; 213
    1972:	d1 40       	sbci	r29, 0x01	; 1
    1974:	cb 52       	subi	r28, 0x2B	; 43
    1976:	de 4f       	sbci	r29, 0xFE	; 254
    1978:	e8 81       	ld	r30, Y
    197a:	f9 81       	ldd	r31, Y+1	; 0x01
    197c:	c5 5d       	subi	r28, 0xD5	; 213
    197e:	d1 40       	sbci	r29, 0x01	; 1
    1980:	d8 01       	movw	r26, r16
    1982:	11 96       	adiw	r26, 0x01	; 1
    1984:	fc 93       	st	X, r31
    1986:	ee 93       	st	-X, r30

00001988 <.Loc.239>:
		while(__ticks)
    1988:	26 c0       	rjmp	.+76     	; 0x19d6 <.L90>

0000198a <.L91>:
    198a:	ce 01       	movw	r24, r28
    198c:	8d 57       	subi	r24, 0x7D	; 125
    198e:	9f 4f       	sbci	r25, 0xFF	; 255
    1990:	20 e9       	ldi	r18, 0x90	; 144
    1992:	31 e0       	ldi	r19, 0x01	; 1
    1994:	dc 01       	movw	r26, r24
    1996:	2d 93       	st	X+, r18
    1998:	3c 93       	st	X, r19

0000199a <.LBB168>:
    199a:	ce 01       	movw	r24, r28
    199c:	8d 57       	subi	r24, 0x7D	; 125
    199e:	9f 4f       	sbci	r25, 0xFF	; 255
    19a0:	fc 01       	movw	r30, r24
    19a2:	80 81       	ld	r24, Z
    19a4:	91 81       	ldd	r25, Z+1	; 0x01

000019a6 <.L1^B17>:
    19a6:	01 97       	sbiw	r24, 0x01	; 1
    19a8:	f1 f7       	brne	.-4      	; 0x19a6 <.L1^B17>
    19aa:	9e 01       	movw	r18, r28
    19ac:	2d 57       	subi	r18, 0x7D	; 125
    19ae:	3f 4f       	sbci	r19, 0xFF	; 255
    19b0:	d9 01       	movw	r26, r18
    19b2:	8d 93       	st	X+, r24
    19b4:	9c 93       	st	X, r25

000019b6 <.Loc.241>:
	...

000019b8 <.LBE168>:
			__ticks --;
    19b8:	ce 01       	movw	r24, r28
    19ba:	8f 57       	subi	r24, 0x7F	; 127
    19bc:	9f 4f       	sbci	r25, 0xFF	; 255
    19be:	9e 01       	movw	r18, r28
    19c0:	2f 57       	subi	r18, 0x7F	; 127
    19c2:	3f 4f       	sbci	r19, 0xFF	; 255
    19c4:	f9 01       	movw	r30, r18
    19c6:	20 81       	ld	r18, Z
    19c8:	31 81       	ldd	r19, Z+1	; 0x01
    19ca:	21 50       	subi	r18, 0x01	; 1
    19cc:	31 09       	sbc	r19, r1
    19ce:	dc 01       	movw	r26, r24
    19d0:	11 96       	adiw	r26, 0x01	; 1
    19d2:	3c 93       	st	X, r19
    19d4:	2e 93       	st	-X, r18

000019d6 <.L90>:
		while(__ticks)
    19d6:	ce 01       	movw	r24, r28
    19d8:	8f 57       	subi	r24, 0x7F	; 127
    19da:	9f 4f       	sbci	r25, 0xFF	; 255
    19dc:	fc 01       	movw	r30, r24
    19de:	80 81       	ld	r24, Z
    19e0:	91 81       	ldd	r25, Z+1	; 0x01
    19e2:	00 97       	sbiw	r24, 0x00	; 0
    19e4:	91 f6       	brne	.-92     	; 0x198a <.L91>

000019e6 <.Loc.244>:
		return;
    19e6:	39 c0       	rjmp	.+114    	; 0x1a5a <.L92>

000019e8 <.L231>:
		__ticks = (uint16_t)__tmp;
    19e8:	8e 01       	movw	r16, r28
    19ea:	0f 57       	subi	r16, 0x7F	; 127
    19ec:	1f 4f       	sbci	r17, 0xFF	; 255
    19ee:	ce 01       	movw	r24, r28
    19f0:	83 58       	subi	r24, 0x83	; 131
    19f2:	9f 4f       	sbci	r25, 0xFF	; 255
    19f4:	dc 01       	movw	r26, r24
    19f6:	6d 91       	ld	r22, X+
    19f8:	7d 91       	ld	r23, X+
    19fa:	8d 91       	ld	r24, X+
    19fc:	9c 91       	ld	r25, X
    19fe:	0e 94 c6 17 	call	0x2f8c	; 0x2f8c <__fixunssfsi>
    1a02:	c7 52       	subi	r28, 0x27	; 39
    1a04:	de 4f       	sbci	r29, 0xFE	; 254
    1a06:	68 83       	st	Y, r22
    1a08:	79 83       	std	Y+1, r23	; 0x01
    1a0a:	8a 83       	std	Y+2, r24	; 0x02
    1a0c:	9b 83       	std	Y+3, r25	; 0x03
    1a0e:	c9 5d       	subi	r28, 0xD9	; 217
    1a10:	d1 40       	sbci	r29, 0x01	; 1
    1a12:	c7 52       	subi	r28, 0x27	; 39
    1a14:	de 4f       	sbci	r29, 0xFE	; 254
    1a16:	88 81       	ld	r24, Y
    1a18:	99 81       	ldd	r25, Y+1	; 0x01
    1a1a:	c9 5d       	subi	r28, 0xD9	; 217
    1a1c:	d1 40       	sbci	r29, 0x01	; 1
    1a1e:	f8 01       	movw	r30, r16
    1a20:	91 83       	std	Z+1, r25	; 0x01
    1a22:	80 83       	st	Z, r24

00001a24 <.L87>:
    1a24:	ce 01       	movw	r24, r28
    1a26:	8b 57       	subi	r24, 0x7B	; 123
    1a28:	9f 4f       	sbci	r25, 0xFF	; 255
    1a2a:	9e 01       	movw	r18, r28
    1a2c:	2f 57       	subi	r18, 0x7F	; 127
    1a2e:	3f 4f       	sbci	r19, 0xFF	; 255
    1a30:	d9 01       	movw	r26, r18
    1a32:	2d 91       	ld	r18, X+
    1a34:	3c 91       	ld	r19, X
    1a36:	fc 01       	movw	r30, r24
    1a38:	31 83       	std	Z+1, r19	; 0x01
    1a3a:	20 83       	st	Z, r18

00001a3c <.LBB170>:
    1a3c:	ce 01       	movw	r24, r28
    1a3e:	8b 57       	subi	r24, 0x7B	; 123
    1a40:	9f 4f       	sbci	r25, 0xFF	; 255
    1a42:	dc 01       	movw	r26, r24
    1a44:	8d 91       	ld	r24, X+
    1a46:	9c 91       	ld	r25, X

00001a48 <.L1^B18>:
    1a48:	01 97       	sbiw	r24, 0x01	; 1
    1a4a:	f1 f7       	brne	.-4      	; 0x1a48 <.L1^B18>
    1a4c:	9e 01       	movw	r18, r28
    1a4e:	2b 57       	subi	r18, 0x7B	; 123
    1a50:	3f 4f       	sbci	r19, 0xFF	; 255
    1a52:	f9 01       	movw	r30, r18
    1a54:	91 83       	std	Z+1, r25	; 0x01
    1a56:	80 83       	st	Z, r24

00001a58 <.Loc.247>:
	...

00001a5a <.L92>:
            {
                DEBOUNCE;
                if ((PINK & (1<<PK3)) != 0)
    1a5a:	86 e0       	ldi	r24, 0x06	; 6
    1a5c:	91 e0       	ldi	r25, 0x01	; 1
    1a5e:	dc 01       	movw	r26, r24
    1a60:	8c 91       	ld	r24, X

00001a62 <.Loc.249>:
    1a62:	88 2f       	mov	r24, r24
    1a64:	90 e0       	ldi	r25, 0x00	; 0
    1a66:	88 70       	andi	r24, 0x08	; 8
    1a68:	99 27       	eor	r25, r25

00001a6a <.Loc.250>:
    1a6a:	00 97       	sbiw	r24, 0x00	; 0
    1a6c:	09 f4       	brne	.+2      	; 0x1a70 <L0^A+0x2>

00001a6e <L0^A>:
    1a6e:	14 c1       	rjmp	.+552    	; 0x1c98 <.L84>
    1a70:	9e 01       	movw	r18, r28
    1a72:	29 57       	subi	r18, 0x79	; 121
    1a74:	3f 4f       	sbci	r19, 0xFF	; 255
    1a76:	80 e0       	ldi	r24, 0x00	; 0
    1a78:	90 e0       	ldi	r25, 0x00	; 0
    1a7a:	a8 e4       	ldi	r26, 0x48	; 72
    1a7c:	b2 e4       	ldi	r27, 0x42	; 66
    1a7e:	f9 01       	movw	r30, r18
    1a80:	80 83       	st	Z, r24
    1a82:	91 83       	std	Z+1, r25	; 0x01
    1a84:	a2 83       	std	Z+2, r26	; 0x02
    1a86:	b3 83       	std	Z+3, r27	; 0x03

00001a88 <.LBB172>:
	__tmp = ((F_CPU) / 4e3) * __ms;
    1a88:	8e 01       	movw	r16, r28
    1a8a:	05 57       	subi	r16, 0x75	; 117
    1a8c:	1f 4f       	sbci	r17, 0xFF	; 255
    1a8e:	ce 01       	movw	r24, r28
    1a90:	89 57       	subi	r24, 0x79	; 121
    1a92:	9f 4f       	sbci	r25, 0xFF	; 255
    1a94:	20 e0       	ldi	r18, 0x00	; 0
    1a96:	30 e0       	ldi	r19, 0x00	; 0
    1a98:	4a e7       	ldi	r20, 0x7A	; 122
    1a9a:	55 e4       	ldi	r21, 0x45	; 69
    1a9c:	dc 01       	movw	r26, r24
    1a9e:	6d 91       	ld	r22, X+
    1aa0:	7d 91       	ld	r23, X+
    1aa2:	8d 91       	ld	r24, X+
    1aa4:	9c 91       	ld	r25, X
    1aa6:	0e 94 47 18 	call	0x308e	; 0x308e <__mulsf3>
    1aaa:	c3 52       	subi	r28, 0x23	; 35
    1aac:	de 4f       	sbci	r29, 0xFE	; 254
    1aae:	68 83       	st	Y, r22
    1ab0:	79 83       	std	Y+1, r23	; 0x01
    1ab2:	8a 83       	std	Y+2, r24	; 0x02
    1ab4:	9b 83       	std	Y+3, r25	; 0x03
    1ab6:	cd 5d       	subi	r28, 0xDD	; 221
    1ab8:	d1 40       	sbci	r29, 0x01	; 1
    1aba:	c3 52       	subi	r28, 0x23	; 35
    1abc:	de 4f       	sbci	r29, 0xFE	; 254
    1abe:	88 81       	ld	r24, Y
    1ac0:	99 81       	ldd	r25, Y+1	; 0x01
    1ac2:	aa 81       	ldd	r26, Y+2	; 0x02
    1ac4:	bb 81       	ldd	r27, Y+3	; 0x03
    1ac6:	cd 5d       	subi	r28, 0xDD	; 221
    1ac8:	d1 40       	sbci	r29, 0x01	; 1
    1aca:	f8 01       	movw	r30, r16
    1acc:	80 83       	st	Z, r24
    1ace:	91 83       	std	Z+1, r25	; 0x01
    1ad0:	a2 83       	std	Z+2, r26	; 0x02
    1ad2:	b3 83       	std	Z+3, r27	; 0x03

00001ad4 <.Loc.252>:
	if (__tmp < 1.0)
    1ad4:	ce 01       	movw	r24, r28
    1ad6:	85 57       	subi	r24, 0x75	; 117
    1ad8:	9f 4f       	sbci	r25, 0xFF	; 255
    1ada:	20 e0       	ldi	r18, 0x00	; 0
    1adc:	30 e0       	ldi	r19, 0x00	; 0
    1ade:	40 e8       	ldi	r20, 0x80	; 128
    1ae0:	5f e3       	ldi	r21, 0x3F	; 63
    1ae2:	dc 01       	movw	r26, r24
    1ae4:	6d 91       	ld	r22, X+
    1ae6:	7d 91       	ld	r23, X+
    1ae8:	8d 91       	ld	r24, X+
    1aea:	9c 91       	ld	r25, X
    1aec:	0e 94 c1 17 	call	0x2f82	; 0x2f82 <__cmpsf2>
    1af0:	88 23       	and	r24, r24
    1af2:	4c f4       	brge	.+18     	; 0x1b06 <.L232>

00001af4 <.Loc.253>:
		__ticks = 1;
    1af4:	ce 01       	movw	r24, r28
    1af6:	81 57       	subi	r24, 0x71	; 113
    1af8:	9f 4f       	sbci	r25, 0xFF	; 255
    1afa:	21 e0       	ldi	r18, 0x01	; 1
    1afc:	30 e0       	ldi	r19, 0x00	; 0
    1afe:	fc 01       	movw	r30, r24
    1b00:	31 83       	std	Z+1, r19	; 0x01
    1b02:	20 83       	st	Z, r18
    1b04:	a5 c0       	rjmp	.+330    	; 0x1c50 <.L95>

00001b06 <.L232>:
	else if (__tmp > 65535)
    1b06:	ce 01       	movw	r24, r28
    1b08:	85 57       	subi	r24, 0x75	; 117
    1b0a:	9f 4f       	sbci	r25, 0xFF	; 255
    1b0c:	20 e0       	ldi	r18, 0x00	; 0
    1b0e:	3f ef       	ldi	r19, 0xFF	; 255
    1b10:	4f e7       	ldi	r20, 0x7F	; 127
    1b12:	57 e4       	ldi	r21, 0x47	; 71
    1b14:	dc 01       	movw	r26, r24
    1b16:	6d 91       	ld	r22, X+
    1b18:	7d 91       	ld	r23, X+
    1b1a:	8d 91       	ld	r24, X+
    1b1c:	9c 91       	ld	r25, X
    1b1e:	0e 94 42 18 	call	0x3084	; 0x3084 <__gesf2>
    1b22:	88 23       	and	r24, r24
    1b24:	09 f0       	breq	.+2      	; 0x1b28 <L0^A>

00001b26 <L0^A>:
    1b26:	0c f4       	brge	.+2      	; 0x1b2a <.Loc.255>

00001b28 <L0^A>:
    1b28:	75 c0       	rjmp	.+234    	; 0x1c14 <.L233>

00001b2a <.Loc.255>:
		__ticks = (uint16_t) (__ms * 10.0);
    1b2a:	ce 01       	movw	r24, r28
    1b2c:	89 57       	subi	r24, 0x79	; 121
    1b2e:	9f 4f       	sbci	r25, 0xFF	; 255
    1b30:	20 e0       	ldi	r18, 0x00	; 0
    1b32:	30 e0       	ldi	r19, 0x00	; 0
    1b34:	40 e2       	ldi	r20, 0x20	; 32
    1b36:	51 e4       	ldi	r21, 0x41	; 65
    1b38:	fc 01       	movw	r30, r24
    1b3a:	60 81       	ld	r22, Z
    1b3c:	71 81       	ldd	r23, Z+1	; 0x01
    1b3e:	82 81       	ldd	r24, Z+2	; 0x02
    1b40:	93 81       	ldd	r25, Z+3	; 0x03
    1b42:	0e 94 47 18 	call	0x308e	; 0x308e <__mulsf3>
    1b46:	cf 51       	subi	r28, 0x1F	; 31
    1b48:	de 4f       	sbci	r29, 0xFE	; 254
    1b4a:	68 83       	st	Y, r22
    1b4c:	79 83       	std	Y+1, r23	; 0x01
    1b4e:	8a 83       	std	Y+2, r24	; 0x02
    1b50:	9b 83       	std	Y+3, r25	; 0x03
    1b52:	c1 5e       	subi	r28, 0xE1	; 225
    1b54:	d1 40       	sbci	r29, 0x01	; 1
    1b56:	cf 51       	subi	r28, 0x1F	; 31
    1b58:	de 4f       	sbci	r29, 0xFE	; 254
    1b5a:	88 81       	ld	r24, Y
    1b5c:	99 81       	ldd	r25, Y+1	; 0x01
    1b5e:	aa 81       	ldd	r26, Y+2	; 0x02
    1b60:	bb 81       	ldd	r27, Y+3	; 0x03
    1b62:	c1 5e       	subi	r28, 0xE1	; 225
    1b64:	d1 40       	sbci	r29, 0x01	; 1
    1b66:	c7 5d       	subi	r28, 0xD7	; 215
    1b68:	de 4f       	sbci	r29, 0xFE	; 254
    1b6a:	88 83       	st	Y, r24
    1b6c:	99 83       	std	Y+1, r25	; 0x01
    1b6e:	aa 83       	std	Y+2, r26	; 0x02
    1b70:	bb 83       	std	Y+3, r27	; 0x03
    1b72:	c9 52       	subi	r28, 0x29	; 41
    1b74:	d1 40       	sbci	r29, 0x01	; 1

00001b76 <.Loc.256>:
    1b76:	8e 01       	movw	r16, r28
    1b78:	01 57       	subi	r16, 0x71	; 113
    1b7a:	1f 4f       	sbci	r17, 0xFF	; 255
    1b7c:	c7 5d       	subi	r28, 0xD7	; 215
    1b7e:	de 4f       	sbci	r29, 0xFE	; 254
    1b80:	68 81       	ld	r22, Y
    1b82:	79 81       	ldd	r23, Y+1	; 0x01
    1b84:	8a 81       	ldd	r24, Y+2	; 0x02
    1b86:	9b 81       	ldd	r25, Y+3	; 0x03
    1b88:	c9 52       	subi	r28, 0x29	; 41
    1b8a:	d1 40       	sbci	r29, 0x01	; 1
    1b8c:	0e 94 c6 17 	call	0x2f8c	; 0x2f8c <__fixunssfsi>
    1b90:	cb 51       	subi	r28, 0x1B	; 27
    1b92:	de 4f       	sbci	r29, 0xFE	; 254
    1b94:	68 83       	st	Y, r22
    1b96:	79 83       	std	Y+1, r23	; 0x01
    1b98:	8a 83       	std	Y+2, r24	; 0x02
    1b9a:	9b 83       	std	Y+3, r25	; 0x03
    1b9c:	c5 5e       	subi	r28, 0xE5	; 229
    1b9e:	d1 40       	sbci	r29, 0x01	; 1
    1ba0:	cb 51       	subi	r28, 0x1B	; 27
    1ba2:	de 4f       	sbci	r29, 0xFE	; 254
    1ba4:	e8 81       	ld	r30, Y
    1ba6:	f9 81       	ldd	r31, Y+1	; 0x01
    1ba8:	c5 5e       	subi	r28, 0xE5	; 229
    1baa:	d1 40       	sbci	r29, 0x01	; 1
    1bac:	d8 01       	movw	r26, r16
    1bae:	11 96       	adiw	r26, 0x01	; 1
    1bb0:	fc 93       	st	X, r31
    1bb2:	ee 93       	st	-X, r30

00001bb4 <.Loc.257>:
		while(__ticks)
    1bb4:	26 c0       	rjmp	.+76     	; 0x1c02 <.L98>

00001bb6 <.L99>:
    1bb6:	ce 01       	movw	r24, r28
    1bb8:	8f 56       	subi	r24, 0x6F	; 111
    1bba:	9f 4f       	sbci	r25, 0xFF	; 255
    1bbc:	20 e9       	ldi	r18, 0x90	; 144
    1bbe:	31 e0       	ldi	r19, 0x01	; 1
    1bc0:	dc 01       	movw	r26, r24
    1bc2:	2d 93       	st	X+, r18
    1bc4:	3c 93       	st	X, r19

00001bc6 <.LBB174>:
    1bc6:	ce 01       	movw	r24, r28
    1bc8:	8f 56       	subi	r24, 0x6F	; 111
    1bca:	9f 4f       	sbci	r25, 0xFF	; 255
    1bcc:	fc 01       	movw	r30, r24
    1bce:	80 81       	ld	r24, Z
    1bd0:	91 81       	ldd	r25, Z+1	; 0x01

00001bd2 <.L1^B19>:
    1bd2:	01 97       	sbiw	r24, 0x01	; 1
    1bd4:	f1 f7       	brne	.-4      	; 0x1bd2 <.L1^B19>
    1bd6:	9e 01       	movw	r18, r28
    1bd8:	2f 56       	subi	r18, 0x6F	; 111
    1bda:	3f 4f       	sbci	r19, 0xFF	; 255
    1bdc:	d9 01       	movw	r26, r18
    1bde:	8d 93       	st	X+, r24
    1be0:	9c 93       	st	X, r25

00001be2 <.Loc.259>:
	...

00001be4 <.LBE174>:
			__ticks --;
    1be4:	ce 01       	movw	r24, r28
    1be6:	81 57       	subi	r24, 0x71	; 113
    1be8:	9f 4f       	sbci	r25, 0xFF	; 255
    1bea:	9e 01       	movw	r18, r28
    1bec:	21 57       	subi	r18, 0x71	; 113
    1bee:	3f 4f       	sbci	r19, 0xFF	; 255
    1bf0:	f9 01       	movw	r30, r18
    1bf2:	20 81       	ld	r18, Z
    1bf4:	31 81       	ldd	r19, Z+1	; 0x01
    1bf6:	21 50       	subi	r18, 0x01	; 1
    1bf8:	31 09       	sbc	r19, r1
    1bfa:	dc 01       	movw	r26, r24
    1bfc:	11 96       	adiw	r26, 0x01	; 1
    1bfe:	3c 93       	st	X, r19
    1c00:	2e 93       	st	-X, r18

00001c02 <.L98>:
		while(__ticks)
    1c02:	ce 01       	movw	r24, r28
    1c04:	81 57       	subi	r24, 0x71	; 113
    1c06:	9f 4f       	sbci	r25, 0xFF	; 255
    1c08:	fc 01       	movw	r30, r24
    1c0a:	80 81       	ld	r24, Z
    1c0c:	91 81       	ldd	r25, Z+1	; 0x01
    1c0e:	00 97       	sbiw	r24, 0x00	; 0
    1c10:	91 f6       	brne	.-92     	; 0x1bb6 <.L99>

00001c12 <.Loc.262>:
		return;
    1c12:	39 c0       	rjmp	.+114    	; 0x1c86 <.L100>

00001c14 <.L233>:
		__ticks = (uint16_t)__tmp;
    1c14:	8e 01       	movw	r16, r28
    1c16:	01 57       	subi	r16, 0x71	; 113
    1c18:	1f 4f       	sbci	r17, 0xFF	; 255
    1c1a:	ce 01       	movw	r24, r28
    1c1c:	85 57       	subi	r24, 0x75	; 117
    1c1e:	9f 4f       	sbci	r25, 0xFF	; 255
    1c20:	dc 01       	movw	r26, r24
    1c22:	6d 91       	ld	r22, X+
    1c24:	7d 91       	ld	r23, X+
    1c26:	8d 91       	ld	r24, X+
    1c28:	9c 91       	ld	r25, X
    1c2a:	0e 94 c6 17 	call	0x2f8c	; 0x2f8c <__fixunssfsi>
    1c2e:	c7 51       	subi	r28, 0x17	; 23
    1c30:	de 4f       	sbci	r29, 0xFE	; 254
    1c32:	68 83       	st	Y, r22
    1c34:	79 83       	std	Y+1, r23	; 0x01
    1c36:	8a 83       	std	Y+2, r24	; 0x02
    1c38:	9b 83       	std	Y+3, r25	; 0x03
    1c3a:	c9 5e       	subi	r28, 0xE9	; 233
    1c3c:	d1 40       	sbci	r29, 0x01	; 1
    1c3e:	c7 51       	subi	r28, 0x17	; 23
    1c40:	de 4f       	sbci	r29, 0xFE	; 254
    1c42:	88 81       	ld	r24, Y
    1c44:	99 81       	ldd	r25, Y+1	; 0x01
    1c46:	c9 5e       	subi	r28, 0xE9	; 233
    1c48:	d1 40       	sbci	r29, 0x01	; 1
    1c4a:	f8 01       	movw	r30, r16
    1c4c:	91 83       	std	Z+1, r25	; 0x01
    1c4e:	80 83       	st	Z, r24

00001c50 <.L95>:
    1c50:	ce 01       	movw	r24, r28
    1c52:	8d 56       	subi	r24, 0x6D	; 109
    1c54:	9f 4f       	sbci	r25, 0xFF	; 255
    1c56:	9e 01       	movw	r18, r28
    1c58:	21 57       	subi	r18, 0x71	; 113
    1c5a:	3f 4f       	sbci	r19, 0xFF	; 255
    1c5c:	d9 01       	movw	r26, r18
    1c5e:	2d 91       	ld	r18, X+
    1c60:	3c 91       	ld	r19, X
    1c62:	fc 01       	movw	r30, r24
    1c64:	31 83       	std	Z+1, r19	; 0x01
    1c66:	20 83       	st	Z, r18

00001c68 <.LBB176>:
    1c68:	ce 01       	movw	r24, r28
    1c6a:	8d 56       	subi	r24, 0x6D	; 109
    1c6c:	9f 4f       	sbci	r25, 0xFF	; 255
    1c6e:	dc 01       	movw	r26, r24
    1c70:	8d 91       	ld	r24, X+
    1c72:	9c 91       	ld	r25, X

00001c74 <.L1^B20>:
    1c74:	01 97       	sbiw	r24, 0x01	; 1
    1c76:	f1 f7       	brne	.-4      	; 0x1c74 <.L1^B20>
    1c78:	9e 01       	movw	r18, r28
    1c7a:	2d 56       	subi	r18, 0x6D	; 109
    1c7c:	3f 4f       	sbci	r19, 0xFF	; 255
    1c7e:	f9 01       	movw	r30, r18
    1c80:	91 83       	std	Z+1, r25	; 0x01
    1c82:	80 83       	st	Z, r24

00001c84 <.Loc.265>:
	...

00001c86 <.L100>:
                {
                    DEBOUNCE;
                    rotatiex++;                     // optellen van rotaties x-as //
    1c86:	80 91 04 02 	lds	r24, 0x0204	; 0x800204 <rotatiex.3>
    1c8a:	90 91 05 02 	lds	r25, 0x0205	; 0x800205 <rotatiex.3+0x1>
    1c8e:	01 96       	adiw	r24, 0x01	; 1
    1c90:	90 93 05 02 	sts	0x0205, r25	; 0x800205 <rotatiex.3+0x1>
    1c94:	80 93 04 02 	sts	0x0204, r24	; 0x800204 <rotatiex.3>

00001c98 <.L84>:
                    ///PORTB ^= (1<<PB5);
                }
            }
            if ((PINK & (1<<PK4)) == 0)             // limit switch rotaties tellen y-as //
    1c98:	86 e0       	ldi	r24, 0x06	; 6
    1c9a:	91 e0       	ldi	r25, 0x01	; 1
    1c9c:	dc 01       	movw	r26, r24
    1c9e:	8c 91       	ld	r24, X

00001ca0 <.Loc.268>:
    1ca0:	88 2f       	mov	r24, r24
    1ca2:	90 e0       	ldi	r25, 0x00	; 0
    1ca4:	80 71       	andi	r24, 0x10	; 16
    1ca6:	99 27       	eor	r25, r25

00001ca8 <.Loc.269>:
    1ca8:	00 97       	sbiw	r24, 0x00	; 0
    1caa:	09 f0       	breq	.+2      	; 0x1cae <L0^A+0x2>

00001cac <L0^A>:
    1cac:	2b c2       	rjmp	.+1110   	; 0x2104 <.L101>
    1cae:	9e 01       	movw	r18, r28
    1cb0:	2b 56       	subi	r18, 0x6B	; 107
    1cb2:	3f 4f       	sbci	r19, 0xFF	; 255
    1cb4:	80 e0       	ldi	r24, 0x00	; 0
    1cb6:	90 e0       	ldi	r25, 0x00	; 0
    1cb8:	a8 e4       	ldi	r26, 0x48	; 72
    1cba:	b2 e4       	ldi	r27, 0x42	; 66
    1cbc:	f9 01       	movw	r30, r18
    1cbe:	80 83       	st	Z, r24
    1cc0:	91 83       	std	Z+1, r25	; 0x01
    1cc2:	a2 83       	std	Z+2, r26	; 0x02
    1cc4:	b3 83       	std	Z+3, r27	; 0x03

00001cc6 <.LBB178>:
	__tmp = ((F_CPU) / 4e3) * __ms;
    1cc6:	8e 01       	movw	r16, r28
    1cc8:	07 56       	subi	r16, 0x67	; 103
    1cca:	1f 4f       	sbci	r17, 0xFF	; 255
    1ccc:	ce 01       	movw	r24, r28
    1cce:	8b 56       	subi	r24, 0x6B	; 107
    1cd0:	9f 4f       	sbci	r25, 0xFF	; 255
    1cd2:	20 e0       	ldi	r18, 0x00	; 0
    1cd4:	30 e0       	ldi	r19, 0x00	; 0
    1cd6:	4a e7       	ldi	r20, 0x7A	; 122
    1cd8:	55 e4       	ldi	r21, 0x45	; 69
    1cda:	dc 01       	movw	r26, r24
    1cdc:	6d 91       	ld	r22, X+
    1cde:	7d 91       	ld	r23, X+
    1ce0:	8d 91       	ld	r24, X+
    1ce2:	9c 91       	ld	r25, X
    1ce4:	0e 94 47 18 	call	0x308e	; 0x308e <__mulsf3>
    1ce8:	c3 51       	subi	r28, 0x13	; 19
    1cea:	de 4f       	sbci	r29, 0xFE	; 254
    1cec:	68 83       	st	Y, r22
    1cee:	79 83       	std	Y+1, r23	; 0x01
    1cf0:	8a 83       	std	Y+2, r24	; 0x02
    1cf2:	9b 83       	std	Y+3, r25	; 0x03
    1cf4:	cd 5e       	subi	r28, 0xED	; 237
    1cf6:	d1 40       	sbci	r29, 0x01	; 1
    1cf8:	c3 51       	subi	r28, 0x13	; 19
    1cfa:	de 4f       	sbci	r29, 0xFE	; 254
    1cfc:	88 81       	ld	r24, Y
    1cfe:	99 81       	ldd	r25, Y+1	; 0x01
    1d00:	aa 81       	ldd	r26, Y+2	; 0x02
    1d02:	bb 81       	ldd	r27, Y+3	; 0x03
    1d04:	cd 5e       	subi	r28, 0xED	; 237
    1d06:	d1 40       	sbci	r29, 0x01	; 1
    1d08:	f8 01       	movw	r30, r16
    1d0a:	80 83       	st	Z, r24
    1d0c:	91 83       	std	Z+1, r25	; 0x01
    1d0e:	a2 83       	std	Z+2, r26	; 0x02
    1d10:	b3 83       	std	Z+3, r27	; 0x03

00001d12 <.Loc.271>:
	if (__tmp < 1.0)
    1d12:	ce 01       	movw	r24, r28
    1d14:	87 56       	subi	r24, 0x67	; 103
    1d16:	9f 4f       	sbci	r25, 0xFF	; 255
    1d18:	20 e0       	ldi	r18, 0x00	; 0
    1d1a:	30 e0       	ldi	r19, 0x00	; 0
    1d1c:	40 e8       	ldi	r20, 0x80	; 128
    1d1e:	5f e3       	ldi	r21, 0x3F	; 63
    1d20:	dc 01       	movw	r26, r24
    1d22:	6d 91       	ld	r22, X+
    1d24:	7d 91       	ld	r23, X+
    1d26:	8d 91       	ld	r24, X+
    1d28:	9c 91       	ld	r25, X
    1d2a:	0e 94 c1 17 	call	0x2f82	; 0x2f82 <__cmpsf2>
    1d2e:	88 23       	and	r24, r24
    1d30:	4c f4       	brge	.+18     	; 0x1d44 <.L234>

00001d32 <.Loc.272>:
		__ticks = 1;
    1d32:	ce 01       	movw	r24, r28
    1d34:	83 56       	subi	r24, 0x63	; 99
    1d36:	9f 4f       	sbci	r25, 0xFF	; 255
    1d38:	21 e0       	ldi	r18, 0x01	; 1
    1d3a:	30 e0       	ldi	r19, 0x00	; 0
    1d3c:	fc 01       	movw	r30, r24
    1d3e:	31 83       	std	Z+1, r19	; 0x01
    1d40:	20 83       	st	Z, r18
    1d42:	a5 c0       	rjmp	.+330    	; 0x1e8e <.L104>

00001d44 <.L234>:
	else if (__tmp > 65535)
    1d44:	ce 01       	movw	r24, r28
    1d46:	87 56       	subi	r24, 0x67	; 103
    1d48:	9f 4f       	sbci	r25, 0xFF	; 255
    1d4a:	20 e0       	ldi	r18, 0x00	; 0
    1d4c:	3f ef       	ldi	r19, 0xFF	; 255
    1d4e:	4f e7       	ldi	r20, 0x7F	; 127
    1d50:	57 e4       	ldi	r21, 0x47	; 71
    1d52:	dc 01       	movw	r26, r24
    1d54:	6d 91       	ld	r22, X+
    1d56:	7d 91       	ld	r23, X+
    1d58:	8d 91       	ld	r24, X+
    1d5a:	9c 91       	ld	r25, X
    1d5c:	0e 94 42 18 	call	0x3084	; 0x3084 <__gesf2>
    1d60:	88 23       	and	r24, r24
    1d62:	09 f0       	breq	.+2      	; 0x1d66 <L0^A>

00001d64 <L0^A>:
    1d64:	0c f4       	brge	.+2      	; 0x1d68 <.Loc.274>

00001d66 <L0^A>:
    1d66:	75 c0       	rjmp	.+234    	; 0x1e52 <.L235>

00001d68 <.Loc.274>:
		__ticks = (uint16_t) (__ms * 10.0);
    1d68:	ce 01       	movw	r24, r28
    1d6a:	8b 56       	subi	r24, 0x6B	; 107
    1d6c:	9f 4f       	sbci	r25, 0xFF	; 255
    1d6e:	20 e0       	ldi	r18, 0x00	; 0
    1d70:	30 e0       	ldi	r19, 0x00	; 0
    1d72:	40 e2       	ldi	r20, 0x20	; 32
    1d74:	51 e4       	ldi	r21, 0x41	; 65
    1d76:	fc 01       	movw	r30, r24
    1d78:	60 81       	ld	r22, Z
    1d7a:	71 81       	ldd	r23, Z+1	; 0x01
    1d7c:	82 81       	ldd	r24, Z+2	; 0x02
    1d7e:	93 81       	ldd	r25, Z+3	; 0x03
    1d80:	0e 94 47 18 	call	0x308e	; 0x308e <__mulsf3>
    1d84:	cf 50       	subi	r28, 0x0F	; 15
    1d86:	de 4f       	sbci	r29, 0xFE	; 254
    1d88:	68 83       	st	Y, r22
    1d8a:	79 83       	std	Y+1, r23	; 0x01
    1d8c:	8a 83       	std	Y+2, r24	; 0x02
    1d8e:	9b 83       	std	Y+3, r25	; 0x03
    1d90:	c1 5f       	subi	r28, 0xF1	; 241
    1d92:	d1 40       	sbci	r29, 0x01	; 1
    1d94:	cf 50       	subi	r28, 0x0F	; 15
    1d96:	de 4f       	sbci	r29, 0xFE	; 254
    1d98:	88 81       	ld	r24, Y
    1d9a:	99 81       	ldd	r25, Y+1	; 0x01
    1d9c:	aa 81       	ldd	r26, Y+2	; 0x02
    1d9e:	bb 81       	ldd	r27, Y+3	; 0x03
    1da0:	c1 5f       	subi	r28, 0xF1	; 241
    1da2:	d1 40       	sbci	r29, 0x01	; 1
    1da4:	c3 5d       	subi	r28, 0xD3	; 211
    1da6:	de 4f       	sbci	r29, 0xFE	; 254
    1da8:	88 83       	st	Y, r24
    1daa:	99 83       	std	Y+1, r25	; 0x01
    1dac:	aa 83       	std	Y+2, r26	; 0x02
    1dae:	bb 83       	std	Y+3, r27	; 0x03
    1db0:	cd 52       	subi	r28, 0x2D	; 45
    1db2:	d1 40       	sbci	r29, 0x01	; 1

00001db4 <.Loc.275>:
    1db4:	8e 01       	movw	r16, r28
    1db6:	03 56       	subi	r16, 0x63	; 99
    1db8:	1f 4f       	sbci	r17, 0xFF	; 255
    1dba:	c3 5d       	subi	r28, 0xD3	; 211
    1dbc:	de 4f       	sbci	r29, 0xFE	; 254
    1dbe:	68 81       	ld	r22, Y
    1dc0:	79 81       	ldd	r23, Y+1	; 0x01
    1dc2:	8a 81       	ldd	r24, Y+2	; 0x02
    1dc4:	9b 81       	ldd	r25, Y+3	; 0x03
    1dc6:	cd 52       	subi	r28, 0x2D	; 45
    1dc8:	d1 40       	sbci	r29, 0x01	; 1
    1dca:	0e 94 c6 17 	call	0x2f8c	; 0x2f8c <__fixunssfsi>
    1dce:	cb 50       	subi	r28, 0x0B	; 11
    1dd0:	de 4f       	sbci	r29, 0xFE	; 254
    1dd2:	68 83       	st	Y, r22
    1dd4:	79 83       	std	Y+1, r23	; 0x01
    1dd6:	8a 83       	std	Y+2, r24	; 0x02
    1dd8:	9b 83       	std	Y+3, r25	; 0x03
    1dda:	c5 5f       	subi	r28, 0xF5	; 245
    1ddc:	d1 40       	sbci	r29, 0x01	; 1
    1dde:	cb 50       	subi	r28, 0x0B	; 11
    1de0:	de 4f       	sbci	r29, 0xFE	; 254
    1de2:	e8 81       	ld	r30, Y
    1de4:	f9 81       	ldd	r31, Y+1	; 0x01
    1de6:	c5 5f       	subi	r28, 0xF5	; 245
    1de8:	d1 40       	sbci	r29, 0x01	; 1
    1dea:	d8 01       	movw	r26, r16
    1dec:	11 96       	adiw	r26, 0x01	; 1
    1dee:	fc 93       	st	X, r31
    1df0:	ee 93       	st	-X, r30

00001df2 <.Loc.276>:
		while(__ticks)
    1df2:	26 c0       	rjmp	.+76     	; 0x1e40 <.L107>

00001df4 <.L108>:
    1df4:	ce 01       	movw	r24, r28
    1df6:	81 56       	subi	r24, 0x61	; 97
    1df8:	9f 4f       	sbci	r25, 0xFF	; 255
    1dfa:	20 e9       	ldi	r18, 0x90	; 144
    1dfc:	31 e0       	ldi	r19, 0x01	; 1
    1dfe:	dc 01       	movw	r26, r24
    1e00:	2d 93       	st	X+, r18
    1e02:	3c 93       	st	X, r19

00001e04 <.LBB180>:
    1e04:	ce 01       	movw	r24, r28
    1e06:	81 56       	subi	r24, 0x61	; 97
    1e08:	9f 4f       	sbci	r25, 0xFF	; 255
    1e0a:	fc 01       	movw	r30, r24
    1e0c:	80 81       	ld	r24, Z
    1e0e:	91 81       	ldd	r25, Z+1	; 0x01

00001e10 <.L1^B21>:
    1e10:	01 97       	sbiw	r24, 0x01	; 1
    1e12:	f1 f7       	brne	.-4      	; 0x1e10 <.L1^B21>
    1e14:	9e 01       	movw	r18, r28
    1e16:	21 56       	subi	r18, 0x61	; 97
    1e18:	3f 4f       	sbci	r19, 0xFF	; 255
    1e1a:	d9 01       	movw	r26, r18
    1e1c:	8d 93       	st	X+, r24
    1e1e:	9c 93       	st	X, r25

00001e20 <.Loc.278>:
	...

00001e22 <.LBE180>:
			__ticks --;
    1e22:	ce 01       	movw	r24, r28
    1e24:	83 56       	subi	r24, 0x63	; 99
    1e26:	9f 4f       	sbci	r25, 0xFF	; 255
    1e28:	9e 01       	movw	r18, r28
    1e2a:	23 56       	subi	r18, 0x63	; 99
    1e2c:	3f 4f       	sbci	r19, 0xFF	; 255
    1e2e:	f9 01       	movw	r30, r18
    1e30:	20 81       	ld	r18, Z
    1e32:	31 81       	ldd	r19, Z+1	; 0x01
    1e34:	21 50       	subi	r18, 0x01	; 1
    1e36:	31 09       	sbc	r19, r1
    1e38:	dc 01       	movw	r26, r24
    1e3a:	11 96       	adiw	r26, 0x01	; 1
    1e3c:	3c 93       	st	X, r19
    1e3e:	2e 93       	st	-X, r18

00001e40 <.L107>:
		while(__ticks)
    1e40:	ce 01       	movw	r24, r28
    1e42:	83 56       	subi	r24, 0x63	; 99
    1e44:	9f 4f       	sbci	r25, 0xFF	; 255
    1e46:	fc 01       	movw	r30, r24
    1e48:	80 81       	ld	r24, Z
    1e4a:	91 81       	ldd	r25, Z+1	; 0x01
    1e4c:	00 97       	sbiw	r24, 0x00	; 0
    1e4e:	91 f6       	brne	.-92     	; 0x1df4 <.L108>

00001e50 <.Loc.281>:
		return;
    1e50:	39 c0       	rjmp	.+114    	; 0x1ec4 <.L109>

00001e52 <.L235>:
		__ticks = (uint16_t)__tmp;
    1e52:	8e 01       	movw	r16, r28
    1e54:	03 56       	subi	r16, 0x63	; 99
    1e56:	1f 4f       	sbci	r17, 0xFF	; 255
    1e58:	ce 01       	movw	r24, r28
    1e5a:	87 56       	subi	r24, 0x67	; 103
    1e5c:	9f 4f       	sbci	r25, 0xFF	; 255
    1e5e:	dc 01       	movw	r26, r24
    1e60:	6d 91       	ld	r22, X+
    1e62:	7d 91       	ld	r23, X+
    1e64:	8d 91       	ld	r24, X+
    1e66:	9c 91       	ld	r25, X
    1e68:	0e 94 c6 17 	call	0x2f8c	; 0x2f8c <__fixunssfsi>
    1e6c:	c7 50       	subi	r28, 0x07	; 7
    1e6e:	de 4f       	sbci	r29, 0xFE	; 254
    1e70:	68 83       	st	Y, r22
    1e72:	79 83       	std	Y+1, r23	; 0x01
    1e74:	8a 83       	std	Y+2, r24	; 0x02
    1e76:	9b 83       	std	Y+3, r25	; 0x03
    1e78:	c9 5f       	subi	r28, 0xF9	; 249
    1e7a:	d1 40       	sbci	r29, 0x01	; 1
    1e7c:	c7 50       	subi	r28, 0x07	; 7
    1e7e:	de 4f       	sbci	r29, 0xFE	; 254
    1e80:	88 81       	ld	r24, Y
    1e82:	99 81       	ldd	r25, Y+1	; 0x01
    1e84:	c9 5f       	subi	r28, 0xF9	; 249
    1e86:	d1 40       	sbci	r29, 0x01	; 1
    1e88:	f8 01       	movw	r30, r16
    1e8a:	91 83       	std	Z+1, r25	; 0x01
    1e8c:	80 83       	st	Z, r24

00001e8e <.L104>:
    1e8e:	ce 01       	movw	r24, r28
    1e90:	8f 55       	subi	r24, 0x5F	; 95
    1e92:	9f 4f       	sbci	r25, 0xFF	; 255
    1e94:	9e 01       	movw	r18, r28
    1e96:	23 56       	subi	r18, 0x63	; 99
    1e98:	3f 4f       	sbci	r19, 0xFF	; 255
    1e9a:	d9 01       	movw	r26, r18
    1e9c:	2d 91       	ld	r18, X+
    1e9e:	3c 91       	ld	r19, X
    1ea0:	fc 01       	movw	r30, r24
    1ea2:	31 83       	std	Z+1, r19	; 0x01
    1ea4:	20 83       	st	Z, r18

00001ea6 <.LBB182>:
    1ea6:	ce 01       	movw	r24, r28
    1ea8:	8f 55       	subi	r24, 0x5F	; 95
    1eaa:	9f 4f       	sbci	r25, 0xFF	; 255
    1eac:	dc 01       	movw	r26, r24
    1eae:	8d 91       	ld	r24, X+
    1eb0:	9c 91       	ld	r25, X

00001eb2 <.L1^B22>:
    1eb2:	01 97       	sbiw	r24, 0x01	; 1
    1eb4:	f1 f7       	brne	.-4      	; 0x1eb2 <.L1^B22>
    1eb6:	9e 01       	movw	r18, r28
    1eb8:	2f 55       	subi	r18, 0x5F	; 95
    1eba:	3f 4f       	sbci	r19, 0xFF	; 255
    1ebc:	f9 01       	movw	r30, r18
    1ebe:	91 83       	std	Z+1, r25	; 0x01
    1ec0:	80 83       	st	Z, r24

00001ec2 <.Loc.284>:
	...

00001ec4 <.L109>:
            {
                DEBOUNCE;
                if ((PINK & (1<<PK4)) != 0)
    1ec4:	86 e0       	ldi	r24, 0x06	; 6
    1ec6:	91 e0       	ldi	r25, 0x01	; 1
    1ec8:	dc 01       	movw	r26, r24
    1eca:	8c 91       	ld	r24, X

00001ecc <.Loc.286>:
    1ecc:	88 2f       	mov	r24, r24
    1ece:	90 e0       	ldi	r25, 0x00	; 0
    1ed0:	80 71       	andi	r24, 0x10	; 16
    1ed2:	99 27       	eor	r25, r25

00001ed4 <.Loc.287>:
    1ed4:	00 97       	sbiw	r24, 0x00	; 0
    1ed6:	09 f4       	brne	.+2      	; 0x1eda <L0^A+0x2>

00001ed8 <L0^A>:
    1ed8:	15 c1       	rjmp	.+554    	; 0x2104 <.L101>
    1eda:	9e 01       	movw	r18, r28
    1edc:	2d 55       	subi	r18, 0x5D	; 93
    1ede:	3f 4f       	sbci	r19, 0xFF	; 255
    1ee0:	80 e0       	ldi	r24, 0x00	; 0
    1ee2:	90 e0       	ldi	r25, 0x00	; 0
    1ee4:	a8 e4       	ldi	r26, 0x48	; 72
    1ee6:	b2 e4       	ldi	r27, 0x42	; 66
    1ee8:	f9 01       	movw	r30, r18
    1eea:	80 83       	st	Z, r24
    1eec:	91 83       	std	Z+1, r25	; 0x01
    1eee:	a2 83       	std	Z+2, r26	; 0x02
    1ef0:	b3 83       	std	Z+3, r27	; 0x03

00001ef2 <.LBB184>:
	__tmp = ((F_CPU) / 4e3) * __ms;
    1ef2:	8e 01       	movw	r16, r28
    1ef4:	09 55       	subi	r16, 0x59	; 89
    1ef6:	1f 4f       	sbci	r17, 0xFF	; 255
    1ef8:	ce 01       	movw	r24, r28
    1efa:	8d 55       	subi	r24, 0x5D	; 93
    1efc:	9f 4f       	sbci	r25, 0xFF	; 255
    1efe:	20 e0       	ldi	r18, 0x00	; 0
    1f00:	30 e0       	ldi	r19, 0x00	; 0
    1f02:	4a e7       	ldi	r20, 0x7A	; 122
    1f04:	55 e4       	ldi	r21, 0x45	; 69
    1f06:	dc 01       	movw	r26, r24
    1f08:	6d 91       	ld	r22, X+
    1f0a:	7d 91       	ld	r23, X+
    1f0c:	8d 91       	ld	r24, X+
    1f0e:	9c 91       	ld	r25, X
    1f10:	0e 94 47 18 	call	0x308e	; 0x308e <__mulsf3>
    1f14:	c3 50       	subi	r28, 0x03	; 3
    1f16:	de 4f       	sbci	r29, 0xFE	; 254
    1f18:	68 83       	st	Y, r22
    1f1a:	79 83       	std	Y+1, r23	; 0x01
    1f1c:	8a 83       	std	Y+2, r24	; 0x02
    1f1e:	9b 83       	std	Y+3, r25	; 0x03
    1f20:	cd 5f       	subi	r28, 0xFD	; 253
    1f22:	d1 40       	sbci	r29, 0x01	; 1
    1f24:	c3 50       	subi	r28, 0x03	; 3
    1f26:	de 4f       	sbci	r29, 0xFE	; 254
    1f28:	88 81       	ld	r24, Y
    1f2a:	99 81       	ldd	r25, Y+1	; 0x01
    1f2c:	aa 81       	ldd	r26, Y+2	; 0x02
    1f2e:	bb 81       	ldd	r27, Y+3	; 0x03
    1f30:	cd 5f       	subi	r28, 0xFD	; 253
    1f32:	d1 40       	sbci	r29, 0x01	; 1
    1f34:	f8 01       	movw	r30, r16
    1f36:	80 83       	st	Z, r24
    1f38:	91 83       	std	Z+1, r25	; 0x01
    1f3a:	a2 83       	std	Z+2, r26	; 0x02
    1f3c:	b3 83       	std	Z+3, r27	; 0x03

00001f3e <.Loc.289>:
	if (__tmp < 1.0)
    1f3e:	ce 01       	movw	r24, r28
    1f40:	89 55       	subi	r24, 0x59	; 89
    1f42:	9f 4f       	sbci	r25, 0xFF	; 255
    1f44:	20 e0       	ldi	r18, 0x00	; 0
    1f46:	30 e0       	ldi	r19, 0x00	; 0
    1f48:	40 e8       	ldi	r20, 0x80	; 128
    1f4a:	5f e3       	ldi	r21, 0x3F	; 63
    1f4c:	dc 01       	movw	r26, r24
    1f4e:	6d 91       	ld	r22, X+
    1f50:	7d 91       	ld	r23, X+
    1f52:	8d 91       	ld	r24, X+
    1f54:	9c 91       	ld	r25, X
    1f56:	0e 94 c1 17 	call	0x2f82	; 0x2f82 <__cmpsf2>
    1f5a:	88 23       	and	r24, r24
    1f5c:	4c f4       	brge	.+18     	; 0x1f70 <.L236>

00001f5e <.Loc.290>:
		__ticks = 1;
    1f5e:	ce 01       	movw	r24, r28
    1f60:	85 55       	subi	r24, 0x55	; 85
    1f62:	9f 4f       	sbci	r25, 0xFF	; 255
    1f64:	21 e0       	ldi	r18, 0x01	; 1
    1f66:	30 e0       	ldi	r19, 0x00	; 0
    1f68:	fc 01       	movw	r30, r24
    1f6a:	31 83       	std	Z+1, r19	; 0x01
    1f6c:	20 83       	st	Z, r18
    1f6e:	a5 c0       	rjmp	.+330    	; 0x20ba <.L112>

00001f70 <.L236>:
	else if (__tmp > 65535)
    1f70:	ce 01       	movw	r24, r28
    1f72:	89 55       	subi	r24, 0x59	; 89
    1f74:	9f 4f       	sbci	r25, 0xFF	; 255
    1f76:	20 e0       	ldi	r18, 0x00	; 0
    1f78:	3f ef       	ldi	r19, 0xFF	; 255
    1f7a:	4f e7       	ldi	r20, 0x7F	; 127
    1f7c:	57 e4       	ldi	r21, 0x47	; 71
    1f7e:	dc 01       	movw	r26, r24
    1f80:	6d 91       	ld	r22, X+
    1f82:	7d 91       	ld	r23, X+
    1f84:	8d 91       	ld	r24, X+
    1f86:	9c 91       	ld	r25, X
    1f88:	0e 94 42 18 	call	0x3084	; 0x3084 <__gesf2>
    1f8c:	88 23       	and	r24, r24
    1f8e:	09 f0       	breq	.+2      	; 0x1f92 <L0^A>

00001f90 <L0^A>:
    1f90:	0c f4       	brge	.+2      	; 0x1f94 <.Loc.292>

00001f92 <L0^A>:
    1f92:	75 c0       	rjmp	.+234    	; 0x207e <.L237>

00001f94 <.Loc.292>:
		__ticks = (uint16_t) (__ms * 10.0);
    1f94:	ce 01       	movw	r24, r28
    1f96:	8d 55       	subi	r24, 0x5D	; 93
    1f98:	9f 4f       	sbci	r25, 0xFF	; 255
    1f9a:	20 e0       	ldi	r18, 0x00	; 0
    1f9c:	30 e0       	ldi	r19, 0x00	; 0
    1f9e:	40 e2       	ldi	r20, 0x20	; 32
    1fa0:	51 e4       	ldi	r21, 0x41	; 65
    1fa2:	fc 01       	movw	r30, r24
    1fa4:	60 81       	ld	r22, Z
    1fa6:	71 81       	ldd	r23, Z+1	; 0x01
    1fa8:	82 81       	ldd	r24, Z+2	; 0x02
    1faa:	93 81       	ldd	r25, Z+3	; 0x03
    1fac:	0e 94 47 18 	call	0x308e	; 0x308e <__mulsf3>
    1fb0:	cf 5f       	subi	r28, 0xFF	; 255
    1fb2:	dd 4f       	sbci	r29, 0xFD	; 253
    1fb4:	68 83       	st	Y, r22
    1fb6:	79 83       	std	Y+1, r23	; 0x01
    1fb8:	8a 83       	std	Y+2, r24	; 0x02
    1fba:	9b 83       	std	Y+3, r25	; 0x03
    1fbc:	c1 50       	subi	r28, 0x01	; 1
    1fbe:	d2 40       	sbci	r29, 0x02	; 2
    1fc0:	cf 5f       	subi	r28, 0xFF	; 255
    1fc2:	dd 4f       	sbci	r29, 0xFD	; 253
    1fc4:	88 81       	ld	r24, Y
    1fc6:	99 81       	ldd	r25, Y+1	; 0x01
    1fc8:	aa 81       	ldd	r26, Y+2	; 0x02
    1fca:	bb 81       	ldd	r27, Y+3	; 0x03
    1fcc:	c1 50       	subi	r28, 0x01	; 1
    1fce:	d2 40       	sbci	r29, 0x02	; 2
    1fd0:	cf 5c       	subi	r28, 0xCF	; 207
    1fd2:	de 4f       	sbci	r29, 0xFE	; 254
    1fd4:	88 83       	st	Y, r24
    1fd6:	99 83       	std	Y+1, r25	; 0x01
    1fd8:	aa 83       	std	Y+2, r26	; 0x02
    1fda:	bb 83       	std	Y+3, r27	; 0x03
    1fdc:	c1 53       	subi	r28, 0x31	; 49
    1fde:	d1 40       	sbci	r29, 0x01	; 1

00001fe0 <.Loc.293>:
    1fe0:	8e 01       	movw	r16, r28
    1fe2:	05 55       	subi	r16, 0x55	; 85
    1fe4:	1f 4f       	sbci	r17, 0xFF	; 255
    1fe6:	cf 5c       	subi	r28, 0xCF	; 207
    1fe8:	de 4f       	sbci	r29, 0xFE	; 254
    1fea:	68 81       	ld	r22, Y
    1fec:	79 81       	ldd	r23, Y+1	; 0x01
    1fee:	8a 81       	ldd	r24, Y+2	; 0x02
    1ff0:	9b 81       	ldd	r25, Y+3	; 0x03
    1ff2:	c1 53       	subi	r28, 0x31	; 49
    1ff4:	d1 40       	sbci	r29, 0x01	; 1
    1ff6:	0e 94 c6 17 	call	0x2f8c	; 0x2f8c <__fixunssfsi>
    1ffa:	cb 5f       	subi	r28, 0xFB	; 251
    1ffc:	dd 4f       	sbci	r29, 0xFD	; 253
    1ffe:	68 83       	st	Y, r22
    2000:	79 83       	std	Y+1, r23	; 0x01
    2002:	8a 83       	std	Y+2, r24	; 0x02
    2004:	9b 83       	std	Y+3, r25	; 0x03
    2006:	c5 50       	subi	r28, 0x05	; 5
    2008:	d2 40       	sbci	r29, 0x02	; 2
    200a:	cb 5f       	subi	r28, 0xFB	; 251
    200c:	dd 4f       	sbci	r29, 0xFD	; 253
    200e:	e8 81       	ld	r30, Y
    2010:	f9 81       	ldd	r31, Y+1	; 0x01
    2012:	c5 50       	subi	r28, 0x05	; 5
    2014:	d2 40       	sbci	r29, 0x02	; 2
    2016:	d8 01       	movw	r26, r16
    2018:	11 96       	adiw	r26, 0x01	; 1
    201a:	fc 93       	st	X, r31
    201c:	ee 93       	st	-X, r30

0000201e <.Loc.294>:
		while(__ticks)
    201e:	26 c0       	rjmp	.+76     	; 0x206c <.L115>

00002020 <.L116>:
    2020:	ce 01       	movw	r24, r28
    2022:	83 55       	subi	r24, 0x53	; 83
    2024:	9f 4f       	sbci	r25, 0xFF	; 255
    2026:	20 e9       	ldi	r18, 0x90	; 144
    2028:	31 e0       	ldi	r19, 0x01	; 1
    202a:	dc 01       	movw	r26, r24
    202c:	2d 93       	st	X+, r18
    202e:	3c 93       	st	X, r19

00002030 <.LBB186>:
    2030:	ce 01       	movw	r24, r28
    2032:	83 55       	subi	r24, 0x53	; 83
    2034:	9f 4f       	sbci	r25, 0xFF	; 255
    2036:	fc 01       	movw	r30, r24
    2038:	80 81       	ld	r24, Z
    203a:	91 81       	ldd	r25, Z+1	; 0x01

0000203c <.L1^B23>:
    203c:	01 97       	sbiw	r24, 0x01	; 1
    203e:	f1 f7       	brne	.-4      	; 0x203c <.L1^B23>
    2040:	9e 01       	movw	r18, r28
    2042:	23 55       	subi	r18, 0x53	; 83
    2044:	3f 4f       	sbci	r19, 0xFF	; 255
    2046:	d9 01       	movw	r26, r18
    2048:	8d 93       	st	X+, r24
    204a:	9c 93       	st	X, r25

0000204c <.Loc.296>:
	...

0000204e <.LBE186>:
			__ticks --;
    204e:	ce 01       	movw	r24, r28
    2050:	85 55       	subi	r24, 0x55	; 85
    2052:	9f 4f       	sbci	r25, 0xFF	; 255
    2054:	9e 01       	movw	r18, r28
    2056:	25 55       	subi	r18, 0x55	; 85
    2058:	3f 4f       	sbci	r19, 0xFF	; 255
    205a:	f9 01       	movw	r30, r18
    205c:	20 81       	ld	r18, Z
    205e:	31 81       	ldd	r19, Z+1	; 0x01
    2060:	21 50       	subi	r18, 0x01	; 1
    2062:	31 09       	sbc	r19, r1
    2064:	dc 01       	movw	r26, r24
    2066:	11 96       	adiw	r26, 0x01	; 1
    2068:	3c 93       	st	X, r19
    206a:	2e 93       	st	-X, r18

0000206c <.L115>:
		while(__ticks)
    206c:	ce 01       	movw	r24, r28
    206e:	85 55       	subi	r24, 0x55	; 85
    2070:	9f 4f       	sbci	r25, 0xFF	; 255
    2072:	fc 01       	movw	r30, r24
    2074:	80 81       	ld	r24, Z
    2076:	91 81       	ldd	r25, Z+1	; 0x01
    2078:	00 97       	sbiw	r24, 0x00	; 0
    207a:	91 f6       	brne	.-92     	; 0x2020 <.L116>

0000207c <.Loc.299>:
		return;
    207c:	3a c0       	rjmp	.+116    	; 0x20f2 <.L117>

0000207e <.L237>:
		__ticks = (uint16_t)__tmp;
    207e:	8e 01       	movw	r16, r28
    2080:	05 55       	subi	r16, 0x55	; 85
    2082:	1f 4f       	sbci	r17, 0xFF	; 255
    2084:	ce 01       	movw	r24, r28
    2086:	89 55       	subi	r24, 0x59	; 89
    2088:	9f 4f       	sbci	r25, 0xFF	; 255
    208a:	dc 01       	movw	r26, r24
    208c:	6d 91       	ld	r22, X+
    208e:	7d 91       	ld	r23, X+
    2090:	8d 91       	ld	r24, X+
    2092:	9c 91       	ld	r25, X
    2094:	0e 94 c6 17 	call	0x2f8c	; 0x2f8c <__fixunssfsi>
    2098:	c7 5f       	subi	r28, 0xF7	; 247
    209a:	dd 4f       	sbci	r29, 0xFD	; 253
    209c:	68 83       	st	Y, r22
    209e:	79 83       	std	Y+1, r23	; 0x01
    20a0:	8a 83       	std	Y+2, r24	; 0x02
    20a2:	9b 83       	std	Y+3, r25	; 0x03
    20a4:	c9 50       	subi	r28, 0x09	; 9
    20a6:	d2 40       	sbci	r29, 0x02	; 2
    20a8:	c7 5f       	subi	r28, 0xF7	; 247
    20aa:	dd 4f       	sbci	r29, 0xFD	; 253
    20ac:	88 81       	ld	r24, Y
    20ae:	99 81       	ldd	r25, Y+1	; 0x01
    20b0:	c9 50       	subi	r28, 0x09	; 9
    20b2:	d2 40       	sbci	r29, 0x02	; 2
    20b4:	f8 01       	movw	r30, r16
    20b6:	91 83       	std	Z+1, r25	; 0x01
    20b8:	80 83       	st	Z, r24

000020ba <.L112>:
    20ba:	ce 01       	movw	r24, r28
    20bc:	81 55       	subi	r24, 0x51	; 81
    20be:	9f 4f       	sbci	r25, 0xFF	; 255
    20c0:	9e 01       	movw	r18, r28
    20c2:	25 55       	subi	r18, 0x55	; 85
    20c4:	3f 4f       	sbci	r19, 0xFF	; 255
    20c6:	d9 01       	movw	r26, r18
    20c8:	2d 91       	ld	r18, X+
    20ca:	3c 91       	ld	r19, X
    20cc:	fc 01       	movw	r30, r24
    20ce:	31 83       	std	Z+1, r19	; 0x01
    20d0:	20 83       	st	Z, r18

000020d2 <.LBB188>:
    20d2:	ce 01       	movw	r24, r28
    20d4:	81 55       	subi	r24, 0x51	; 81
    20d6:	9f 4f       	sbci	r25, 0xFF	; 255
    20d8:	dc 01       	movw	r26, r24
    20da:	8d 91       	ld	r24, X+
    20dc:	9c 91       	ld	r25, X
    20de:	11 97       	sbiw	r26, 0x01	; 1

000020e0 <.L1^B24>:
    20e0:	01 97       	sbiw	r24, 0x01	; 1
    20e2:	f1 f7       	brne	.-4      	; 0x20e0 <.L1^B24>
    20e4:	9e 01       	movw	r18, r28
    20e6:	21 55       	subi	r18, 0x51	; 81
    20e8:	3f 4f       	sbci	r19, 0xFF	; 255
    20ea:	f9 01       	movw	r30, r18
    20ec:	91 83       	std	Z+1, r25	; 0x01
    20ee:	80 83       	st	Z, r24

000020f0 <.Loc.302>:
	...

000020f2 <.L117>:
                {
                    DEBOUNCE;
                    rotatiey++;                     // optellen van rotaties y-as //
    20f2:	80 91 06 02 	lds	r24, 0x0206	; 0x800206 <rotatiey.2>
    20f6:	90 91 07 02 	lds	r25, 0x0207	; 0x800207 <rotatiey.2+0x1>
    20fa:	01 96       	adiw	r24, 0x01	; 1
    20fc:	90 93 07 02 	sts	0x0207, r25	; 0x800207 <rotatiey.2+0x1>
    2100:	80 93 06 02 	sts	0x0206, r24	; 0x800206 <rotatiey.2>

00002104 <.L101>:
                    ///PORTB ^= (1<<PB5);
                }
            }
            if (tellerx == rotatiex)                // rotaties met coordinaten vergelijken van de x-as //
    2104:	20 91 00 02 	lds	r18, 0x0200	; 0x800200 <tellerx.5>
    2108:	30 91 01 02 	lds	r19, 0x0201	; 0x800201 <tellerx.5+0x1>
    210c:	80 91 04 02 	lds	r24, 0x0204	; 0x800204 <rotatiex.3>
    2110:	90 91 05 02 	lds	r25, 0x0205	; 0x800205 <rotatiex.3+0x1>

00002114 <.Loc.305>:
    2114:	28 17       	cp	r18, r24
    2116:	39 07       	cpc	r19, r25
    2118:	19 f4       	brne	.+6      	; 0x2120 <.L118>

0000211a <.Loc.306>:
            {
                h_bridge_set_percentage(0);         // h brug van de x-as uit //
    211a:	80 e0       	ldi	r24, 0x00	; 0
    211c:	0e 94 96 01 	call	0x32c	; 0x32c <h_bridge_set_percentage>

00002120 <.L118>:
            }
            if (tellery == rotatiey)                // rotaties met coordinaten vergalijken van de y-as //
    2120:	20 91 02 02 	lds	r18, 0x0202	; 0x800202 <tellery.4>
    2124:	30 91 03 02 	lds	r19, 0x0203	; 0x800203 <tellery.4+0x1>
    2128:	80 91 06 02 	lds	r24, 0x0206	; 0x800206 <rotatiey.2>
    212c:	90 91 07 02 	lds	r25, 0x0207	; 0x800207 <rotatiey.2+0x1>

00002130 <.Loc.308>:
    2130:	28 17       	cp	r18, r24
    2132:	39 07       	cpc	r19, r25
    2134:	21 f4       	brne	.+8      	; 0x213e <.L119>

00002136 <.Loc.309>:
            {
                h_bridge_set_percentage2(0);        // h brug van de y-as uit //
    2136:	80 e0       	ldi	r24, 0x00	; 0
    2138:	90 e0       	ldi	r25, 0x00	; 0
    213a:	0e 94 ee 02 	call	0x5dc	; 0x5dc <h_bridge_set_percentage2>

0000213e <.L119>:
            }
            if (rotatiex == 2)                      // limit switch wordt niet geregistreerd wanneer die ingedrukt wordt gehouden x-as //
    213e:	80 91 04 02 	lds	r24, 0x0204	; 0x800204 <rotatiex.3>
    2142:	90 91 05 02 	lds	r25, 0x0205	; 0x800205 <rotatiex.3+0x1>

00002146 <.Loc.311>:
    2146:	82 30       	cpi	r24, 0x02	; 2
    2148:	91 05       	cpc	r25, r1
    214a:	11 f4       	brne	.+4      	; 0x2150 <.L120>

0000214c <.Loc.312>:
            {
                knop_ingedruktx = 0;
    214c:	1a 82       	std	Y+2, r1	; 0x02
    214e:	19 82       	std	Y+1, r1	; 0x01

00002150 <.L120>:
            }
            if (rotatiey == 2)                      // limit switch wordt niet geregistreerd wanneer die ingedrukt wordt gehouden y-as //
    2150:	80 91 06 02 	lds	r24, 0x0206	; 0x800206 <rotatiey.2>
    2154:	90 91 07 02 	lds	r25, 0x0207	; 0x800207 <rotatiey.2+0x1>

00002158 <.Loc.314>:
    2158:	82 30       	cpi	r24, 0x02	; 2
    215a:	91 05       	cpc	r25, r1
    215c:	11 f4       	brne	.+4      	; 0x2162 <.L121>

0000215e <.Loc.315>:
            {
                knop_ingedrukty = 0;
    215e:	1c 82       	std	Y+4, r1	; 0x04
    2160:	1b 82       	std	Y+3, r1	; 0x03

00002162 <.L121>:
            }
            if ((PINK & (1<<PK0)) && knop_ingedruktx == 0)   // limit switch zet de h brug op de x-as uit //
    2162:	86 e0       	ldi	r24, 0x06	; 6
    2164:	91 e0       	ldi	r25, 0x01	; 1
    2166:	dc 01       	movw	r26, r24
    2168:	8c 91       	ld	r24, X

0000216a <.Loc.317>:
    216a:	88 2f       	mov	r24, r24
    216c:	90 e0       	ldi	r25, 0x00	; 0
    216e:	81 70       	andi	r24, 0x01	; 1
    2170:	99 27       	eor	r25, r25

00002172 <.Loc.318>:
    2172:	00 97       	sbiw	r24, 0x00	; 0
    2174:	09 f4       	brne	.+2      	; 0x2178 <.Loc.319>

00002176 <L0^A>:
    2176:	17 c1       	rjmp	.+558    	; 0x23a6 <.L122>

00002178 <.Loc.319>:
    2178:	89 81       	ldd	r24, Y+1	; 0x01
    217a:	9a 81       	ldd	r25, Y+2	; 0x02
    217c:	00 97       	sbiw	r24, 0x00	; 0
    217e:	09 f0       	breq	.+2      	; 0x2182 <L0^A+0x2>

00002180 <L0^A>:
    2180:	12 c1       	rjmp	.+548    	; 0x23a6 <.L122>
    2182:	9e 01       	movw	r18, r28
    2184:	2f 54       	subi	r18, 0x4F	; 79
    2186:	3f 4f       	sbci	r19, 0xFF	; 255
    2188:	80 e0       	ldi	r24, 0x00	; 0
    218a:	90 e0       	ldi	r25, 0x00	; 0
    218c:	a8 e4       	ldi	r26, 0x48	; 72
    218e:	b2 e4       	ldi	r27, 0x42	; 66
    2190:	f9 01       	movw	r30, r18
    2192:	80 83       	st	Z, r24
    2194:	91 83       	std	Z+1, r25	; 0x01
    2196:	a2 83       	std	Z+2, r26	; 0x02
    2198:	b3 83       	std	Z+3, r27	; 0x03

0000219a <.LBB190>:
	__tmp = ((F_CPU) / 4e3) * __ms;
    219a:	8e 01       	movw	r16, r28
    219c:	0b 54       	subi	r16, 0x4B	; 75
    219e:	1f 4f       	sbci	r17, 0xFF	; 255
    21a0:	ce 01       	movw	r24, r28
    21a2:	8f 54       	subi	r24, 0x4F	; 79
    21a4:	9f 4f       	sbci	r25, 0xFF	; 255
    21a6:	20 e0       	ldi	r18, 0x00	; 0
    21a8:	30 e0       	ldi	r19, 0x00	; 0
    21aa:	4a e7       	ldi	r20, 0x7A	; 122
    21ac:	55 e4       	ldi	r21, 0x45	; 69
    21ae:	dc 01       	movw	r26, r24
    21b0:	6d 91       	ld	r22, X+
    21b2:	7d 91       	ld	r23, X+
    21b4:	8d 91       	ld	r24, X+
    21b6:	9c 91       	ld	r25, X
    21b8:	0e 94 47 18 	call	0x308e	; 0x308e <__mulsf3>
    21bc:	c3 5f       	subi	r28, 0xF3	; 243
    21be:	dd 4f       	sbci	r29, 0xFD	; 253
    21c0:	68 83       	st	Y, r22
    21c2:	79 83       	std	Y+1, r23	; 0x01
    21c4:	8a 83       	std	Y+2, r24	; 0x02
    21c6:	9b 83       	std	Y+3, r25	; 0x03
    21c8:	cd 50       	subi	r28, 0x0D	; 13
    21ca:	d2 40       	sbci	r29, 0x02	; 2
    21cc:	c3 5f       	subi	r28, 0xF3	; 243
    21ce:	dd 4f       	sbci	r29, 0xFD	; 253
    21d0:	88 81       	ld	r24, Y
    21d2:	99 81       	ldd	r25, Y+1	; 0x01
    21d4:	aa 81       	ldd	r26, Y+2	; 0x02
    21d6:	bb 81       	ldd	r27, Y+3	; 0x03
    21d8:	cd 50       	subi	r28, 0x0D	; 13
    21da:	d2 40       	sbci	r29, 0x02	; 2
    21dc:	f8 01       	movw	r30, r16
    21de:	80 83       	st	Z, r24
    21e0:	91 83       	std	Z+1, r25	; 0x01
    21e2:	a2 83       	std	Z+2, r26	; 0x02
    21e4:	b3 83       	std	Z+3, r27	; 0x03

000021e6 <.Loc.321>:
	if (__tmp < 1.0)
    21e6:	ce 01       	movw	r24, r28
    21e8:	8b 54       	subi	r24, 0x4B	; 75
    21ea:	9f 4f       	sbci	r25, 0xFF	; 255
    21ec:	20 e0       	ldi	r18, 0x00	; 0
    21ee:	30 e0       	ldi	r19, 0x00	; 0
    21f0:	40 e8       	ldi	r20, 0x80	; 128
    21f2:	5f e3       	ldi	r21, 0x3F	; 63
    21f4:	dc 01       	movw	r26, r24
    21f6:	6d 91       	ld	r22, X+
    21f8:	7d 91       	ld	r23, X+
    21fa:	8d 91       	ld	r24, X+
    21fc:	9c 91       	ld	r25, X
    21fe:	0e 94 c1 17 	call	0x2f82	; 0x2f82 <__cmpsf2>
    2202:	88 23       	and	r24, r24
    2204:	4c f4       	brge	.+18     	; 0x2218 <.L238>

00002206 <.Loc.322>:
		__ticks = 1;
    2206:	ce 01       	movw	r24, r28
    2208:	87 54       	subi	r24, 0x47	; 71
    220a:	9f 4f       	sbci	r25, 0xFF	; 255
    220c:	21 e0       	ldi	r18, 0x01	; 1
    220e:	30 e0       	ldi	r19, 0x00	; 0
    2210:	fc 01       	movw	r30, r24
    2212:	31 83       	std	Z+1, r19	; 0x01
    2214:	20 83       	st	Z, r18
    2216:	a5 c0       	rjmp	.+330    	; 0x2362 <.L125>

00002218 <.L238>:
	else if (__tmp > 65535)
    2218:	ce 01       	movw	r24, r28
    221a:	8b 54       	subi	r24, 0x4B	; 75
    221c:	9f 4f       	sbci	r25, 0xFF	; 255
    221e:	20 e0       	ldi	r18, 0x00	; 0
    2220:	3f ef       	ldi	r19, 0xFF	; 255
    2222:	4f e7       	ldi	r20, 0x7F	; 127
    2224:	57 e4       	ldi	r21, 0x47	; 71
    2226:	dc 01       	movw	r26, r24
    2228:	6d 91       	ld	r22, X+
    222a:	7d 91       	ld	r23, X+
    222c:	8d 91       	ld	r24, X+
    222e:	9c 91       	ld	r25, X
    2230:	0e 94 42 18 	call	0x3084	; 0x3084 <__gesf2>
    2234:	88 23       	and	r24, r24
    2236:	09 f0       	breq	.+2      	; 0x223a <L0^A>

00002238 <L0^A>:
    2238:	0c f4       	brge	.+2      	; 0x223c <.Loc.324>

0000223a <L0^A>:
    223a:	75 c0       	rjmp	.+234    	; 0x2326 <.L239>

0000223c <.Loc.324>:
		__ticks = (uint16_t) (__ms * 10.0);
    223c:	ce 01       	movw	r24, r28
    223e:	8f 54       	subi	r24, 0x4F	; 79
    2240:	9f 4f       	sbci	r25, 0xFF	; 255
    2242:	20 e0       	ldi	r18, 0x00	; 0
    2244:	30 e0       	ldi	r19, 0x00	; 0
    2246:	40 e2       	ldi	r20, 0x20	; 32
    2248:	51 e4       	ldi	r21, 0x41	; 65
    224a:	fc 01       	movw	r30, r24
    224c:	60 81       	ld	r22, Z
    224e:	71 81       	ldd	r23, Z+1	; 0x01
    2250:	82 81       	ldd	r24, Z+2	; 0x02
    2252:	93 81       	ldd	r25, Z+3	; 0x03
    2254:	0e 94 47 18 	call	0x308e	; 0x308e <__mulsf3>
    2258:	cf 5e       	subi	r28, 0xEF	; 239
    225a:	dd 4f       	sbci	r29, 0xFD	; 253
    225c:	68 83       	st	Y, r22
    225e:	79 83       	std	Y+1, r23	; 0x01
    2260:	8a 83       	std	Y+2, r24	; 0x02
    2262:	9b 83       	std	Y+3, r25	; 0x03
    2264:	c1 51       	subi	r28, 0x11	; 17
    2266:	d2 40       	sbci	r29, 0x02	; 2
    2268:	cf 5e       	subi	r28, 0xEF	; 239
    226a:	dd 4f       	sbci	r29, 0xFD	; 253
    226c:	88 81       	ld	r24, Y
    226e:	99 81       	ldd	r25, Y+1	; 0x01
    2270:	aa 81       	ldd	r26, Y+2	; 0x02
    2272:	bb 81       	ldd	r27, Y+3	; 0x03
    2274:	c1 51       	subi	r28, 0x11	; 17
    2276:	d2 40       	sbci	r29, 0x02	; 2
    2278:	cb 5c       	subi	r28, 0xCB	; 203
    227a:	de 4f       	sbci	r29, 0xFE	; 254
    227c:	88 83       	st	Y, r24
    227e:	99 83       	std	Y+1, r25	; 0x01
    2280:	aa 83       	std	Y+2, r26	; 0x02
    2282:	bb 83       	std	Y+3, r27	; 0x03
    2284:	c5 53       	subi	r28, 0x35	; 53
    2286:	d1 40       	sbci	r29, 0x01	; 1

00002288 <.Loc.325>:
    2288:	8e 01       	movw	r16, r28
    228a:	07 54       	subi	r16, 0x47	; 71
    228c:	1f 4f       	sbci	r17, 0xFF	; 255
    228e:	cb 5c       	subi	r28, 0xCB	; 203
    2290:	de 4f       	sbci	r29, 0xFE	; 254
    2292:	68 81       	ld	r22, Y
    2294:	79 81       	ldd	r23, Y+1	; 0x01
    2296:	8a 81       	ldd	r24, Y+2	; 0x02
    2298:	9b 81       	ldd	r25, Y+3	; 0x03
    229a:	c5 53       	subi	r28, 0x35	; 53
    229c:	d1 40       	sbci	r29, 0x01	; 1
    229e:	0e 94 c6 17 	call	0x2f8c	; 0x2f8c <__fixunssfsi>
    22a2:	cb 5e       	subi	r28, 0xEB	; 235
    22a4:	dd 4f       	sbci	r29, 0xFD	; 253
    22a6:	68 83       	st	Y, r22
    22a8:	79 83       	std	Y+1, r23	; 0x01
    22aa:	8a 83       	std	Y+2, r24	; 0x02
    22ac:	9b 83       	std	Y+3, r25	; 0x03
    22ae:	c5 51       	subi	r28, 0x15	; 21
    22b0:	d2 40       	sbci	r29, 0x02	; 2
    22b2:	cb 5e       	subi	r28, 0xEB	; 235
    22b4:	dd 4f       	sbci	r29, 0xFD	; 253
    22b6:	e8 81       	ld	r30, Y
    22b8:	f9 81       	ldd	r31, Y+1	; 0x01
    22ba:	c5 51       	subi	r28, 0x15	; 21
    22bc:	d2 40       	sbci	r29, 0x02	; 2
    22be:	d8 01       	movw	r26, r16
    22c0:	11 96       	adiw	r26, 0x01	; 1
    22c2:	fc 93       	st	X, r31
    22c4:	ee 93       	st	-X, r30

000022c6 <.Loc.326>:
		while(__ticks)
    22c6:	26 c0       	rjmp	.+76     	; 0x2314 <.L128>

000022c8 <.L129>:
    22c8:	ce 01       	movw	r24, r28
    22ca:	85 54       	subi	r24, 0x45	; 69
    22cc:	9f 4f       	sbci	r25, 0xFF	; 255
    22ce:	20 e9       	ldi	r18, 0x90	; 144
    22d0:	31 e0       	ldi	r19, 0x01	; 1
    22d2:	dc 01       	movw	r26, r24
    22d4:	2d 93       	st	X+, r18
    22d6:	3c 93       	st	X, r19

000022d8 <.LBB192>:
    22d8:	ce 01       	movw	r24, r28
    22da:	85 54       	subi	r24, 0x45	; 69
    22dc:	9f 4f       	sbci	r25, 0xFF	; 255
    22de:	fc 01       	movw	r30, r24
    22e0:	80 81       	ld	r24, Z
    22e2:	91 81       	ldd	r25, Z+1	; 0x01

000022e4 <.L1^B25>:
    22e4:	01 97       	sbiw	r24, 0x01	; 1
    22e6:	f1 f7       	brne	.-4      	; 0x22e4 <.L1^B25>
    22e8:	9e 01       	movw	r18, r28
    22ea:	25 54       	subi	r18, 0x45	; 69
    22ec:	3f 4f       	sbci	r19, 0xFF	; 255
    22ee:	d9 01       	movw	r26, r18
    22f0:	8d 93       	st	X+, r24
    22f2:	9c 93       	st	X, r25

000022f4 <.Loc.328>:
	...

000022f6 <.LBE192>:
			__ticks --;
    22f6:	ce 01       	movw	r24, r28
    22f8:	87 54       	subi	r24, 0x47	; 71
    22fa:	9f 4f       	sbci	r25, 0xFF	; 255
    22fc:	9e 01       	movw	r18, r28
    22fe:	27 54       	subi	r18, 0x47	; 71
    2300:	3f 4f       	sbci	r19, 0xFF	; 255
    2302:	f9 01       	movw	r30, r18
    2304:	20 81       	ld	r18, Z
    2306:	31 81       	ldd	r19, Z+1	; 0x01
    2308:	21 50       	subi	r18, 0x01	; 1
    230a:	31 09       	sbc	r19, r1
    230c:	dc 01       	movw	r26, r24
    230e:	11 96       	adiw	r26, 0x01	; 1
    2310:	3c 93       	st	X, r19
    2312:	2e 93       	st	-X, r18

00002314 <.L128>:
		while(__ticks)
    2314:	ce 01       	movw	r24, r28
    2316:	87 54       	subi	r24, 0x47	; 71
    2318:	9f 4f       	sbci	r25, 0xFF	; 255
    231a:	fc 01       	movw	r30, r24
    231c:	80 81       	ld	r24, Z
    231e:	91 81       	ldd	r25, Z+1	; 0x01
    2320:	00 97       	sbiw	r24, 0x00	; 0
    2322:	91 f6       	brne	.-92     	; 0x22c8 <.L129>

00002324 <.Loc.331>:
		return;
    2324:	39 c0       	rjmp	.+114    	; 0x2398 <.L130>

00002326 <.L239>:
		__ticks = (uint16_t)__tmp;
    2326:	8e 01       	movw	r16, r28
    2328:	07 54       	subi	r16, 0x47	; 71
    232a:	1f 4f       	sbci	r17, 0xFF	; 255
    232c:	ce 01       	movw	r24, r28
    232e:	8b 54       	subi	r24, 0x4B	; 75
    2330:	9f 4f       	sbci	r25, 0xFF	; 255
    2332:	dc 01       	movw	r26, r24
    2334:	6d 91       	ld	r22, X+
    2336:	7d 91       	ld	r23, X+
    2338:	8d 91       	ld	r24, X+
    233a:	9c 91       	ld	r25, X
    233c:	0e 94 c6 17 	call	0x2f8c	; 0x2f8c <__fixunssfsi>
    2340:	c7 5e       	subi	r28, 0xE7	; 231
    2342:	dd 4f       	sbci	r29, 0xFD	; 253
    2344:	68 83       	st	Y, r22
    2346:	79 83       	std	Y+1, r23	; 0x01
    2348:	8a 83       	std	Y+2, r24	; 0x02
    234a:	9b 83       	std	Y+3, r25	; 0x03
    234c:	c9 51       	subi	r28, 0x19	; 25
    234e:	d2 40       	sbci	r29, 0x02	; 2
    2350:	c7 5e       	subi	r28, 0xE7	; 231
    2352:	dd 4f       	sbci	r29, 0xFD	; 253
    2354:	88 81       	ld	r24, Y
    2356:	99 81       	ldd	r25, Y+1	; 0x01
    2358:	c9 51       	subi	r28, 0x19	; 25
    235a:	d2 40       	sbci	r29, 0x02	; 2
    235c:	f8 01       	movw	r30, r16
    235e:	91 83       	std	Z+1, r25	; 0x01
    2360:	80 83       	st	Z, r24

00002362 <.L125>:
    2362:	ce 01       	movw	r24, r28
    2364:	83 54       	subi	r24, 0x43	; 67
    2366:	9f 4f       	sbci	r25, 0xFF	; 255
    2368:	9e 01       	movw	r18, r28
    236a:	27 54       	subi	r18, 0x47	; 71
    236c:	3f 4f       	sbci	r19, 0xFF	; 255
    236e:	d9 01       	movw	r26, r18
    2370:	2d 91       	ld	r18, X+
    2372:	3c 91       	ld	r19, X
    2374:	fc 01       	movw	r30, r24
    2376:	31 83       	std	Z+1, r19	; 0x01
    2378:	20 83       	st	Z, r18

0000237a <.LBB194>:
    237a:	ce 01       	movw	r24, r28
    237c:	83 54       	subi	r24, 0x43	; 67
    237e:	9f 4f       	sbci	r25, 0xFF	; 255
    2380:	dc 01       	movw	r26, r24
    2382:	8d 91       	ld	r24, X+
    2384:	9c 91       	ld	r25, X

00002386 <.L1^B26>:
    2386:	01 97       	sbiw	r24, 0x01	; 1
    2388:	f1 f7       	brne	.-4      	; 0x2386 <.L1^B26>
    238a:	9e 01       	movw	r18, r28
    238c:	23 54       	subi	r18, 0x43	; 67
    238e:	3f 4f       	sbci	r19, 0xFF	; 255
    2390:	f9 01       	movw	r30, r18
    2392:	91 83       	std	Z+1, r25	; 0x01
    2394:	80 83       	st	Z, r24

00002396 <.Loc.334>:
	...

00002398 <.L130>:
            {
                DEBOUNCE;
                h_bridge_set_percentage(0);         // h brug uit na limit switch x-as //
    2398:	80 e0       	ldi	r24, 0x00	; 0
    239a:	0e 94 96 01 	call	0x32c	; 0x32c <h_bridge_set_percentage>

0000239e <.Loc.336>:
                knop_ingedruktx = 1;
    239e:	81 e0       	ldi	r24, 0x01	; 1
    23a0:	90 e0       	ldi	r25, 0x00	; 0
    23a2:	9a 83       	std	Y+2, r25	; 0x02
    23a4:	89 83       	std	Y+1, r24	; 0x01

000023a6 <.L122>:
            }
            if ((PINK & (1<<PK1)) && knop_ingedrukty == 0)   // limit switch zet de h brug op de y-as uit //
    23a6:	86 e0       	ldi	r24, 0x06	; 6
    23a8:	91 e0       	ldi	r25, 0x01	; 1
    23aa:	dc 01       	movw	r26, r24
    23ac:	8c 91       	ld	r24, X

000023ae <.Loc.338>:
    23ae:	88 2f       	mov	r24, r24
    23b0:	90 e0       	ldi	r25, 0x00	; 0
    23b2:	82 70       	andi	r24, 0x02	; 2
    23b4:	99 27       	eor	r25, r25

000023b6 <.Loc.339>:
    23b6:	00 97       	sbiw	r24, 0x00	; 0
    23b8:	09 f4       	brne	.+2      	; 0x23bc <.Loc.340>

000023ba <L0^A>:
    23ba:	18 c1       	rjmp	.+560    	; 0x25ec <.L131>

000023bc <.Loc.340>:
    23bc:	8b 81       	ldd	r24, Y+3	; 0x03
    23be:	9c 81       	ldd	r25, Y+4	; 0x04
    23c0:	00 97       	sbiw	r24, 0x00	; 0
    23c2:	09 f0       	breq	.+2      	; 0x23c6 <L0^A+0x2>

000023c4 <L0^A>:
    23c4:	13 c1       	rjmp	.+550    	; 0x25ec <.L131>
    23c6:	9e 01       	movw	r18, r28
    23c8:	21 54       	subi	r18, 0x41	; 65
    23ca:	3f 4f       	sbci	r19, 0xFF	; 255
    23cc:	80 e0       	ldi	r24, 0x00	; 0
    23ce:	90 e0       	ldi	r25, 0x00	; 0
    23d0:	a8 e4       	ldi	r26, 0x48	; 72
    23d2:	b2 e4       	ldi	r27, 0x42	; 66
    23d4:	f9 01       	movw	r30, r18
    23d6:	80 83       	st	Z, r24
    23d8:	91 83       	std	Z+1, r25	; 0x01
    23da:	a2 83       	std	Z+2, r26	; 0x02
    23dc:	b3 83       	std	Z+3, r27	; 0x03

000023de <.LBB196>:
	__tmp = ((F_CPU) / 4e3) * __ms;
    23de:	8e 01       	movw	r16, r28
    23e0:	0d 53       	subi	r16, 0x3D	; 61
    23e2:	1f 4f       	sbci	r17, 0xFF	; 255
    23e4:	ce 01       	movw	r24, r28
    23e6:	81 54       	subi	r24, 0x41	; 65
    23e8:	9f 4f       	sbci	r25, 0xFF	; 255
    23ea:	20 e0       	ldi	r18, 0x00	; 0
    23ec:	30 e0       	ldi	r19, 0x00	; 0
    23ee:	4a e7       	ldi	r20, 0x7A	; 122
    23f0:	55 e4       	ldi	r21, 0x45	; 69
    23f2:	dc 01       	movw	r26, r24
    23f4:	6d 91       	ld	r22, X+
    23f6:	7d 91       	ld	r23, X+
    23f8:	8d 91       	ld	r24, X+
    23fa:	9c 91       	ld	r25, X
    23fc:	0e 94 47 18 	call	0x308e	; 0x308e <__mulsf3>
    2400:	c3 5e       	subi	r28, 0xE3	; 227
    2402:	dd 4f       	sbci	r29, 0xFD	; 253
    2404:	68 83       	st	Y, r22
    2406:	79 83       	std	Y+1, r23	; 0x01
    2408:	8a 83       	std	Y+2, r24	; 0x02
    240a:	9b 83       	std	Y+3, r25	; 0x03
    240c:	cd 51       	subi	r28, 0x1D	; 29
    240e:	d2 40       	sbci	r29, 0x02	; 2
    2410:	c3 5e       	subi	r28, 0xE3	; 227
    2412:	dd 4f       	sbci	r29, 0xFD	; 253
    2414:	88 81       	ld	r24, Y
    2416:	99 81       	ldd	r25, Y+1	; 0x01
    2418:	aa 81       	ldd	r26, Y+2	; 0x02
    241a:	bb 81       	ldd	r27, Y+3	; 0x03
    241c:	cd 51       	subi	r28, 0x1D	; 29
    241e:	d2 40       	sbci	r29, 0x02	; 2
    2420:	f8 01       	movw	r30, r16
    2422:	80 83       	st	Z, r24
    2424:	91 83       	std	Z+1, r25	; 0x01
    2426:	a2 83       	std	Z+2, r26	; 0x02
    2428:	b3 83       	std	Z+3, r27	; 0x03

0000242a <.Loc.342>:
	if (__tmp < 1.0)
    242a:	ce 01       	movw	r24, r28
    242c:	8d 53       	subi	r24, 0x3D	; 61
    242e:	9f 4f       	sbci	r25, 0xFF	; 255
    2430:	20 e0       	ldi	r18, 0x00	; 0
    2432:	30 e0       	ldi	r19, 0x00	; 0
    2434:	40 e8       	ldi	r20, 0x80	; 128
    2436:	5f e3       	ldi	r21, 0x3F	; 63
    2438:	dc 01       	movw	r26, r24
    243a:	6d 91       	ld	r22, X+
    243c:	7d 91       	ld	r23, X+
    243e:	8d 91       	ld	r24, X+
    2440:	9c 91       	ld	r25, X
    2442:	0e 94 c1 17 	call	0x2f82	; 0x2f82 <__cmpsf2>
    2446:	88 23       	and	r24, r24
    2448:	4c f4       	brge	.+18     	; 0x245c <.L240>

0000244a <.Loc.343>:
		__ticks = 1;
    244a:	ce 01       	movw	r24, r28
    244c:	89 53       	subi	r24, 0x39	; 57
    244e:	9f 4f       	sbci	r25, 0xFF	; 255
    2450:	21 e0       	ldi	r18, 0x01	; 1
    2452:	30 e0       	ldi	r19, 0x00	; 0
    2454:	fc 01       	movw	r30, r24
    2456:	31 83       	std	Z+1, r19	; 0x01
    2458:	20 83       	st	Z, r18
    245a:	a5 c0       	rjmp	.+330    	; 0x25a6 <.L134>

0000245c <.L240>:
	else if (__tmp > 65535)
    245c:	ce 01       	movw	r24, r28
    245e:	8d 53       	subi	r24, 0x3D	; 61
    2460:	9f 4f       	sbci	r25, 0xFF	; 255
    2462:	20 e0       	ldi	r18, 0x00	; 0
    2464:	3f ef       	ldi	r19, 0xFF	; 255
    2466:	4f e7       	ldi	r20, 0x7F	; 127
    2468:	57 e4       	ldi	r21, 0x47	; 71
    246a:	dc 01       	movw	r26, r24
    246c:	6d 91       	ld	r22, X+
    246e:	7d 91       	ld	r23, X+
    2470:	8d 91       	ld	r24, X+
    2472:	9c 91       	ld	r25, X
    2474:	0e 94 42 18 	call	0x3084	; 0x3084 <__gesf2>
    2478:	88 23       	and	r24, r24
    247a:	09 f0       	breq	.+2      	; 0x247e <L0^A>

0000247c <L0^A>:
    247c:	0c f4       	brge	.+2      	; 0x2480 <.Loc.345>

0000247e <L0^A>:
    247e:	75 c0       	rjmp	.+234    	; 0x256a <.L241>

00002480 <.Loc.345>:
		__ticks = (uint16_t) (__ms * 10.0);
    2480:	ce 01       	movw	r24, r28
    2482:	81 54       	subi	r24, 0x41	; 65
    2484:	9f 4f       	sbci	r25, 0xFF	; 255
    2486:	20 e0       	ldi	r18, 0x00	; 0
    2488:	30 e0       	ldi	r19, 0x00	; 0
    248a:	40 e2       	ldi	r20, 0x20	; 32
    248c:	51 e4       	ldi	r21, 0x41	; 65
    248e:	fc 01       	movw	r30, r24
    2490:	60 81       	ld	r22, Z
    2492:	71 81       	ldd	r23, Z+1	; 0x01
    2494:	82 81       	ldd	r24, Z+2	; 0x02
    2496:	93 81       	ldd	r25, Z+3	; 0x03
    2498:	0e 94 47 18 	call	0x308e	; 0x308e <__mulsf3>
    249c:	cf 5d       	subi	r28, 0xDF	; 223
    249e:	dd 4f       	sbci	r29, 0xFD	; 253
    24a0:	68 83       	st	Y, r22
    24a2:	79 83       	std	Y+1, r23	; 0x01
    24a4:	8a 83       	std	Y+2, r24	; 0x02
    24a6:	9b 83       	std	Y+3, r25	; 0x03
    24a8:	c1 52       	subi	r28, 0x21	; 33
    24aa:	d2 40       	sbci	r29, 0x02	; 2
    24ac:	cf 5d       	subi	r28, 0xDF	; 223
    24ae:	dd 4f       	sbci	r29, 0xFD	; 253
    24b0:	88 81       	ld	r24, Y
    24b2:	99 81       	ldd	r25, Y+1	; 0x01
    24b4:	aa 81       	ldd	r26, Y+2	; 0x02
    24b6:	bb 81       	ldd	r27, Y+3	; 0x03
    24b8:	c1 52       	subi	r28, 0x21	; 33
    24ba:	d2 40       	sbci	r29, 0x02	; 2
    24bc:	c7 5c       	subi	r28, 0xC7	; 199
    24be:	de 4f       	sbci	r29, 0xFE	; 254
    24c0:	88 83       	st	Y, r24
    24c2:	99 83       	std	Y+1, r25	; 0x01
    24c4:	aa 83       	std	Y+2, r26	; 0x02
    24c6:	bb 83       	std	Y+3, r27	; 0x03
    24c8:	c9 53       	subi	r28, 0x39	; 57
    24ca:	d1 40       	sbci	r29, 0x01	; 1

000024cc <.Loc.346>:
    24cc:	8e 01       	movw	r16, r28
    24ce:	09 53       	subi	r16, 0x39	; 57
    24d0:	1f 4f       	sbci	r17, 0xFF	; 255
    24d2:	c7 5c       	subi	r28, 0xC7	; 199
    24d4:	de 4f       	sbci	r29, 0xFE	; 254
    24d6:	68 81       	ld	r22, Y
    24d8:	79 81       	ldd	r23, Y+1	; 0x01
    24da:	8a 81       	ldd	r24, Y+2	; 0x02
    24dc:	9b 81       	ldd	r25, Y+3	; 0x03
    24de:	c9 53       	subi	r28, 0x39	; 57
    24e0:	d1 40       	sbci	r29, 0x01	; 1
    24e2:	0e 94 c6 17 	call	0x2f8c	; 0x2f8c <__fixunssfsi>
    24e6:	cb 5d       	subi	r28, 0xDB	; 219
    24e8:	dd 4f       	sbci	r29, 0xFD	; 253
    24ea:	68 83       	st	Y, r22
    24ec:	79 83       	std	Y+1, r23	; 0x01
    24ee:	8a 83       	std	Y+2, r24	; 0x02
    24f0:	9b 83       	std	Y+3, r25	; 0x03
    24f2:	c5 52       	subi	r28, 0x25	; 37
    24f4:	d2 40       	sbci	r29, 0x02	; 2
    24f6:	cb 5d       	subi	r28, 0xDB	; 219
    24f8:	dd 4f       	sbci	r29, 0xFD	; 253
    24fa:	e8 81       	ld	r30, Y
    24fc:	f9 81       	ldd	r31, Y+1	; 0x01
    24fe:	c5 52       	subi	r28, 0x25	; 37
    2500:	d2 40       	sbci	r29, 0x02	; 2
    2502:	d8 01       	movw	r26, r16
    2504:	11 96       	adiw	r26, 0x01	; 1
    2506:	fc 93       	st	X, r31
    2508:	ee 93       	st	-X, r30

0000250a <.Loc.347>:
		while(__ticks)
    250a:	26 c0       	rjmp	.+76     	; 0x2558 <.L137>

0000250c <.L138>:
    250c:	ce 01       	movw	r24, r28
    250e:	87 53       	subi	r24, 0x37	; 55
    2510:	9f 4f       	sbci	r25, 0xFF	; 255
    2512:	20 e9       	ldi	r18, 0x90	; 144
    2514:	31 e0       	ldi	r19, 0x01	; 1
    2516:	dc 01       	movw	r26, r24
    2518:	2d 93       	st	X+, r18
    251a:	3c 93       	st	X, r19

0000251c <.LBB198>:
    251c:	ce 01       	movw	r24, r28
    251e:	87 53       	subi	r24, 0x37	; 55
    2520:	9f 4f       	sbci	r25, 0xFF	; 255
    2522:	fc 01       	movw	r30, r24
    2524:	80 81       	ld	r24, Z
    2526:	91 81       	ldd	r25, Z+1	; 0x01

00002528 <.L1^B27>:
    2528:	01 97       	sbiw	r24, 0x01	; 1
    252a:	f1 f7       	brne	.-4      	; 0x2528 <.L1^B27>
    252c:	9e 01       	movw	r18, r28
    252e:	27 53       	subi	r18, 0x37	; 55
    2530:	3f 4f       	sbci	r19, 0xFF	; 255
    2532:	d9 01       	movw	r26, r18
    2534:	8d 93       	st	X+, r24
    2536:	9c 93       	st	X, r25

00002538 <.Loc.349>:
	...

0000253a <.LBE198>:
			__ticks --;
    253a:	ce 01       	movw	r24, r28
    253c:	89 53       	subi	r24, 0x39	; 57
    253e:	9f 4f       	sbci	r25, 0xFF	; 255
    2540:	9e 01       	movw	r18, r28
    2542:	29 53       	subi	r18, 0x39	; 57
    2544:	3f 4f       	sbci	r19, 0xFF	; 255
    2546:	f9 01       	movw	r30, r18
    2548:	20 81       	ld	r18, Z
    254a:	31 81       	ldd	r19, Z+1	; 0x01
    254c:	21 50       	subi	r18, 0x01	; 1
    254e:	31 09       	sbc	r19, r1
    2550:	dc 01       	movw	r26, r24
    2552:	11 96       	adiw	r26, 0x01	; 1
    2554:	3c 93       	st	X, r19
    2556:	2e 93       	st	-X, r18

00002558 <.L137>:
		while(__ticks)
    2558:	ce 01       	movw	r24, r28
    255a:	89 53       	subi	r24, 0x39	; 57
    255c:	9f 4f       	sbci	r25, 0xFF	; 255
    255e:	fc 01       	movw	r30, r24
    2560:	80 81       	ld	r24, Z
    2562:	91 81       	ldd	r25, Z+1	; 0x01
    2564:	00 97       	sbiw	r24, 0x00	; 0
    2566:	91 f6       	brne	.-92     	; 0x250c <.L138>

00002568 <.Loc.352>:
		return;
    2568:	39 c0       	rjmp	.+114    	; 0x25dc <.L139>

0000256a <.L241>:
		__ticks = (uint16_t)__tmp;
    256a:	8e 01       	movw	r16, r28
    256c:	09 53       	subi	r16, 0x39	; 57
    256e:	1f 4f       	sbci	r17, 0xFF	; 255
    2570:	ce 01       	movw	r24, r28
    2572:	8d 53       	subi	r24, 0x3D	; 61
    2574:	9f 4f       	sbci	r25, 0xFF	; 255
    2576:	dc 01       	movw	r26, r24
    2578:	6d 91       	ld	r22, X+
    257a:	7d 91       	ld	r23, X+
    257c:	8d 91       	ld	r24, X+
    257e:	9c 91       	ld	r25, X
    2580:	0e 94 c6 17 	call	0x2f8c	; 0x2f8c <__fixunssfsi>
    2584:	c7 5d       	subi	r28, 0xD7	; 215
    2586:	dd 4f       	sbci	r29, 0xFD	; 253
    2588:	68 83       	st	Y, r22
    258a:	79 83       	std	Y+1, r23	; 0x01
    258c:	8a 83       	std	Y+2, r24	; 0x02
    258e:	9b 83       	std	Y+3, r25	; 0x03
    2590:	c9 52       	subi	r28, 0x29	; 41
    2592:	d2 40       	sbci	r29, 0x02	; 2
    2594:	c7 5d       	subi	r28, 0xD7	; 215
    2596:	dd 4f       	sbci	r29, 0xFD	; 253
    2598:	88 81       	ld	r24, Y
    259a:	99 81       	ldd	r25, Y+1	; 0x01
    259c:	c9 52       	subi	r28, 0x29	; 41
    259e:	d2 40       	sbci	r29, 0x02	; 2
    25a0:	f8 01       	movw	r30, r16
    25a2:	91 83       	std	Z+1, r25	; 0x01
    25a4:	80 83       	st	Z, r24

000025a6 <.L134>:
    25a6:	ce 01       	movw	r24, r28
    25a8:	85 53       	subi	r24, 0x35	; 53
    25aa:	9f 4f       	sbci	r25, 0xFF	; 255
    25ac:	9e 01       	movw	r18, r28
    25ae:	29 53       	subi	r18, 0x39	; 57
    25b0:	3f 4f       	sbci	r19, 0xFF	; 255
    25b2:	d9 01       	movw	r26, r18
    25b4:	2d 91       	ld	r18, X+
    25b6:	3c 91       	ld	r19, X
    25b8:	fc 01       	movw	r30, r24
    25ba:	31 83       	std	Z+1, r19	; 0x01
    25bc:	20 83       	st	Z, r18

000025be <.LBB200>:
    25be:	ce 01       	movw	r24, r28
    25c0:	85 53       	subi	r24, 0x35	; 53
    25c2:	9f 4f       	sbci	r25, 0xFF	; 255
    25c4:	dc 01       	movw	r26, r24
    25c6:	8d 91       	ld	r24, X+
    25c8:	9c 91       	ld	r25, X

000025ca <.L1^B28>:
    25ca:	01 97       	sbiw	r24, 0x01	; 1
    25cc:	f1 f7       	brne	.-4      	; 0x25ca <.L1^B28>
    25ce:	9e 01       	movw	r18, r28
    25d0:	25 53       	subi	r18, 0x35	; 53
    25d2:	3f 4f       	sbci	r19, 0xFF	; 255
    25d4:	f9 01       	movw	r30, r18
    25d6:	91 83       	std	Z+1, r25	; 0x01
    25d8:	80 83       	st	Z, r24

000025da <.Loc.355>:
	...

000025dc <.L139>:
            {
                DEBOUNCE;
                h_bridge_set_percentage2(0);        // h brug uit na limit switch y-as //
    25dc:	80 e0       	ldi	r24, 0x00	; 0
    25de:	90 e0       	ldi	r25, 0x00	; 0
    25e0:	0e 94 ee 02 	call	0x5dc	; 0x5dc <h_bridge_set_percentage2>

000025e4 <.Loc.357>:
                knop_ingedrukty = 1;
    25e4:	81 e0       	ldi	r24, 0x01	; 1
    25e6:	90 e0       	ldi	r25, 0x00	; 0
    25e8:	9c 83       	std	Y+4, r25	; 0x04
    25ea:	8b 83       	std	Y+3, r24	; 0x03

000025ec <.L131>:
            }
            if ((PINF & (1<<PF1)) != 0)             // reset knop //
    25ec:	8f e2       	ldi	r24, 0x2F	; 47
    25ee:	90 e0       	ldi	r25, 0x00	; 0
    25f0:	dc 01       	movw	r26, r24
    25f2:	8c 91       	ld	r24, X

000025f4 <.Loc.359>:
    25f4:	88 2f       	mov	r24, r24
    25f6:	90 e0       	ldi	r25, 0x00	; 0
    25f8:	82 70       	andi	r24, 0x02	; 2
    25fa:	99 27       	eor	r25, r25

000025fc <.Loc.360>:
    25fc:	00 97       	sbiw	r24, 0x00	; 0
    25fe:	09 f4       	brne	.+2      	; 0x2602 <L0^A+0x2>

00002600 <L0^A>:
    2600:	8f c4       	rjmp	.+2334   	; 0x2f20 <.L253>
    2602:	9e 01       	movw	r18, r28
    2604:	23 53       	subi	r18, 0x33	; 51
    2606:	3f 4f       	sbci	r19, 0xFF	; 255
    2608:	80 e0       	ldi	r24, 0x00	; 0
    260a:	90 e0       	ldi	r25, 0x00	; 0
    260c:	a8 e4       	ldi	r26, 0x48	; 72
    260e:	b2 e4       	ldi	r27, 0x42	; 66
    2610:	f9 01       	movw	r30, r18
    2612:	80 83       	st	Z, r24
    2614:	91 83       	std	Z+1, r25	; 0x01
    2616:	a2 83       	std	Z+2, r26	; 0x02
    2618:	b3 83       	std	Z+3, r27	; 0x03

0000261a <.LBB202>:
	__tmp = ((F_CPU) / 4e3) * __ms;
    261a:	8e 01       	movw	r16, r28
    261c:	0f 52       	subi	r16, 0x2F	; 47
    261e:	1f 4f       	sbci	r17, 0xFF	; 255
    2620:	ce 01       	movw	r24, r28
    2622:	83 53       	subi	r24, 0x33	; 51
    2624:	9f 4f       	sbci	r25, 0xFF	; 255
    2626:	20 e0       	ldi	r18, 0x00	; 0
    2628:	30 e0       	ldi	r19, 0x00	; 0
    262a:	4a e7       	ldi	r20, 0x7A	; 122
    262c:	55 e4       	ldi	r21, 0x45	; 69
    262e:	dc 01       	movw	r26, r24
    2630:	6d 91       	ld	r22, X+
    2632:	7d 91       	ld	r23, X+
    2634:	8d 91       	ld	r24, X+
    2636:	9c 91       	ld	r25, X
    2638:	0e 94 47 18 	call	0x308e	; 0x308e <__mulsf3>
    263c:	c3 5d       	subi	r28, 0xD3	; 211
    263e:	dd 4f       	sbci	r29, 0xFD	; 253
    2640:	68 83       	st	Y, r22
    2642:	79 83       	std	Y+1, r23	; 0x01
    2644:	8a 83       	std	Y+2, r24	; 0x02
    2646:	9b 83       	std	Y+3, r25	; 0x03
    2648:	cd 52       	subi	r28, 0x2D	; 45
    264a:	d2 40       	sbci	r29, 0x02	; 2
    264c:	c3 5d       	subi	r28, 0xD3	; 211
    264e:	dd 4f       	sbci	r29, 0xFD	; 253
    2650:	88 81       	ld	r24, Y
    2652:	99 81       	ldd	r25, Y+1	; 0x01
    2654:	aa 81       	ldd	r26, Y+2	; 0x02
    2656:	bb 81       	ldd	r27, Y+3	; 0x03
    2658:	cd 52       	subi	r28, 0x2D	; 45
    265a:	d2 40       	sbci	r29, 0x02	; 2
    265c:	f8 01       	movw	r30, r16
    265e:	80 83       	st	Z, r24
    2660:	91 83       	std	Z+1, r25	; 0x01
    2662:	a2 83       	std	Z+2, r26	; 0x02
    2664:	b3 83       	std	Z+3, r27	; 0x03

00002666 <.Loc.362>:
	if (__tmp < 1.0)
    2666:	ce 01       	movw	r24, r28
    2668:	8f 52       	subi	r24, 0x2F	; 47
    266a:	9f 4f       	sbci	r25, 0xFF	; 255
    266c:	20 e0       	ldi	r18, 0x00	; 0
    266e:	30 e0       	ldi	r19, 0x00	; 0
    2670:	40 e8       	ldi	r20, 0x80	; 128
    2672:	5f e3       	ldi	r21, 0x3F	; 63
    2674:	dc 01       	movw	r26, r24
    2676:	6d 91       	ld	r22, X+
    2678:	7d 91       	ld	r23, X+
    267a:	8d 91       	ld	r24, X+
    267c:	9c 91       	ld	r25, X
    267e:	0e 94 c1 17 	call	0x2f82	; 0x2f82 <__cmpsf2>
    2682:	88 23       	and	r24, r24
    2684:	4c f4       	brge	.+18     	; 0x2698 <.L242>

00002686 <.Loc.363>:
		__ticks = 1;
    2686:	ce 01       	movw	r24, r28
    2688:	8b 52       	subi	r24, 0x2B	; 43
    268a:	9f 4f       	sbci	r25, 0xFF	; 255
    268c:	21 e0       	ldi	r18, 0x01	; 1
    268e:	30 e0       	ldi	r19, 0x00	; 0
    2690:	fc 01       	movw	r30, r24
    2692:	31 83       	std	Z+1, r19	; 0x01
    2694:	20 83       	st	Z, r18
    2696:	a5 c0       	rjmp	.+330    	; 0x27e2 <.L143>

00002698 <.L242>:
	else if (__tmp > 65535)
    2698:	ce 01       	movw	r24, r28
    269a:	8f 52       	subi	r24, 0x2F	; 47
    269c:	9f 4f       	sbci	r25, 0xFF	; 255
    269e:	20 e0       	ldi	r18, 0x00	; 0
    26a0:	3f ef       	ldi	r19, 0xFF	; 255
    26a2:	4f e7       	ldi	r20, 0x7F	; 127
    26a4:	57 e4       	ldi	r21, 0x47	; 71
    26a6:	dc 01       	movw	r26, r24
    26a8:	6d 91       	ld	r22, X+
    26aa:	7d 91       	ld	r23, X+
    26ac:	8d 91       	ld	r24, X+
    26ae:	9c 91       	ld	r25, X
    26b0:	0e 94 42 18 	call	0x3084	; 0x3084 <__gesf2>
    26b4:	88 23       	and	r24, r24
    26b6:	09 f0       	breq	.+2      	; 0x26ba <L0^A>

000026b8 <L0^A>:
    26b8:	0c f4       	brge	.+2      	; 0x26bc <.Loc.365>

000026ba <L0^A>:
    26ba:	75 c0       	rjmp	.+234    	; 0x27a6 <.L243>

000026bc <.Loc.365>:
		__ticks = (uint16_t) (__ms * 10.0);
    26bc:	ce 01       	movw	r24, r28
    26be:	83 53       	subi	r24, 0x33	; 51
    26c0:	9f 4f       	sbci	r25, 0xFF	; 255
    26c2:	20 e0       	ldi	r18, 0x00	; 0
    26c4:	30 e0       	ldi	r19, 0x00	; 0
    26c6:	40 e2       	ldi	r20, 0x20	; 32
    26c8:	51 e4       	ldi	r21, 0x41	; 65
    26ca:	fc 01       	movw	r30, r24
    26cc:	60 81       	ld	r22, Z
    26ce:	71 81       	ldd	r23, Z+1	; 0x01
    26d0:	82 81       	ldd	r24, Z+2	; 0x02
    26d2:	93 81       	ldd	r25, Z+3	; 0x03
    26d4:	0e 94 47 18 	call	0x308e	; 0x308e <__mulsf3>
    26d8:	cf 5c       	subi	r28, 0xCF	; 207
    26da:	dd 4f       	sbci	r29, 0xFD	; 253
    26dc:	68 83       	st	Y, r22
    26de:	79 83       	std	Y+1, r23	; 0x01
    26e0:	8a 83       	std	Y+2, r24	; 0x02
    26e2:	9b 83       	std	Y+3, r25	; 0x03
    26e4:	c1 53       	subi	r28, 0x31	; 49
    26e6:	d2 40       	sbci	r29, 0x02	; 2
    26e8:	cf 5c       	subi	r28, 0xCF	; 207
    26ea:	dd 4f       	sbci	r29, 0xFD	; 253
    26ec:	88 81       	ld	r24, Y
    26ee:	99 81       	ldd	r25, Y+1	; 0x01
    26f0:	aa 81       	ldd	r26, Y+2	; 0x02
    26f2:	bb 81       	ldd	r27, Y+3	; 0x03
    26f4:	c1 53       	subi	r28, 0x31	; 49
    26f6:	d2 40       	sbci	r29, 0x02	; 2
    26f8:	c3 5c       	subi	r28, 0xC3	; 195
    26fa:	de 4f       	sbci	r29, 0xFE	; 254
    26fc:	88 83       	st	Y, r24
    26fe:	99 83       	std	Y+1, r25	; 0x01
    2700:	aa 83       	std	Y+2, r26	; 0x02
    2702:	bb 83       	std	Y+3, r27	; 0x03
    2704:	cd 53       	subi	r28, 0x3D	; 61
    2706:	d1 40       	sbci	r29, 0x01	; 1

00002708 <.Loc.366>:
    2708:	8e 01       	movw	r16, r28
    270a:	0b 52       	subi	r16, 0x2B	; 43
    270c:	1f 4f       	sbci	r17, 0xFF	; 255
    270e:	c3 5c       	subi	r28, 0xC3	; 195
    2710:	de 4f       	sbci	r29, 0xFE	; 254
    2712:	68 81       	ld	r22, Y
    2714:	79 81       	ldd	r23, Y+1	; 0x01
    2716:	8a 81       	ldd	r24, Y+2	; 0x02
    2718:	9b 81       	ldd	r25, Y+3	; 0x03
    271a:	cd 53       	subi	r28, 0x3D	; 61
    271c:	d1 40       	sbci	r29, 0x01	; 1
    271e:	0e 94 c6 17 	call	0x2f8c	; 0x2f8c <__fixunssfsi>
    2722:	cb 5c       	subi	r28, 0xCB	; 203
    2724:	dd 4f       	sbci	r29, 0xFD	; 253
    2726:	68 83       	st	Y, r22
    2728:	79 83       	std	Y+1, r23	; 0x01
    272a:	8a 83       	std	Y+2, r24	; 0x02
    272c:	9b 83       	std	Y+3, r25	; 0x03
    272e:	c5 53       	subi	r28, 0x35	; 53
    2730:	d2 40       	sbci	r29, 0x02	; 2
    2732:	cb 5c       	subi	r28, 0xCB	; 203
    2734:	dd 4f       	sbci	r29, 0xFD	; 253
    2736:	e8 81       	ld	r30, Y
    2738:	f9 81       	ldd	r31, Y+1	; 0x01
    273a:	c5 53       	subi	r28, 0x35	; 53
    273c:	d2 40       	sbci	r29, 0x02	; 2
    273e:	d8 01       	movw	r26, r16
    2740:	11 96       	adiw	r26, 0x01	; 1
    2742:	fc 93       	st	X, r31
    2744:	ee 93       	st	-X, r30

00002746 <.Loc.367>:
		while(__ticks)
    2746:	26 c0       	rjmp	.+76     	; 0x2794 <.L146>

00002748 <.L147>:
    2748:	ce 01       	movw	r24, r28
    274a:	89 52       	subi	r24, 0x29	; 41
    274c:	9f 4f       	sbci	r25, 0xFF	; 255
    274e:	20 e9       	ldi	r18, 0x90	; 144
    2750:	31 e0       	ldi	r19, 0x01	; 1
    2752:	dc 01       	movw	r26, r24
    2754:	2d 93       	st	X+, r18
    2756:	3c 93       	st	X, r19

00002758 <.LBB204>:
    2758:	ce 01       	movw	r24, r28
    275a:	89 52       	subi	r24, 0x29	; 41
    275c:	9f 4f       	sbci	r25, 0xFF	; 255
    275e:	fc 01       	movw	r30, r24
    2760:	80 81       	ld	r24, Z
    2762:	91 81       	ldd	r25, Z+1	; 0x01

00002764 <.L1^B29>:
    2764:	01 97       	sbiw	r24, 0x01	; 1
    2766:	f1 f7       	brne	.-4      	; 0x2764 <.L1^B29>
    2768:	9e 01       	movw	r18, r28
    276a:	29 52       	subi	r18, 0x29	; 41
    276c:	3f 4f       	sbci	r19, 0xFF	; 255
    276e:	d9 01       	movw	r26, r18
    2770:	8d 93       	st	X+, r24
    2772:	9c 93       	st	X, r25

00002774 <.Loc.369>:
	...

00002776 <.LBE204>:
			__ticks --;
    2776:	ce 01       	movw	r24, r28
    2778:	8b 52       	subi	r24, 0x2B	; 43
    277a:	9f 4f       	sbci	r25, 0xFF	; 255
    277c:	9e 01       	movw	r18, r28
    277e:	2b 52       	subi	r18, 0x2B	; 43
    2780:	3f 4f       	sbci	r19, 0xFF	; 255
    2782:	f9 01       	movw	r30, r18
    2784:	20 81       	ld	r18, Z
    2786:	31 81       	ldd	r19, Z+1	; 0x01
    2788:	21 50       	subi	r18, 0x01	; 1
    278a:	31 09       	sbc	r19, r1
    278c:	dc 01       	movw	r26, r24
    278e:	11 96       	adiw	r26, 0x01	; 1
    2790:	3c 93       	st	X, r19
    2792:	2e 93       	st	-X, r18

00002794 <.L146>:
		while(__ticks)
    2794:	ce 01       	movw	r24, r28
    2796:	8b 52       	subi	r24, 0x2B	; 43
    2798:	9f 4f       	sbci	r25, 0xFF	; 255
    279a:	fc 01       	movw	r30, r24
    279c:	80 81       	ld	r24, Z
    279e:	91 81       	ldd	r25, Z+1	; 0x01
    27a0:	00 97       	sbiw	r24, 0x00	; 0
    27a2:	91 f6       	brne	.-92     	; 0x2748 <.L147>

000027a4 <.Loc.372>:
		return;
    27a4:	3a c0       	rjmp	.+116    	; 0x281a <.L148>

000027a6 <.L243>:
		__ticks = (uint16_t)__tmp;
    27a6:	8e 01       	movw	r16, r28
    27a8:	0b 52       	subi	r16, 0x2B	; 43
    27aa:	1f 4f       	sbci	r17, 0xFF	; 255
    27ac:	ce 01       	movw	r24, r28
    27ae:	8f 52       	subi	r24, 0x2F	; 47
    27b0:	9f 4f       	sbci	r25, 0xFF	; 255
    27b2:	dc 01       	movw	r26, r24
    27b4:	6d 91       	ld	r22, X+
    27b6:	7d 91       	ld	r23, X+
    27b8:	8d 91       	ld	r24, X+
    27ba:	9c 91       	ld	r25, X
    27bc:	0e 94 c6 17 	call	0x2f8c	; 0x2f8c <__fixunssfsi>
    27c0:	c7 5c       	subi	r28, 0xC7	; 199
    27c2:	dd 4f       	sbci	r29, 0xFD	; 253
    27c4:	68 83       	st	Y, r22
    27c6:	79 83       	std	Y+1, r23	; 0x01
    27c8:	8a 83       	std	Y+2, r24	; 0x02
    27ca:	9b 83       	std	Y+3, r25	; 0x03
    27cc:	c9 53       	subi	r28, 0x39	; 57
    27ce:	d2 40       	sbci	r29, 0x02	; 2
    27d0:	c7 5c       	subi	r28, 0xC7	; 199
    27d2:	dd 4f       	sbci	r29, 0xFD	; 253
    27d4:	88 81       	ld	r24, Y
    27d6:	99 81       	ldd	r25, Y+1	; 0x01
    27d8:	c9 53       	subi	r28, 0x39	; 57
    27da:	d2 40       	sbci	r29, 0x02	; 2
    27dc:	f8 01       	movw	r30, r16
    27de:	91 83       	std	Z+1, r25	; 0x01
    27e0:	80 83       	st	Z, r24

000027e2 <.L143>:
    27e2:	ce 01       	movw	r24, r28
    27e4:	87 52       	subi	r24, 0x27	; 39
    27e6:	9f 4f       	sbci	r25, 0xFF	; 255
    27e8:	9e 01       	movw	r18, r28
    27ea:	2b 52       	subi	r18, 0x2B	; 43
    27ec:	3f 4f       	sbci	r19, 0xFF	; 255
    27ee:	d9 01       	movw	r26, r18
    27f0:	2d 91       	ld	r18, X+
    27f2:	3c 91       	ld	r19, X
    27f4:	fc 01       	movw	r30, r24
    27f6:	31 83       	std	Z+1, r19	; 0x01
    27f8:	20 83       	st	Z, r18

000027fa <.LBB206>:
    27fa:	ce 01       	movw	r24, r28
    27fc:	87 52       	subi	r24, 0x27	; 39
    27fe:	9f 4f       	sbci	r25, 0xFF	; 255
    2800:	dc 01       	movw	r26, r24
    2802:	8d 91       	ld	r24, X+
    2804:	9c 91       	ld	r25, X
    2806:	11 97       	sbiw	r26, 0x01	; 1

00002808 <.L1^B30>:
    2808:	01 97       	sbiw	r24, 0x01	; 1
    280a:	f1 f7       	brne	.-4      	; 0x2808 <.L1^B30>
    280c:	9e 01       	movw	r18, r28
    280e:	27 52       	subi	r18, 0x27	; 39
    2810:	3f 4f       	sbci	r19, 0xFF	; 255
    2812:	f9 01       	movw	r30, r18
    2814:	91 83       	std	Z+1, r25	; 0x01
    2816:	80 83       	st	Z, r24

00002818 <.Loc.375>:
	...

0000281a <.L148>:
            {
                DEBOUNCE;
                stand = 5;                          // door naar case 4 //
    281a:	85 e0       	ldi	r24, 0x05	; 5
    281c:	90 e0       	ldi	r25, 0x00	; 0
    281e:	9e 83       	std	Y+6, r25	; 0x06
    2820:	8d 83       	std	Y+5, r24	; 0x05

00002822 <.Loc.377>:
            }
            break;
    2822:	7e c3       	rjmp	.+1788   	; 0x2f20 <.L253>

00002824 <.L25>:
        case 4:
            // z-as omlaag
            break;
        case 5:
            if ((PINK & (1<<PK0)) != 0)             // limit switch zet de h brug op de x-as uit //
    2824:	86 e0       	ldi	r24, 0x06	; 6
    2826:	91 e0       	ldi	r25, 0x01	; 1
    2828:	dc 01       	movw	r26, r24
    282a:	8c 91       	ld	r24, X

0000282c <.Loc.379>:
    282c:	88 2f       	mov	r24, r24
    282e:	90 e0       	ldi	r25, 0x00	; 0
    2830:	81 70       	andi	r24, 0x01	; 1
    2832:	99 27       	eor	r25, r25

00002834 <.Loc.380>:
    2834:	00 97       	sbiw	r24, 0x00	; 0
    2836:	09 f4       	brne	.+2      	; 0x283a <L0^A+0x2>

00002838 <L0^A>:
    2838:	12 c1       	rjmp	.+548    	; 0x2a5e <.L149>
    283a:	9e 01       	movw	r18, r28
    283c:	25 52       	subi	r18, 0x25	; 37
    283e:	3f 4f       	sbci	r19, 0xFF	; 255
    2840:	80 e0       	ldi	r24, 0x00	; 0
    2842:	90 e0       	ldi	r25, 0x00	; 0
    2844:	a8 e4       	ldi	r26, 0x48	; 72
    2846:	b2 e4       	ldi	r27, 0x42	; 66
    2848:	f9 01       	movw	r30, r18
    284a:	80 83       	st	Z, r24
    284c:	91 83       	std	Z+1, r25	; 0x01
    284e:	a2 83       	std	Z+2, r26	; 0x02
    2850:	b3 83       	std	Z+3, r27	; 0x03

00002852 <.LBB208>:
	__tmp = ((F_CPU) / 4e3) * __ms;
    2852:	8e 01       	movw	r16, r28
    2854:	01 52       	subi	r16, 0x21	; 33
    2856:	1f 4f       	sbci	r17, 0xFF	; 255
    2858:	ce 01       	movw	r24, r28
    285a:	85 52       	subi	r24, 0x25	; 37
    285c:	9f 4f       	sbci	r25, 0xFF	; 255
    285e:	20 e0       	ldi	r18, 0x00	; 0
    2860:	30 e0       	ldi	r19, 0x00	; 0
    2862:	4a e7       	ldi	r20, 0x7A	; 122
    2864:	55 e4       	ldi	r21, 0x45	; 69
    2866:	dc 01       	movw	r26, r24
    2868:	6d 91       	ld	r22, X+
    286a:	7d 91       	ld	r23, X+
    286c:	8d 91       	ld	r24, X+
    286e:	9c 91       	ld	r25, X
    2870:	0e 94 47 18 	call	0x308e	; 0x308e <__mulsf3>
    2874:	c3 5c       	subi	r28, 0xC3	; 195
    2876:	dd 4f       	sbci	r29, 0xFD	; 253
    2878:	68 83       	st	Y, r22
    287a:	79 83       	std	Y+1, r23	; 0x01
    287c:	8a 83       	std	Y+2, r24	; 0x02
    287e:	9b 83       	std	Y+3, r25	; 0x03
    2880:	cd 53       	subi	r28, 0x3D	; 61
    2882:	d2 40       	sbci	r29, 0x02	; 2
    2884:	c3 5c       	subi	r28, 0xC3	; 195
    2886:	dd 4f       	sbci	r29, 0xFD	; 253
    2888:	88 81       	ld	r24, Y
    288a:	99 81       	ldd	r25, Y+1	; 0x01
    288c:	aa 81       	ldd	r26, Y+2	; 0x02
    288e:	bb 81       	ldd	r27, Y+3	; 0x03
    2890:	cd 53       	subi	r28, 0x3D	; 61
    2892:	d2 40       	sbci	r29, 0x02	; 2
    2894:	f8 01       	movw	r30, r16
    2896:	80 83       	st	Z, r24
    2898:	91 83       	std	Z+1, r25	; 0x01
    289a:	a2 83       	std	Z+2, r26	; 0x02
    289c:	b3 83       	std	Z+3, r27	; 0x03

0000289e <.Loc.382>:
	if (__tmp < 1.0)
    289e:	ce 01       	movw	r24, r28
    28a0:	81 52       	subi	r24, 0x21	; 33
    28a2:	9f 4f       	sbci	r25, 0xFF	; 255
    28a4:	20 e0       	ldi	r18, 0x00	; 0
    28a6:	30 e0       	ldi	r19, 0x00	; 0
    28a8:	40 e8       	ldi	r20, 0x80	; 128
    28aa:	5f e3       	ldi	r21, 0x3F	; 63
    28ac:	dc 01       	movw	r26, r24
    28ae:	6d 91       	ld	r22, X+
    28b0:	7d 91       	ld	r23, X+
    28b2:	8d 91       	ld	r24, X+
    28b4:	9c 91       	ld	r25, X
    28b6:	0e 94 c1 17 	call	0x2f82	; 0x2f82 <__cmpsf2>
    28ba:	88 23       	and	r24, r24
    28bc:	4c f4       	brge	.+18     	; 0x28d0 <.L244>

000028be <.Loc.383>:
		__ticks = 1;
    28be:	ce 01       	movw	r24, r28
    28c0:	8d 51       	subi	r24, 0x1D	; 29
    28c2:	9f 4f       	sbci	r25, 0xFF	; 255
    28c4:	21 e0       	ldi	r18, 0x01	; 1
    28c6:	30 e0       	ldi	r19, 0x00	; 0
    28c8:	fc 01       	movw	r30, r24
    28ca:	31 83       	std	Z+1, r19	; 0x01
    28cc:	20 83       	st	Z, r18
    28ce:	a5 c0       	rjmp	.+330    	; 0x2a1a <.L152>

000028d0 <.L244>:
	else if (__tmp > 65535)
    28d0:	ce 01       	movw	r24, r28
    28d2:	81 52       	subi	r24, 0x21	; 33
    28d4:	9f 4f       	sbci	r25, 0xFF	; 255
    28d6:	20 e0       	ldi	r18, 0x00	; 0
    28d8:	3f ef       	ldi	r19, 0xFF	; 255
    28da:	4f e7       	ldi	r20, 0x7F	; 127
    28dc:	57 e4       	ldi	r21, 0x47	; 71
    28de:	dc 01       	movw	r26, r24
    28e0:	6d 91       	ld	r22, X+
    28e2:	7d 91       	ld	r23, X+
    28e4:	8d 91       	ld	r24, X+
    28e6:	9c 91       	ld	r25, X
    28e8:	0e 94 42 18 	call	0x3084	; 0x3084 <__gesf2>
    28ec:	88 23       	and	r24, r24
    28ee:	09 f0       	breq	.+2      	; 0x28f2 <L0^A>

000028f0 <L0^A>:
    28f0:	0c f4       	brge	.+2      	; 0x28f4 <.Loc.385>

000028f2 <L0^A>:
    28f2:	75 c0       	rjmp	.+234    	; 0x29de <.L245>

000028f4 <.Loc.385>:
		__ticks = (uint16_t) (__ms * 10.0);
    28f4:	ce 01       	movw	r24, r28
    28f6:	85 52       	subi	r24, 0x25	; 37
    28f8:	9f 4f       	sbci	r25, 0xFF	; 255
    28fa:	20 e0       	ldi	r18, 0x00	; 0
    28fc:	30 e0       	ldi	r19, 0x00	; 0
    28fe:	40 e2       	ldi	r20, 0x20	; 32
    2900:	51 e4       	ldi	r21, 0x41	; 65
    2902:	fc 01       	movw	r30, r24
    2904:	60 81       	ld	r22, Z
    2906:	71 81       	ldd	r23, Z+1	; 0x01
    2908:	82 81       	ldd	r24, Z+2	; 0x02
    290a:	93 81       	ldd	r25, Z+3	; 0x03
    290c:	0e 94 47 18 	call	0x308e	; 0x308e <__mulsf3>
    2910:	cf 5b       	subi	r28, 0xBF	; 191
    2912:	dd 4f       	sbci	r29, 0xFD	; 253
    2914:	68 83       	st	Y, r22
    2916:	79 83       	std	Y+1, r23	; 0x01
    2918:	8a 83       	std	Y+2, r24	; 0x02
    291a:	9b 83       	std	Y+3, r25	; 0x03
    291c:	c1 54       	subi	r28, 0x41	; 65
    291e:	d2 40       	sbci	r29, 0x02	; 2
    2920:	cf 5b       	subi	r28, 0xBF	; 191
    2922:	dd 4f       	sbci	r29, 0xFD	; 253
    2924:	88 81       	ld	r24, Y
    2926:	99 81       	ldd	r25, Y+1	; 0x01
    2928:	aa 81       	ldd	r26, Y+2	; 0x02
    292a:	bb 81       	ldd	r27, Y+3	; 0x03
    292c:	c1 54       	subi	r28, 0x41	; 65
    292e:	d2 40       	sbci	r29, 0x02	; 2
    2930:	cf 5b       	subi	r28, 0xBF	; 191
    2932:	de 4f       	sbci	r29, 0xFE	; 254
    2934:	88 83       	st	Y, r24
    2936:	99 83       	std	Y+1, r25	; 0x01
    2938:	aa 83       	std	Y+2, r26	; 0x02
    293a:	bb 83       	std	Y+3, r27	; 0x03
    293c:	c1 54       	subi	r28, 0x41	; 65
    293e:	d1 40       	sbci	r29, 0x01	; 1

00002940 <.Loc.386>:
    2940:	8e 01       	movw	r16, r28
    2942:	0d 51       	subi	r16, 0x1D	; 29
    2944:	1f 4f       	sbci	r17, 0xFF	; 255
    2946:	cf 5b       	subi	r28, 0xBF	; 191
    2948:	de 4f       	sbci	r29, 0xFE	; 254
    294a:	68 81       	ld	r22, Y
    294c:	79 81       	ldd	r23, Y+1	; 0x01
    294e:	8a 81       	ldd	r24, Y+2	; 0x02
    2950:	9b 81       	ldd	r25, Y+3	; 0x03
    2952:	c1 54       	subi	r28, 0x41	; 65
    2954:	d1 40       	sbci	r29, 0x01	; 1
    2956:	0e 94 c6 17 	call	0x2f8c	; 0x2f8c <__fixunssfsi>
    295a:	cb 5b       	subi	r28, 0xBB	; 187
    295c:	dd 4f       	sbci	r29, 0xFD	; 253
    295e:	68 83       	st	Y, r22
    2960:	79 83       	std	Y+1, r23	; 0x01
    2962:	8a 83       	std	Y+2, r24	; 0x02
    2964:	9b 83       	std	Y+3, r25	; 0x03
    2966:	c5 54       	subi	r28, 0x45	; 69
    2968:	d2 40       	sbci	r29, 0x02	; 2
    296a:	cb 5b       	subi	r28, 0xBB	; 187
    296c:	dd 4f       	sbci	r29, 0xFD	; 253
    296e:	e8 81       	ld	r30, Y
    2970:	f9 81       	ldd	r31, Y+1	; 0x01
    2972:	c5 54       	subi	r28, 0x45	; 69
    2974:	d2 40       	sbci	r29, 0x02	; 2
    2976:	d8 01       	movw	r26, r16
    2978:	11 96       	adiw	r26, 0x01	; 1
    297a:	fc 93       	st	X, r31
    297c:	ee 93       	st	-X, r30

0000297e <.Loc.387>:
		while(__ticks)
    297e:	26 c0       	rjmp	.+76     	; 0x29cc <.L155>

00002980 <.L156>:
    2980:	ce 01       	movw	r24, r28
    2982:	8b 51       	subi	r24, 0x1B	; 27
    2984:	9f 4f       	sbci	r25, 0xFF	; 255
    2986:	20 e9       	ldi	r18, 0x90	; 144
    2988:	31 e0       	ldi	r19, 0x01	; 1
    298a:	dc 01       	movw	r26, r24
    298c:	2d 93       	st	X+, r18
    298e:	3c 93       	st	X, r19

00002990 <.LBB210>:
    2990:	ce 01       	movw	r24, r28
    2992:	8b 51       	subi	r24, 0x1B	; 27
    2994:	9f 4f       	sbci	r25, 0xFF	; 255
    2996:	fc 01       	movw	r30, r24
    2998:	80 81       	ld	r24, Z
    299a:	91 81       	ldd	r25, Z+1	; 0x01

0000299c <.L1^B31>:
    299c:	01 97       	sbiw	r24, 0x01	; 1
    299e:	f1 f7       	brne	.-4      	; 0x299c <.L1^B31>
    29a0:	9e 01       	movw	r18, r28
    29a2:	2b 51       	subi	r18, 0x1B	; 27
    29a4:	3f 4f       	sbci	r19, 0xFF	; 255
    29a6:	d9 01       	movw	r26, r18
    29a8:	8d 93       	st	X+, r24
    29aa:	9c 93       	st	X, r25

000029ac <.Loc.389>:
	...

000029ae <.LBE210>:
			__ticks --;
    29ae:	ce 01       	movw	r24, r28
    29b0:	8d 51       	subi	r24, 0x1D	; 29
    29b2:	9f 4f       	sbci	r25, 0xFF	; 255
    29b4:	9e 01       	movw	r18, r28
    29b6:	2d 51       	subi	r18, 0x1D	; 29
    29b8:	3f 4f       	sbci	r19, 0xFF	; 255
    29ba:	f9 01       	movw	r30, r18
    29bc:	20 81       	ld	r18, Z
    29be:	31 81       	ldd	r19, Z+1	; 0x01
    29c0:	21 50       	subi	r18, 0x01	; 1
    29c2:	31 09       	sbc	r19, r1
    29c4:	dc 01       	movw	r26, r24
    29c6:	11 96       	adiw	r26, 0x01	; 1
    29c8:	3c 93       	st	X, r19
    29ca:	2e 93       	st	-X, r18

000029cc <.L155>:
		while(__ticks)
    29cc:	ce 01       	movw	r24, r28
    29ce:	8d 51       	subi	r24, 0x1D	; 29
    29d0:	9f 4f       	sbci	r25, 0xFF	; 255
    29d2:	fc 01       	movw	r30, r24
    29d4:	80 81       	ld	r24, Z
    29d6:	91 81       	ldd	r25, Z+1	; 0x01
    29d8:	00 97       	sbiw	r24, 0x00	; 0
    29da:	91 f6       	brne	.-92     	; 0x2980 <.L156>

000029dc <.Loc.392>:
		return;
    29dc:	39 c0       	rjmp	.+114    	; 0x2a50 <.L157>

000029de <.L245>:
		__ticks = (uint16_t)__tmp;
    29de:	8e 01       	movw	r16, r28
    29e0:	0d 51       	subi	r16, 0x1D	; 29
    29e2:	1f 4f       	sbci	r17, 0xFF	; 255
    29e4:	ce 01       	movw	r24, r28
    29e6:	81 52       	subi	r24, 0x21	; 33
    29e8:	9f 4f       	sbci	r25, 0xFF	; 255
    29ea:	dc 01       	movw	r26, r24
    29ec:	6d 91       	ld	r22, X+
    29ee:	7d 91       	ld	r23, X+
    29f0:	8d 91       	ld	r24, X+
    29f2:	9c 91       	ld	r25, X
    29f4:	0e 94 c6 17 	call	0x2f8c	; 0x2f8c <__fixunssfsi>
    29f8:	c7 5b       	subi	r28, 0xB7	; 183
    29fa:	dd 4f       	sbci	r29, 0xFD	; 253
    29fc:	68 83       	st	Y, r22
    29fe:	79 83       	std	Y+1, r23	; 0x01
    2a00:	8a 83       	std	Y+2, r24	; 0x02
    2a02:	9b 83       	std	Y+3, r25	; 0x03
    2a04:	c9 54       	subi	r28, 0x49	; 73
    2a06:	d2 40       	sbci	r29, 0x02	; 2
    2a08:	c7 5b       	subi	r28, 0xB7	; 183
    2a0a:	dd 4f       	sbci	r29, 0xFD	; 253
    2a0c:	88 81       	ld	r24, Y
    2a0e:	99 81       	ldd	r25, Y+1	; 0x01
    2a10:	c9 54       	subi	r28, 0x49	; 73
    2a12:	d2 40       	sbci	r29, 0x02	; 2
    2a14:	f8 01       	movw	r30, r16
    2a16:	91 83       	std	Z+1, r25	; 0x01
    2a18:	80 83       	st	Z, r24

00002a1a <.L152>:
    2a1a:	ce 01       	movw	r24, r28
    2a1c:	89 51       	subi	r24, 0x19	; 25
    2a1e:	9f 4f       	sbci	r25, 0xFF	; 255
    2a20:	9e 01       	movw	r18, r28
    2a22:	2d 51       	subi	r18, 0x1D	; 29
    2a24:	3f 4f       	sbci	r19, 0xFF	; 255
    2a26:	d9 01       	movw	r26, r18
    2a28:	2d 91       	ld	r18, X+
    2a2a:	3c 91       	ld	r19, X
    2a2c:	fc 01       	movw	r30, r24
    2a2e:	31 83       	std	Z+1, r19	; 0x01
    2a30:	20 83       	st	Z, r18

00002a32 <.LBB212>:
    2a32:	ce 01       	movw	r24, r28
    2a34:	89 51       	subi	r24, 0x19	; 25
    2a36:	9f 4f       	sbci	r25, 0xFF	; 255
    2a38:	dc 01       	movw	r26, r24
    2a3a:	8d 91       	ld	r24, X+
    2a3c:	9c 91       	ld	r25, X

00002a3e <.L1^B32>:
    2a3e:	01 97       	sbiw	r24, 0x01	; 1
    2a40:	f1 f7       	brne	.-4      	; 0x2a3e <.L1^B32>
    2a42:	9e 01       	movw	r18, r28
    2a44:	29 51       	subi	r18, 0x19	; 25
    2a46:	3f 4f       	sbci	r19, 0xFF	; 255
    2a48:	f9 01       	movw	r30, r18
    2a4a:	91 83       	std	Z+1, r25	; 0x01
    2a4c:	80 83       	st	Z, r24

00002a4e <.Loc.395>:
	...

00002a50 <.L157>:
            {
                DEBOUNCE;
                h_bridge_set_percentage(0);         // h brug uit na limit switch voor de x-as //
    2a50:	80 e0       	ldi	r24, 0x00	; 0
    2a52:	0e 94 96 01 	call	0x32c	; 0x32c <h_bridge_set_percentage>

00002a56 <.Loc.397>:
                knop_ingedruktx = 1;
    2a56:	81 e0       	ldi	r24, 0x01	; 1
    2a58:	90 e0       	ldi	r25, 0x00	; 0
    2a5a:	9a 83       	std	Y+2, r25	; 0x02
    2a5c:	89 83       	std	Y+1, r24	; 0x01

00002a5e <.L149>:
            }
            if ((PINK & (1<<PK1)) != 0)             // limit switch zet de h brug op de y-as uit //
    2a5e:	86 e0       	ldi	r24, 0x06	; 6
    2a60:	91 e0       	ldi	r25, 0x01	; 1
    2a62:	dc 01       	movw	r26, r24
    2a64:	8c 91       	ld	r24, X

00002a66 <.Loc.399>:
    2a66:	88 2f       	mov	r24, r24
    2a68:	90 e0       	ldi	r25, 0x00	; 0
    2a6a:	82 70       	andi	r24, 0x02	; 2
    2a6c:	99 27       	eor	r25, r25

00002a6e <.Loc.400>:
    2a6e:	00 97       	sbiw	r24, 0x00	; 0
    2a70:	09 f4       	brne	.+2      	; 0x2a74 <L0^A+0x2>

00002a72 <L0^A>:
    2a72:	13 c1       	rjmp	.+550    	; 0x2c9a <.L158>
    2a74:	9e 01       	movw	r18, r28
    2a76:	27 51       	subi	r18, 0x17	; 23
    2a78:	3f 4f       	sbci	r19, 0xFF	; 255
    2a7a:	80 e0       	ldi	r24, 0x00	; 0
    2a7c:	90 e0       	ldi	r25, 0x00	; 0
    2a7e:	a8 e4       	ldi	r26, 0x48	; 72
    2a80:	b2 e4       	ldi	r27, 0x42	; 66
    2a82:	f9 01       	movw	r30, r18
    2a84:	80 83       	st	Z, r24
    2a86:	91 83       	std	Z+1, r25	; 0x01
    2a88:	a2 83       	std	Z+2, r26	; 0x02
    2a8a:	b3 83       	std	Z+3, r27	; 0x03

00002a8c <.LBB214>:
	__tmp = ((F_CPU) / 4e3) * __ms;
    2a8c:	8e 01       	movw	r16, r28
    2a8e:	03 51       	subi	r16, 0x13	; 19
    2a90:	1f 4f       	sbci	r17, 0xFF	; 255
    2a92:	ce 01       	movw	r24, r28
    2a94:	87 51       	subi	r24, 0x17	; 23
    2a96:	9f 4f       	sbci	r25, 0xFF	; 255
    2a98:	20 e0       	ldi	r18, 0x00	; 0
    2a9a:	30 e0       	ldi	r19, 0x00	; 0
    2a9c:	4a e7       	ldi	r20, 0x7A	; 122
    2a9e:	55 e4       	ldi	r21, 0x45	; 69
    2aa0:	dc 01       	movw	r26, r24
    2aa2:	6d 91       	ld	r22, X+
    2aa4:	7d 91       	ld	r23, X+
    2aa6:	8d 91       	ld	r24, X+
    2aa8:	9c 91       	ld	r25, X
    2aaa:	0e 94 47 18 	call	0x308e	; 0x308e <__mulsf3>
    2aae:	c3 5b       	subi	r28, 0xB3	; 179
    2ab0:	dd 4f       	sbci	r29, 0xFD	; 253
    2ab2:	68 83       	st	Y, r22
    2ab4:	79 83       	std	Y+1, r23	; 0x01
    2ab6:	8a 83       	std	Y+2, r24	; 0x02
    2ab8:	9b 83       	std	Y+3, r25	; 0x03
    2aba:	cd 54       	subi	r28, 0x4D	; 77
    2abc:	d2 40       	sbci	r29, 0x02	; 2
    2abe:	c3 5b       	subi	r28, 0xB3	; 179
    2ac0:	dd 4f       	sbci	r29, 0xFD	; 253
    2ac2:	88 81       	ld	r24, Y
    2ac4:	99 81       	ldd	r25, Y+1	; 0x01
    2ac6:	aa 81       	ldd	r26, Y+2	; 0x02
    2ac8:	bb 81       	ldd	r27, Y+3	; 0x03
    2aca:	cd 54       	subi	r28, 0x4D	; 77
    2acc:	d2 40       	sbci	r29, 0x02	; 2
    2ace:	f8 01       	movw	r30, r16
    2ad0:	80 83       	st	Z, r24
    2ad2:	91 83       	std	Z+1, r25	; 0x01
    2ad4:	a2 83       	std	Z+2, r26	; 0x02
    2ad6:	b3 83       	std	Z+3, r27	; 0x03

00002ad8 <.Loc.402>:
	if (__tmp < 1.0)
    2ad8:	ce 01       	movw	r24, r28
    2ada:	83 51       	subi	r24, 0x13	; 19
    2adc:	9f 4f       	sbci	r25, 0xFF	; 255
    2ade:	20 e0       	ldi	r18, 0x00	; 0
    2ae0:	30 e0       	ldi	r19, 0x00	; 0
    2ae2:	40 e8       	ldi	r20, 0x80	; 128
    2ae4:	5f e3       	ldi	r21, 0x3F	; 63
    2ae6:	dc 01       	movw	r26, r24
    2ae8:	6d 91       	ld	r22, X+
    2aea:	7d 91       	ld	r23, X+
    2aec:	8d 91       	ld	r24, X+
    2aee:	9c 91       	ld	r25, X
    2af0:	0e 94 c1 17 	call	0x2f82	; 0x2f82 <__cmpsf2>
    2af4:	88 23       	and	r24, r24
    2af6:	4c f4       	brge	.+18     	; 0x2b0a <.L246>

00002af8 <.Loc.403>:
		__ticks = 1;
    2af8:	ce 01       	movw	r24, r28
    2afa:	8f 50       	subi	r24, 0x0F	; 15
    2afc:	9f 4f       	sbci	r25, 0xFF	; 255
    2afe:	21 e0       	ldi	r18, 0x01	; 1
    2b00:	30 e0       	ldi	r19, 0x00	; 0
    2b02:	fc 01       	movw	r30, r24
    2b04:	31 83       	std	Z+1, r19	; 0x01
    2b06:	20 83       	st	Z, r18
    2b08:	a5 c0       	rjmp	.+330    	; 0x2c54 <.L161>

00002b0a <.L246>:
	else if (__tmp > 65535)
    2b0a:	ce 01       	movw	r24, r28
    2b0c:	83 51       	subi	r24, 0x13	; 19
    2b0e:	9f 4f       	sbci	r25, 0xFF	; 255
    2b10:	20 e0       	ldi	r18, 0x00	; 0
    2b12:	3f ef       	ldi	r19, 0xFF	; 255
    2b14:	4f e7       	ldi	r20, 0x7F	; 127
    2b16:	57 e4       	ldi	r21, 0x47	; 71
    2b18:	dc 01       	movw	r26, r24
    2b1a:	6d 91       	ld	r22, X+
    2b1c:	7d 91       	ld	r23, X+
    2b1e:	8d 91       	ld	r24, X+
    2b20:	9c 91       	ld	r25, X
    2b22:	0e 94 42 18 	call	0x3084	; 0x3084 <__gesf2>
    2b26:	88 23       	and	r24, r24
    2b28:	09 f0       	breq	.+2      	; 0x2b2c <L0^A>

00002b2a <L0^A>:
    2b2a:	0c f4       	brge	.+2      	; 0x2b2e <.Loc.405>

00002b2c <L0^A>:
    2b2c:	75 c0       	rjmp	.+234    	; 0x2c18 <.L247>

00002b2e <.Loc.405>:
		__ticks = (uint16_t) (__ms * 10.0);
    2b2e:	ce 01       	movw	r24, r28
    2b30:	87 51       	subi	r24, 0x17	; 23
    2b32:	9f 4f       	sbci	r25, 0xFF	; 255
    2b34:	20 e0       	ldi	r18, 0x00	; 0
    2b36:	30 e0       	ldi	r19, 0x00	; 0
    2b38:	40 e2       	ldi	r20, 0x20	; 32
    2b3a:	51 e4       	ldi	r21, 0x41	; 65
    2b3c:	fc 01       	movw	r30, r24
    2b3e:	60 81       	ld	r22, Z
    2b40:	71 81       	ldd	r23, Z+1	; 0x01
    2b42:	82 81       	ldd	r24, Z+2	; 0x02
    2b44:	93 81       	ldd	r25, Z+3	; 0x03
    2b46:	0e 94 47 18 	call	0x308e	; 0x308e <__mulsf3>
    2b4a:	cf 5a       	subi	r28, 0xAF	; 175
    2b4c:	dd 4f       	sbci	r29, 0xFD	; 253
    2b4e:	68 83       	st	Y, r22
    2b50:	79 83       	std	Y+1, r23	; 0x01
    2b52:	8a 83       	std	Y+2, r24	; 0x02
    2b54:	9b 83       	std	Y+3, r25	; 0x03
    2b56:	c1 55       	subi	r28, 0x51	; 81
    2b58:	d2 40       	sbci	r29, 0x02	; 2
    2b5a:	cf 5a       	subi	r28, 0xAF	; 175
    2b5c:	dd 4f       	sbci	r29, 0xFD	; 253
    2b5e:	88 81       	ld	r24, Y
    2b60:	99 81       	ldd	r25, Y+1	; 0x01
    2b62:	aa 81       	ldd	r26, Y+2	; 0x02
    2b64:	bb 81       	ldd	r27, Y+3	; 0x03
    2b66:	c1 55       	subi	r28, 0x51	; 81
    2b68:	d2 40       	sbci	r29, 0x02	; 2
    2b6a:	cb 5b       	subi	r28, 0xBB	; 187
    2b6c:	de 4f       	sbci	r29, 0xFE	; 254
    2b6e:	88 83       	st	Y, r24
    2b70:	99 83       	std	Y+1, r25	; 0x01
    2b72:	aa 83       	std	Y+2, r26	; 0x02
    2b74:	bb 83       	std	Y+3, r27	; 0x03
    2b76:	c5 54       	subi	r28, 0x45	; 69
    2b78:	d1 40       	sbci	r29, 0x01	; 1

00002b7a <.Loc.406>:
    2b7a:	8e 01       	movw	r16, r28
    2b7c:	0f 50       	subi	r16, 0x0F	; 15
    2b7e:	1f 4f       	sbci	r17, 0xFF	; 255
    2b80:	cb 5b       	subi	r28, 0xBB	; 187
    2b82:	de 4f       	sbci	r29, 0xFE	; 254
    2b84:	68 81       	ld	r22, Y
    2b86:	79 81       	ldd	r23, Y+1	; 0x01
    2b88:	8a 81       	ldd	r24, Y+2	; 0x02
    2b8a:	9b 81       	ldd	r25, Y+3	; 0x03
    2b8c:	c5 54       	subi	r28, 0x45	; 69
    2b8e:	d1 40       	sbci	r29, 0x01	; 1
    2b90:	0e 94 c6 17 	call	0x2f8c	; 0x2f8c <__fixunssfsi>
    2b94:	cb 5a       	subi	r28, 0xAB	; 171
    2b96:	dd 4f       	sbci	r29, 0xFD	; 253
    2b98:	68 83       	st	Y, r22
    2b9a:	79 83       	std	Y+1, r23	; 0x01
    2b9c:	8a 83       	std	Y+2, r24	; 0x02
    2b9e:	9b 83       	std	Y+3, r25	; 0x03
    2ba0:	c5 55       	subi	r28, 0x55	; 85
    2ba2:	d2 40       	sbci	r29, 0x02	; 2
    2ba4:	cb 5a       	subi	r28, 0xAB	; 171
    2ba6:	dd 4f       	sbci	r29, 0xFD	; 253
    2ba8:	e8 81       	ld	r30, Y
    2baa:	f9 81       	ldd	r31, Y+1	; 0x01
    2bac:	c5 55       	subi	r28, 0x55	; 85
    2bae:	d2 40       	sbci	r29, 0x02	; 2
    2bb0:	d8 01       	movw	r26, r16
    2bb2:	11 96       	adiw	r26, 0x01	; 1
    2bb4:	fc 93       	st	X, r31
    2bb6:	ee 93       	st	-X, r30

00002bb8 <.Loc.407>:
		while(__ticks)
    2bb8:	26 c0       	rjmp	.+76     	; 0x2c06 <.L164>

00002bba <.L165>:
    2bba:	ce 01       	movw	r24, r28
    2bbc:	8d 50       	subi	r24, 0x0D	; 13
    2bbe:	9f 4f       	sbci	r25, 0xFF	; 255
    2bc0:	20 e9       	ldi	r18, 0x90	; 144
    2bc2:	31 e0       	ldi	r19, 0x01	; 1
    2bc4:	dc 01       	movw	r26, r24
    2bc6:	2d 93       	st	X+, r18
    2bc8:	3c 93       	st	X, r19

00002bca <.LBB216>:
    2bca:	ce 01       	movw	r24, r28
    2bcc:	8d 50       	subi	r24, 0x0D	; 13
    2bce:	9f 4f       	sbci	r25, 0xFF	; 255
    2bd0:	fc 01       	movw	r30, r24
    2bd2:	80 81       	ld	r24, Z
    2bd4:	91 81       	ldd	r25, Z+1	; 0x01

00002bd6 <.L1^B33>:
    2bd6:	01 97       	sbiw	r24, 0x01	; 1
    2bd8:	f1 f7       	brne	.-4      	; 0x2bd6 <.L1^B33>
    2bda:	9e 01       	movw	r18, r28
    2bdc:	2d 50       	subi	r18, 0x0D	; 13
    2bde:	3f 4f       	sbci	r19, 0xFF	; 255
    2be0:	d9 01       	movw	r26, r18
    2be2:	8d 93       	st	X+, r24
    2be4:	9c 93       	st	X, r25

00002be6 <.Loc.409>:
	...

00002be8 <.LBE216>:
			__ticks --;
    2be8:	ce 01       	movw	r24, r28
    2bea:	8f 50       	subi	r24, 0x0F	; 15
    2bec:	9f 4f       	sbci	r25, 0xFF	; 255
    2bee:	9e 01       	movw	r18, r28
    2bf0:	2f 50       	subi	r18, 0x0F	; 15
    2bf2:	3f 4f       	sbci	r19, 0xFF	; 255
    2bf4:	f9 01       	movw	r30, r18
    2bf6:	20 81       	ld	r18, Z
    2bf8:	31 81       	ldd	r19, Z+1	; 0x01
    2bfa:	21 50       	subi	r18, 0x01	; 1
    2bfc:	31 09       	sbc	r19, r1
    2bfe:	dc 01       	movw	r26, r24
    2c00:	11 96       	adiw	r26, 0x01	; 1
    2c02:	3c 93       	st	X, r19
    2c04:	2e 93       	st	-X, r18

00002c06 <.L164>:
		while(__ticks)
    2c06:	ce 01       	movw	r24, r28
    2c08:	8f 50       	subi	r24, 0x0F	; 15
    2c0a:	9f 4f       	sbci	r25, 0xFF	; 255
    2c0c:	fc 01       	movw	r30, r24
    2c0e:	80 81       	ld	r24, Z
    2c10:	91 81       	ldd	r25, Z+1	; 0x01
    2c12:	00 97       	sbiw	r24, 0x00	; 0
    2c14:	91 f6       	brne	.-92     	; 0x2bba <.L165>

00002c16 <.Loc.412>:
		return;
    2c16:	39 c0       	rjmp	.+114    	; 0x2c8a <.L166>

00002c18 <.L247>:
		__ticks = (uint16_t)__tmp;
    2c18:	8e 01       	movw	r16, r28
    2c1a:	0f 50       	subi	r16, 0x0F	; 15
    2c1c:	1f 4f       	sbci	r17, 0xFF	; 255
    2c1e:	ce 01       	movw	r24, r28
    2c20:	83 51       	subi	r24, 0x13	; 19
    2c22:	9f 4f       	sbci	r25, 0xFF	; 255
    2c24:	dc 01       	movw	r26, r24
    2c26:	6d 91       	ld	r22, X+
    2c28:	7d 91       	ld	r23, X+
    2c2a:	8d 91       	ld	r24, X+
    2c2c:	9c 91       	ld	r25, X
    2c2e:	0e 94 c6 17 	call	0x2f8c	; 0x2f8c <__fixunssfsi>
    2c32:	c7 5a       	subi	r28, 0xA7	; 167
    2c34:	dd 4f       	sbci	r29, 0xFD	; 253
    2c36:	68 83       	st	Y, r22
    2c38:	79 83       	std	Y+1, r23	; 0x01
    2c3a:	8a 83       	std	Y+2, r24	; 0x02
    2c3c:	9b 83       	std	Y+3, r25	; 0x03
    2c3e:	c9 55       	subi	r28, 0x59	; 89
    2c40:	d2 40       	sbci	r29, 0x02	; 2
    2c42:	c7 5a       	subi	r28, 0xA7	; 167
    2c44:	dd 4f       	sbci	r29, 0xFD	; 253
    2c46:	88 81       	ld	r24, Y
    2c48:	99 81       	ldd	r25, Y+1	; 0x01
    2c4a:	c9 55       	subi	r28, 0x59	; 89
    2c4c:	d2 40       	sbci	r29, 0x02	; 2
    2c4e:	f8 01       	movw	r30, r16
    2c50:	91 83       	std	Z+1, r25	; 0x01
    2c52:	80 83       	st	Z, r24

00002c54 <.L161>:
    2c54:	ce 01       	movw	r24, r28
    2c56:	8b 50       	subi	r24, 0x0B	; 11
    2c58:	9f 4f       	sbci	r25, 0xFF	; 255
    2c5a:	9e 01       	movw	r18, r28
    2c5c:	2f 50       	subi	r18, 0x0F	; 15
    2c5e:	3f 4f       	sbci	r19, 0xFF	; 255
    2c60:	d9 01       	movw	r26, r18
    2c62:	2d 91       	ld	r18, X+
    2c64:	3c 91       	ld	r19, X
    2c66:	fc 01       	movw	r30, r24
    2c68:	31 83       	std	Z+1, r19	; 0x01
    2c6a:	20 83       	st	Z, r18

00002c6c <.LBB218>:
    2c6c:	ce 01       	movw	r24, r28
    2c6e:	8b 50       	subi	r24, 0x0B	; 11
    2c70:	9f 4f       	sbci	r25, 0xFF	; 255
    2c72:	dc 01       	movw	r26, r24
    2c74:	8d 91       	ld	r24, X+
    2c76:	9c 91       	ld	r25, X

00002c78 <.L1^B34>:
    2c78:	01 97       	sbiw	r24, 0x01	; 1
    2c7a:	f1 f7       	brne	.-4      	; 0x2c78 <.L1^B34>
    2c7c:	9e 01       	movw	r18, r28
    2c7e:	2b 50       	subi	r18, 0x0B	; 11
    2c80:	3f 4f       	sbci	r19, 0xFF	; 255
    2c82:	f9 01       	movw	r30, r18
    2c84:	91 83       	std	Z+1, r25	; 0x01
    2c86:	80 83       	st	Z, r24

00002c88 <.Loc.415>:
	...

00002c8a <.L166>:
            {
                DEBOUNCE;
                h_bridge_set_percentage2(0);        // h brug uit na limit switch voor de y-as //
    2c8a:	80 e0       	ldi	r24, 0x00	; 0
    2c8c:	90 e0       	ldi	r25, 0x00	; 0
    2c8e:	0e 94 ee 02 	call	0x5dc	; 0x5dc <h_bridge_set_percentage2>

00002c92 <.Loc.417>:
                knop_ingedrukty = 1;
    2c92:	81 e0       	ldi	r24, 0x01	; 1
    2c94:	90 e0       	ldi	r25, 0x00	; 0
    2c96:	9c 83       	std	Y+4, r25	; 0x04
    2c98:	8b 83       	std	Y+3, r24	; 0x03

00002c9a <.L158>:
            }
            if (knop_ingedruktx == knop_ingedrukty) // als beide assen zijn gestopt //
    2c9a:	29 81       	ldd	r18, Y+1	; 0x01
    2c9c:	3a 81       	ldd	r19, Y+2	; 0x02
    2c9e:	8b 81       	ldd	r24, Y+3	; 0x03
    2ca0:	9c 81       	ldd	r25, Y+4	; 0x04
    2ca2:	28 17       	cp	r18, r24
    2ca4:	39 07       	cpc	r19, r25
    2ca6:	09 f0       	breq	.+2      	; 0x2caa <.Loc.419>

00002ca8 <L0^A>:
    2ca8:	3e c1       	rjmp	.+636    	; 0x2f26 <.L254>

00002caa <.Loc.419>:
            {
                stand = 1;                          // door naar case 1 //
    2caa:	81 e0       	ldi	r24, 0x01	; 1
    2cac:	90 e0       	ldi	r25, 0x00	; 0
    2cae:	9e 83       	std	Y+6, r25	; 0x06
    2cb0:	8d 83       	std	Y+5, r24	; 0x05

00002cb2 <.Loc.420>:
            }
            break;
    2cb2:	39 c1       	rjmp	.+626    	; 0x2f26 <.L254>

00002cb4 <.L23>:
        case 6: // nood toestand
            DDRH |= (1<<PH5);                       // relay gaat aan //
    2cb4:	81 e0       	ldi	r24, 0x01	; 1
    2cb6:	91 e0       	ldi	r25, 0x01	; 1
    2cb8:	dc 01       	movw	r26, r24
    2cba:	2c 91       	ld	r18, X
    2cbc:	81 e0       	ldi	r24, 0x01	; 1
    2cbe:	91 e0       	ldi	r25, 0x01	; 1

00002cc0 <.Loc.422>:
    2cc0:	20 62       	ori	r18, 0x20	; 32
    2cc2:	fc 01       	movw	r30, r24
    2cc4:	20 83       	st	Z, r18

00002cc6 <.Loc.423>:
            if ((PINF & (1<<PF3)) == 0)             // noodstop wordt los gelaten //
    2cc6:	8f e2       	ldi	r24, 0x2F	; 47
    2cc8:	90 e0       	ldi	r25, 0x00	; 0
    2cca:	dc 01       	movw	r26, r24
    2ccc:	8c 91       	ld	r24, X

00002cce <.Loc.424>:
    2cce:	88 2f       	mov	r24, r24
    2cd0:	90 e0       	ldi	r25, 0x00	; 0
    2cd2:	88 70       	andi	r24, 0x08	; 8
    2cd4:	99 27       	eor	r25, r25

00002cd6 <.Loc.425>:
    2cd6:	00 97       	sbiw	r24, 0x00	; 0
    2cd8:	09 f0       	breq	.+2      	; 0x2cdc <L0^A+0x2>

00002cda <L0^A>:
    2cda:	28 c1       	rjmp	.+592    	; 0x2f2c <.L255>
    2cdc:	9e 01       	movw	r18, r28
    2cde:	29 50       	subi	r18, 0x09	; 9
    2ce0:	3f 4f       	sbci	r19, 0xFF	; 255
    2ce2:	80 e0       	ldi	r24, 0x00	; 0
    2ce4:	90 e0       	ldi	r25, 0x00	; 0
    2ce6:	a8 e4       	ldi	r26, 0x48	; 72
    2ce8:	b2 e4       	ldi	r27, 0x42	; 66
    2cea:	f9 01       	movw	r30, r18
    2cec:	80 83       	st	Z, r24
    2cee:	91 83       	std	Z+1, r25	; 0x01
    2cf0:	a2 83       	std	Z+2, r26	; 0x02
    2cf2:	b3 83       	std	Z+3, r27	; 0x03

00002cf4 <.LBB220>:
	__tmp = ((F_CPU) / 4e3) * __ms;
    2cf4:	8e 01       	movw	r16, r28
    2cf6:	05 50       	subi	r16, 0x05	; 5
    2cf8:	1f 4f       	sbci	r17, 0xFF	; 255
    2cfa:	ce 01       	movw	r24, r28
    2cfc:	89 50       	subi	r24, 0x09	; 9
    2cfe:	9f 4f       	sbci	r25, 0xFF	; 255
    2d00:	20 e0       	ldi	r18, 0x00	; 0
    2d02:	30 e0       	ldi	r19, 0x00	; 0
    2d04:	4a e7       	ldi	r20, 0x7A	; 122
    2d06:	55 e4       	ldi	r21, 0x45	; 69
    2d08:	dc 01       	movw	r26, r24
    2d0a:	6d 91       	ld	r22, X+
    2d0c:	7d 91       	ld	r23, X+
    2d0e:	8d 91       	ld	r24, X+
    2d10:	9c 91       	ld	r25, X
    2d12:	0e 94 47 18 	call	0x308e	; 0x308e <__mulsf3>
    2d16:	c3 5a       	subi	r28, 0xA3	; 163
    2d18:	dd 4f       	sbci	r29, 0xFD	; 253
    2d1a:	68 83       	st	Y, r22
    2d1c:	79 83       	std	Y+1, r23	; 0x01
    2d1e:	8a 83       	std	Y+2, r24	; 0x02
    2d20:	9b 83       	std	Y+3, r25	; 0x03
    2d22:	cd 55       	subi	r28, 0x5D	; 93
    2d24:	d2 40       	sbci	r29, 0x02	; 2
    2d26:	c3 5a       	subi	r28, 0xA3	; 163
    2d28:	dd 4f       	sbci	r29, 0xFD	; 253
    2d2a:	88 81       	ld	r24, Y
    2d2c:	99 81       	ldd	r25, Y+1	; 0x01
    2d2e:	aa 81       	ldd	r26, Y+2	; 0x02
    2d30:	bb 81       	ldd	r27, Y+3	; 0x03
    2d32:	cd 55       	subi	r28, 0x5D	; 93
    2d34:	d2 40       	sbci	r29, 0x02	; 2
    2d36:	f8 01       	movw	r30, r16
    2d38:	80 83       	st	Z, r24
    2d3a:	91 83       	std	Z+1, r25	; 0x01
    2d3c:	a2 83       	std	Z+2, r26	; 0x02
    2d3e:	b3 83       	std	Z+3, r27	; 0x03

00002d40 <.Loc.427>:
	if (__tmp < 1.0)
    2d40:	ce 01       	movw	r24, r28
    2d42:	85 50       	subi	r24, 0x05	; 5
    2d44:	9f 4f       	sbci	r25, 0xFF	; 255
    2d46:	20 e0       	ldi	r18, 0x00	; 0
    2d48:	30 e0       	ldi	r19, 0x00	; 0
    2d4a:	40 e8       	ldi	r20, 0x80	; 128
    2d4c:	5f e3       	ldi	r21, 0x3F	; 63
    2d4e:	dc 01       	movw	r26, r24
    2d50:	6d 91       	ld	r22, X+
    2d52:	7d 91       	ld	r23, X+
    2d54:	8d 91       	ld	r24, X+
    2d56:	9c 91       	ld	r25, X
    2d58:	0e 94 c1 17 	call	0x2f82	; 0x2f82 <__cmpsf2>
    2d5c:	88 23       	and	r24, r24
    2d5e:	4c f4       	brge	.+18     	; 0x2d72 <.L248>

00002d60 <.Loc.428>:
		__ticks = 1;
    2d60:	ce 01       	movw	r24, r28
    2d62:	81 50       	subi	r24, 0x01	; 1
    2d64:	9f 4f       	sbci	r25, 0xFF	; 255
    2d66:	21 e0       	ldi	r18, 0x01	; 1
    2d68:	30 e0       	ldi	r19, 0x00	; 0
    2d6a:	fc 01       	movw	r30, r24
    2d6c:	31 83       	std	Z+1, r19	; 0x01
    2d6e:	20 83       	st	Z, r18
    2d70:	a5 c0       	rjmp	.+330    	; 0x2ebc <.L171>

00002d72 <.L248>:
	else if (__tmp > 65535)
    2d72:	ce 01       	movw	r24, r28
    2d74:	85 50       	subi	r24, 0x05	; 5
    2d76:	9f 4f       	sbci	r25, 0xFF	; 255
    2d78:	20 e0       	ldi	r18, 0x00	; 0
    2d7a:	3f ef       	ldi	r19, 0xFF	; 255
    2d7c:	4f e7       	ldi	r20, 0x7F	; 127
    2d7e:	57 e4       	ldi	r21, 0x47	; 71
    2d80:	dc 01       	movw	r26, r24
    2d82:	6d 91       	ld	r22, X+
    2d84:	7d 91       	ld	r23, X+
    2d86:	8d 91       	ld	r24, X+
    2d88:	9c 91       	ld	r25, X
    2d8a:	0e 94 42 18 	call	0x3084	; 0x3084 <__gesf2>
    2d8e:	88 23       	and	r24, r24
    2d90:	09 f0       	breq	.+2      	; 0x2d94 <L0^A>

00002d92 <L0^A>:
    2d92:	0c f4       	brge	.+2      	; 0x2d96 <.Loc.430>

00002d94 <L0^A>:
    2d94:	75 c0       	rjmp	.+234    	; 0x2e80 <.L249>

00002d96 <.Loc.430>:
		__ticks = (uint16_t) (__ms * 10.0);
    2d96:	ce 01       	movw	r24, r28
    2d98:	89 50       	subi	r24, 0x09	; 9
    2d9a:	9f 4f       	sbci	r25, 0xFF	; 255
    2d9c:	20 e0       	ldi	r18, 0x00	; 0
    2d9e:	30 e0       	ldi	r19, 0x00	; 0
    2da0:	40 e2       	ldi	r20, 0x20	; 32
    2da2:	51 e4       	ldi	r21, 0x41	; 65
    2da4:	fc 01       	movw	r30, r24
    2da6:	60 81       	ld	r22, Z
    2da8:	71 81       	ldd	r23, Z+1	; 0x01
    2daa:	82 81       	ldd	r24, Z+2	; 0x02
    2dac:	93 81       	ldd	r25, Z+3	; 0x03
    2dae:	0e 94 47 18 	call	0x308e	; 0x308e <__mulsf3>
    2db2:	cf 59       	subi	r28, 0x9F	; 159
    2db4:	dd 4f       	sbci	r29, 0xFD	; 253
    2db6:	68 83       	st	Y, r22
    2db8:	79 83       	std	Y+1, r23	; 0x01
    2dba:	8a 83       	std	Y+2, r24	; 0x02
    2dbc:	9b 83       	std	Y+3, r25	; 0x03
    2dbe:	c1 56       	subi	r28, 0x61	; 97
    2dc0:	d2 40       	sbci	r29, 0x02	; 2
    2dc2:	cf 59       	subi	r28, 0x9F	; 159
    2dc4:	dd 4f       	sbci	r29, 0xFD	; 253
    2dc6:	88 81       	ld	r24, Y
    2dc8:	99 81       	ldd	r25, Y+1	; 0x01
    2dca:	aa 81       	ldd	r26, Y+2	; 0x02
    2dcc:	bb 81       	ldd	r27, Y+3	; 0x03
    2dce:	c1 56       	subi	r28, 0x61	; 97
    2dd0:	d2 40       	sbci	r29, 0x02	; 2
    2dd2:	c7 5b       	subi	r28, 0xB7	; 183
    2dd4:	de 4f       	sbci	r29, 0xFE	; 254
    2dd6:	88 83       	st	Y, r24
    2dd8:	99 83       	std	Y+1, r25	; 0x01
    2dda:	aa 83       	std	Y+2, r26	; 0x02
    2ddc:	bb 83       	std	Y+3, r27	; 0x03
    2dde:	c9 54       	subi	r28, 0x49	; 73
    2de0:	d1 40       	sbci	r29, 0x01	; 1

00002de2 <.Loc.431>:
    2de2:	8e 01       	movw	r16, r28
    2de4:	01 50       	subi	r16, 0x01	; 1
    2de6:	1f 4f       	sbci	r17, 0xFF	; 255
    2de8:	c7 5b       	subi	r28, 0xB7	; 183
    2dea:	de 4f       	sbci	r29, 0xFE	; 254
    2dec:	68 81       	ld	r22, Y
    2dee:	79 81       	ldd	r23, Y+1	; 0x01
    2df0:	8a 81       	ldd	r24, Y+2	; 0x02
    2df2:	9b 81       	ldd	r25, Y+3	; 0x03
    2df4:	c9 54       	subi	r28, 0x49	; 73
    2df6:	d1 40       	sbci	r29, 0x01	; 1
    2df8:	0e 94 c6 17 	call	0x2f8c	; 0x2f8c <__fixunssfsi>
    2dfc:	cb 59       	subi	r28, 0x9B	; 155
    2dfe:	dd 4f       	sbci	r29, 0xFD	; 253
    2e00:	68 83       	st	Y, r22
    2e02:	79 83       	std	Y+1, r23	; 0x01
    2e04:	8a 83       	std	Y+2, r24	; 0x02
    2e06:	9b 83       	std	Y+3, r25	; 0x03
    2e08:	c5 56       	subi	r28, 0x65	; 101
    2e0a:	d2 40       	sbci	r29, 0x02	; 2
    2e0c:	cb 59       	subi	r28, 0x9B	; 155
    2e0e:	dd 4f       	sbci	r29, 0xFD	; 253
    2e10:	e8 81       	ld	r30, Y
    2e12:	f9 81       	ldd	r31, Y+1	; 0x01
    2e14:	c5 56       	subi	r28, 0x65	; 101
    2e16:	d2 40       	sbci	r29, 0x02	; 2
    2e18:	d8 01       	movw	r26, r16
    2e1a:	11 96       	adiw	r26, 0x01	; 1
    2e1c:	fc 93       	st	X, r31
    2e1e:	ee 93       	st	-X, r30

00002e20 <.Loc.432>:
		while(__ticks)
    2e20:	26 c0       	rjmp	.+76     	; 0x2e6e <.L174>

00002e22 <.L175>:
    2e22:	ce 01       	movw	r24, r28
    2e24:	8f 5f       	subi	r24, 0xFF	; 255
    2e26:	9e 4f       	sbci	r25, 0xFE	; 254
    2e28:	20 e9       	ldi	r18, 0x90	; 144
    2e2a:	31 e0       	ldi	r19, 0x01	; 1
    2e2c:	dc 01       	movw	r26, r24
    2e2e:	2d 93       	st	X+, r18
    2e30:	3c 93       	st	X, r19

00002e32 <.LBB222>:
    2e32:	ce 01       	movw	r24, r28
    2e34:	8f 5f       	subi	r24, 0xFF	; 255
    2e36:	9e 4f       	sbci	r25, 0xFE	; 254
    2e38:	fc 01       	movw	r30, r24
    2e3a:	80 81       	ld	r24, Z
    2e3c:	91 81       	ldd	r25, Z+1	; 0x01

00002e3e <.L1^B35>:
    2e3e:	01 97       	sbiw	r24, 0x01	; 1
    2e40:	f1 f7       	brne	.-4      	; 0x2e3e <.L1^B35>
    2e42:	9e 01       	movw	r18, r28
    2e44:	2f 5f       	subi	r18, 0xFF	; 255
    2e46:	3e 4f       	sbci	r19, 0xFE	; 254
    2e48:	d9 01       	movw	r26, r18
    2e4a:	8d 93       	st	X+, r24
    2e4c:	9c 93       	st	X, r25

00002e4e <.Loc.434>:
	...

00002e50 <.LBE222>:
			__ticks --;
    2e50:	ce 01       	movw	r24, r28
    2e52:	81 50       	subi	r24, 0x01	; 1
    2e54:	9f 4f       	sbci	r25, 0xFF	; 255
    2e56:	9e 01       	movw	r18, r28
    2e58:	21 50       	subi	r18, 0x01	; 1
    2e5a:	3f 4f       	sbci	r19, 0xFF	; 255
    2e5c:	f9 01       	movw	r30, r18
    2e5e:	20 81       	ld	r18, Z
    2e60:	31 81       	ldd	r19, Z+1	; 0x01
    2e62:	21 50       	subi	r18, 0x01	; 1
    2e64:	31 09       	sbc	r19, r1
    2e66:	dc 01       	movw	r26, r24
    2e68:	11 96       	adiw	r26, 0x01	; 1
    2e6a:	3c 93       	st	X, r19
    2e6c:	2e 93       	st	-X, r18

00002e6e <.L174>:
		while(__ticks)
    2e6e:	ce 01       	movw	r24, r28
    2e70:	81 50       	subi	r24, 0x01	; 1
    2e72:	9f 4f       	sbci	r25, 0xFF	; 255
    2e74:	fc 01       	movw	r30, r24
    2e76:	80 81       	ld	r24, Z
    2e78:	91 81       	ldd	r25, Z+1	; 0x01
    2e7a:	00 97       	sbiw	r24, 0x00	; 0
    2e7c:	91 f6       	brne	.-92     	; 0x2e22 <.L175>

00002e7e <.Loc.437>:
		return;
    2e7e:	39 c0       	rjmp	.+114    	; 0x2ef2 <.L176>

00002e80 <.L249>:
		__ticks = (uint16_t)__tmp;
    2e80:	8e 01       	movw	r16, r28
    2e82:	01 50       	subi	r16, 0x01	; 1
    2e84:	1f 4f       	sbci	r17, 0xFF	; 255
    2e86:	ce 01       	movw	r24, r28
    2e88:	85 50       	subi	r24, 0x05	; 5
    2e8a:	9f 4f       	sbci	r25, 0xFF	; 255
    2e8c:	dc 01       	movw	r26, r24
    2e8e:	6d 91       	ld	r22, X+
    2e90:	7d 91       	ld	r23, X+
    2e92:	8d 91       	ld	r24, X+
    2e94:	9c 91       	ld	r25, X
    2e96:	0e 94 c6 17 	call	0x2f8c	; 0x2f8c <__fixunssfsi>
    2e9a:	c7 59       	subi	r28, 0x97	; 151
    2e9c:	dd 4f       	sbci	r29, 0xFD	; 253
    2e9e:	68 83       	st	Y, r22
    2ea0:	79 83       	std	Y+1, r23	; 0x01
    2ea2:	8a 83       	std	Y+2, r24	; 0x02
    2ea4:	9b 83       	std	Y+3, r25	; 0x03
    2ea6:	c9 56       	subi	r28, 0x69	; 105
    2ea8:	d2 40       	sbci	r29, 0x02	; 2
    2eaa:	c7 59       	subi	r28, 0x97	; 151
    2eac:	dd 4f       	sbci	r29, 0xFD	; 253
    2eae:	88 81       	ld	r24, Y
    2eb0:	99 81       	ldd	r25, Y+1	; 0x01
    2eb2:	c9 56       	subi	r28, 0x69	; 105
    2eb4:	d2 40       	sbci	r29, 0x02	; 2
    2eb6:	f8 01       	movw	r30, r16
    2eb8:	91 83       	std	Z+1, r25	; 0x01
    2eba:	80 83       	st	Z, r24

00002ebc <.L171>:
    2ebc:	ce 01       	movw	r24, r28
    2ebe:	8d 5f       	subi	r24, 0xFD	; 253
    2ec0:	9e 4f       	sbci	r25, 0xFE	; 254
    2ec2:	9e 01       	movw	r18, r28
    2ec4:	21 50       	subi	r18, 0x01	; 1
    2ec6:	3f 4f       	sbci	r19, 0xFF	; 255
    2ec8:	d9 01       	movw	r26, r18
    2eca:	2d 91       	ld	r18, X+
    2ecc:	3c 91       	ld	r19, X
    2ece:	fc 01       	movw	r30, r24
    2ed0:	31 83       	std	Z+1, r19	; 0x01
    2ed2:	20 83       	st	Z, r18

00002ed4 <.LBB224>:
    2ed4:	ce 01       	movw	r24, r28
    2ed6:	8d 5f       	subi	r24, 0xFD	; 253
    2ed8:	9e 4f       	sbci	r25, 0xFE	; 254
    2eda:	dc 01       	movw	r26, r24
    2edc:	8d 91       	ld	r24, X+
    2ede:	9c 91       	ld	r25, X

00002ee0 <.L1^B36>:
    2ee0:	01 97       	sbiw	r24, 0x01	; 1
    2ee2:	f1 f7       	brne	.-4      	; 0x2ee0 <.L1^B36>
    2ee4:	9e 01       	movw	r18, r28
    2ee6:	2d 5f       	subi	r18, 0xFD	; 253
    2ee8:	3e 4f       	sbci	r19, 0xFE	; 254
    2eea:	f9 01       	movw	r30, r18
    2eec:	91 83       	std	Z+1, r25	; 0x01
    2eee:	80 83       	st	Z, r24

00002ef0 <.Loc.440>:
	...

00002ef2 <.L176>:
            {
                DEBOUNCE;
                DDRH &= ~(1<<PH5);                  // relay gaat uit //
    2ef2:	81 e0       	ldi	r24, 0x01	; 1
    2ef4:	91 e0       	ldi	r25, 0x01	; 1
    2ef6:	dc 01       	movw	r26, r24
    2ef8:	2c 91       	ld	r18, X

00002efa <.Loc.442>:
    2efa:	81 e0       	ldi	r24, 0x01	; 1
    2efc:	91 e0       	ldi	r25, 0x01	; 1

00002efe <.Loc.443>:
    2efe:	2f 7d       	andi	r18, 0xDF	; 223
    2f00:	fc 01       	movw	r30, r24
    2f02:	20 83       	st	Z, r18

00002f04 <.Loc.444>:
                stand = 1;                          // terug naar stand 1 //
    2f04:	81 e0       	ldi	r24, 0x01	; 1
    2f06:	90 e0       	ldi	r25, 0x00	; 0
    2f08:	9e 83       	std	Y+6, r25	; 0x06
    2f0a:	8d 83       	std	Y+5, r24	; 0x05

00002f0c <.Loc.445>:
            }
            break;
    2f0c:	0f c0       	rjmp	.+30     	; 0x2f2c <.L255>

00002f0e <.L250>:
            break;
    2f0e:	00 00       	nop
    2f10:	0c 94 14 04 	jmp	0x828	; 0x828 <.L177>

00002f14 <.L251>:
            break;
    2f14:	00 00       	nop
    2f16:	0c 94 14 04 	jmp	0x828	; 0x828 <.L177>

00002f1a <.L252>:
            break;
    2f1a:	00 00       	nop
    2f1c:	0c 94 14 04 	jmp	0x828	; 0x828 <.L177>

00002f20 <.L253>:
            break;
    2f20:	00 00       	nop
    2f22:	0c 94 14 04 	jmp	0x828	; 0x828 <.L177>

00002f26 <.L254>:
            break;
    2f26:	00 00       	nop
    2f28:	0c 94 14 04 	jmp	0x828	; 0x828 <.L177>

00002f2c <.L255>:
	...

00002f2e <.L24>:
        if ((PINF & (1<<PF3)) != 0)                 // noodstop //
    2f2e:	0c 94 14 04 	jmp	0x828	; 0x828 <.L177>

00002f32 <__divmodhi4>:
    2f32:	97 fb       	bst	r25, 7

00002f34 <.Loc.1>:
    2f34:	07 2e       	mov	r0, r23

00002f36 <.Loc.2>:
    2f36:	16 f4       	brtc	.+4      	; 0x2f3c <.L^B1>

00002f38 <.Loc.3>:
    2f38:	00 94       	com	r0

00002f3a <.Loc.4>:
    2f3a:	07 d0       	rcall	.+14     	; 0x2f4a <__divmodhi4_neg1>

00002f3c <.L^B1>:
    2f3c:	77 fd       	sbrc	r23, 7

00002f3e <.Loc.6>:
    2f3e:	09 d0       	rcall	.+18     	; 0x2f52 <__divmodhi4_neg2>

00002f40 <.Loc.7>:
    2f40:	0e 94 ad 17 	call	0x2f5a	; 0x2f5a <__udivmodhi4>

00002f44 <.Loc.8>:
    2f44:	07 fc       	sbrc	r0, 7

00002f46 <.Loc.9>:
    2f46:	05 d0       	rcall	.+10     	; 0x2f52 <__divmodhi4_neg2>

00002f48 <.Loc.10>:
    2f48:	3e f4       	brtc	.+14     	; 0x2f58 <__divmodhi4_exit>

00002f4a <__divmodhi4_neg1>:
    2f4a:	90 95       	com	r25

00002f4c <.Loc.12>:
    2f4c:	81 95       	neg	r24

00002f4e <.Loc.13>:
    2f4e:	9f 4f       	sbci	r25, 0xFF	; 255

00002f50 <.Loc.14>:
    2f50:	08 95       	ret

00002f52 <__divmodhi4_neg2>:
    2f52:	70 95       	com	r23

00002f54 <.Loc.16>:
    2f54:	61 95       	neg	r22

00002f56 <.Loc.17>:
    2f56:	7f 4f       	sbci	r23, 0xFF	; 255

00002f58 <__divmodhi4_exit>:
    2f58:	08 95       	ret

00002f5a <__udivmodhi4>:
    2f5a:	aa 1b       	sub	r26, r26

00002f5c <.Loc.1>:
    2f5c:	bb 1b       	sub	r27, r27

00002f5e <.Loc.2>:
    2f5e:	51 e1       	ldi	r21, 0x11	; 17

00002f60 <.Loc.3>:
    2f60:	07 c0       	rjmp	.+14     	; 0x2f70 <__udivmodhi4_ep>

00002f62 <__udivmodhi4_loop>:
    2f62:	aa 1f       	adc	r26, r26

00002f64 <.Loc.5>:
    2f64:	bb 1f       	adc	r27, r27

00002f66 <.Loc.6>:
    2f66:	a6 17       	cp	r26, r22

00002f68 <.Loc.7>:
    2f68:	b7 07       	cpc	r27, r23

00002f6a <.Loc.8>:
    2f6a:	10 f0       	brcs	.+4      	; 0x2f70 <__udivmodhi4_ep>

00002f6c <.Loc.9>:
    2f6c:	a6 1b       	sub	r26, r22

00002f6e <.Loc.10>:
    2f6e:	b7 0b       	sbc	r27, r23

00002f70 <__udivmodhi4_ep>:
    2f70:	88 1f       	adc	r24, r24

00002f72 <.Loc.12>:
    2f72:	99 1f       	adc	r25, r25

00002f74 <.Loc.13>:
    2f74:	5a 95       	dec	r21

00002f76 <.Loc.14>:
    2f76:	a9 f7       	brne	.-22     	; 0x2f62 <__udivmodhi4_loop>

00002f78 <.Loc.15>:
    2f78:	80 95       	com	r24

00002f7a <.Loc.16>:
    2f7a:	90 95       	com	r25

00002f7c <.Loc.17>:
    2f7c:	bc 01       	movw	r22, r24

00002f7e <.Loc.18>:
    2f7e:	cd 01       	movw	r24, r26

00002f80 <.Loc.19>:
    2f80:	08 95       	ret

00002f82 <__cmpsf2>:
    2f82:	0e 94 f5 17 	call	0x2fea	; 0x2fea <__fp_cmp>
    2f86:	08 f4       	brcc	.+2      	; 0x2f8a <.L1^B1>
    2f88:	81 e0       	ldi	r24, 0x01	; 1

00002f8a <.L1^B1>:
    2f8a:	08 95       	ret

00002f8c <__fixunssfsi>:
    2f8c:	0e 94 21 18 	call	0x3042	; 0x3042 <__fp_splitA>
    2f90:	88 f0       	brcs	.+34     	; 0x2fb4 <.L_err>
    2f92:	9f 57       	subi	r25, 0x7F	; 127
    2f94:	98 f0       	brcs	.+38     	; 0x2fbc <.L_zr>
    2f96:	b9 2f       	mov	r27, r25
    2f98:	99 27       	eor	r25, r25
    2f9a:	b7 51       	subi	r27, 0x17	; 23
    2f9c:	b0 f0       	brcs	.+44     	; 0x2fca <.L4^B1>
    2f9e:	e1 f0       	breq	.+56     	; 0x2fd8 <.L_sign>

00002fa0 <.L1^B1>:
    2fa0:	66 0f       	add	r22, r22
    2fa2:	77 1f       	adc	r23, r23
    2fa4:	88 1f       	adc	r24, r24
    2fa6:	99 1f       	adc	r25, r25
    2fa8:	1a f0       	brmi	.+6      	; 0x2fb0 <.L2^B1>
    2faa:	ba 95       	dec	r27
    2fac:	c9 f7       	brne	.-14     	; 0x2fa0 <.L1^B1>
    2fae:	14 c0       	rjmp	.+40     	; 0x2fd8 <.L_sign>

00002fb0 <.L2^B1>:
    2fb0:	b1 30       	cpi	r27, 0x01	; 1
    2fb2:	91 f0       	breq	.+36     	; 0x2fd8 <.L_sign>

00002fb4 <.L_err>:
    2fb4:	0e 94 3b 18 	call	0x3076	; 0x3076 <__fp_zero>
    2fb8:	b1 e0       	ldi	r27, 0x01	; 1
    2fba:	08 95       	ret

00002fbc <.L_zr>:
    2fbc:	0c 94 3b 18 	jmp	0x3076	; 0x3076 <__fp_zero>

00002fc0 <.L3^B1>:
    2fc0:	67 2f       	mov	r22, r23
    2fc2:	78 2f       	mov	r23, r24
    2fc4:	88 27       	eor	r24, r24
    2fc6:	b8 5f       	subi	r27, 0xF8	; 248
    2fc8:	39 f0       	breq	.+14     	; 0x2fd8 <.L_sign>

00002fca <.L4^B1>:
    2fca:	b9 3f       	cpi	r27, 0xF9	; 249
    2fcc:	cc f3       	brlt	.-14     	; 0x2fc0 <.L3^B1>

00002fce <.L5^B1>:
    2fce:	86 95       	lsr	r24
    2fd0:	77 95       	ror	r23
    2fd2:	67 95       	ror	r22
    2fd4:	b3 95       	inc	r27
    2fd6:	d9 f7       	brne	.-10     	; 0x2fce <.L5^B1>

00002fd8 <.L_sign>:
    2fd8:	3e f4       	brtc	.+14     	; 0x2fe8 <.L6^B1>
    2fda:	90 95       	com	r25
    2fdc:	80 95       	com	r24
    2fde:	70 95       	com	r23
    2fe0:	61 95       	neg	r22
    2fe2:	7f 4f       	sbci	r23, 0xFF	; 255
    2fe4:	8f 4f       	sbci	r24, 0xFF	; 255
    2fe6:	9f 4f       	sbci	r25, 0xFF	; 255

00002fe8 <.L6^B1>:
    2fe8:	08 95       	ret

00002fea <__fp_cmp>:
    2fea:	99 0f       	add	r25, r25
    2fec:	00 08       	sbc	r0, r0
    2fee:	55 0f       	add	r21, r21
    2ff0:	aa 0b       	sbc	r26, r26
    2ff2:	e0 e8       	ldi	r30, 0x80	; 128
    2ff4:	fe ef       	ldi	r31, 0xFE	; 254
    2ff6:	16 16       	cp	r1, r22
    2ff8:	17 06       	cpc	r1, r23
    2ffa:	e8 07       	cpc	r30, r24
    2ffc:	f9 07       	cpc	r31, r25
    2ffe:	c0 f0       	brcs	.+48     	; 0x3030 <.L9^B1>
    3000:	12 16       	cp	r1, r18
    3002:	13 06       	cpc	r1, r19
    3004:	e4 07       	cpc	r30, r20
    3006:	f5 07       	cpc	r31, r21
    3008:	98 f0       	brcs	.+38     	; 0x3030 <.L9^B1>
    300a:	62 1b       	sub	r22, r18
    300c:	73 0b       	sbc	r23, r19
    300e:	84 0b       	sbc	r24, r20
    3010:	95 0b       	sbc	r25, r21
    3012:	39 f4       	brne	.+14     	; 0x3022 <.L1^B1>
    3014:	0a 26       	eor	r0, r26
    3016:	61 f0       	breq	.+24     	; 0x3030 <.L9^B1>
    3018:	23 2b       	or	r18, r19
    301a:	24 2b       	or	r18, r20
    301c:	25 2b       	or	r18, r21
    301e:	21 f4       	brne	.+8      	; 0x3028 <.L2^B1>
    3020:	08 95       	ret

00003022 <.L1^B1>:
    3022:	0a 26       	eor	r0, r26
    3024:	09 f4       	brne	.+2      	; 0x3028 <.L2^B1>
    3026:	a1 40       	sbci	r26, 0x01	; 1

00003028 <.L2^B1>:
    3028:	a6 95       	lsr	r26
    302a:	8f ef       	ldi	r24, 0xFF	; 255
    302c:	81 1d       	adc	r24, r1
    302e:	81 1d       	adc	r24, r1

00003030 <.L9^B1>:
    3030:	08 95       	ret

00003032 <__fp_split3>:
    3032:	57 fd       	sbrc	r21, 7
    3034:	90 58       	subi	r25, 0x80	; 128
    3036:	44 0f       	add	r20, r20
    3038:	55 1f       	adc	r21, r21
    303a:	59 f0       	breq	.+22     	; 0x3052 <.L4^B1>
    303c:	5f 3f       	cpi	r21, 0xFF	; 255
    303e:	71 f0       	breq	.+28     	; 0x305c <.L5^B1>

00003040 <.L1^B1>:
    3040:	47 95       	ror	r20

00003042 <__fp_splitA>:
    3042:	88 0f       	add	r24, r24
    3044:	97 fb       	bst	r25, 7
    3046:	99 1f       	adc	r25, r25
    3048:	61 f0       	breq	.+24     	; 0x3062 <.L6^B1>
    304a:	9f 3f       	cpi	r25, 0xFF	; 255
    304c:	79 f0       	breq	.+30     	; 0x306c <.L7^B1>

0000304e <.L3^B1>:
    304e:	87 95       	ror	r24
    3050:	08 95       	ret

00003052 <.L4^B1>:
    3052:	12 16       	cp	r1, r18
    3054:	13 06       	cpc	r1, r19
    3056:	14 06       	cpc	r1, r20
    3058:	55 1f       	adc	r21, r21
    305a:	f2 cf       	rjmp	.-28     	; 0x3040 <.L1^B1>

0000305c <.L5^B1>:
    305c:	46 95       	lsr	r20
    305e:	f1 df       	rcall	.-30     	; 0x3042 <__fp_splitA>
    3060:	08 c0       	rjmp	.+16     	; 0x3072 <.L8^B1>

00003062 <.L6^B1>:
    3062:	16 16       	cp	r1, r22
    3064:	17 06       	cpc	r1, r23
    3066:	18 06       	cpc	r1, r24
    3068:	99 1f       	adc	r25, r25
    306a:	f1 cf       	rjmp	.-30     	; 0x304e <.L3^B1>

0000306c <.L7^B1>:
    306c:	86 95       	lsr	r24
    306e:	71 05       	cpc	r23, r1
    3070:	61 05       	cpc	r22, r1

00003072 <.L8^B1>:
    3072:	08 94       	sec
    3074:	08 95       	ret

00003076 <__fp_zero>:
    3076:	e8 94       	clt

00003078 <__fp_szero>:
    3078:	bb 27       	eor	r27, r27
    307a:	66 27       	eor	r22, r22
    307c:	77 27       	eor	r23, r23
    307e:	cb 01       	movw	r24, r22
    3080:	97 f9       	bld	r25, 7
    3082:	08 95       	ret

00003084 <__gesf2>:
    3084:	0e 94 f5 17 	call	0x2fea	; 0x2fea <__fp_cmp>
    3088:	08 f4       	brcc	.+2      	; 0x308c <.L1^B1>
    308a:	8f ef       	ldi	r24, 0xFF	; 255

0000308c <.L1^B1>:
    308c:	08 95       	ret

0000308e <__mulsf3>:
    308e:	0e 94 5a 18 	call	0x30b4	; 0x30b4 <__mulsf3x>
    3092:	0c 94 cb 18 	jmp	0x3196	; 0x3196 <__fp_round>

00003096 <.L^B1>:
    3096:	0e 94 bd 18 	call	0x317a	; 0x317a <__fp_pscA>
    309a:	38 f0       	brcs	.+14     	; 0x30aa <.L1^B1>
    309c:	0e 94 c4 18 	call	0x3188	; 0x3188 <__fp_pscB>
    30a0:	20 f0       	brcs	.+8      	; 0x30aa <.L1^B1>
    30a2:	95 23       	and	r25, r21
    30a4:	11 f0       	breq	.+4      	; 0x30aa <.L1^B1>
    30a6:	0c 94 b4 18 	jmp	0x3168	; 0x3168 <__fp_inf>

000030aa <.L1^B1>:
    30aa:	0c 94 ba 18 	jmp	0x3174	; 0x3174 <__fp_nan>

000030ae <.L2^B1>:
    30ae:	11 24       	eor	r1, r1
    30b0:	0c 94 3c 18 	jmp	0x3078	; 0x3078 <__fp_szero>

000030b4 <__mulsf3x>:
    30b4:	0e 94 19 18 	call	0x3032	; 0x3032 <__fp_split3>
    30b8:	70 f3       	brcs	.-36     	; 0x3096 <.L^B1>

000030ba <__mulsf3_pse>:
    30ba:	95 9f       	mul	r25, r21
    30bc:	c1 f3       	breq	.-16     	; 0x30ae <.L2^B1>
    30be:	95 0f       	add	r25, r21
    30c0:	50 e0       	ldi	r21, 0x00	; 0
    30c2:	55 1f       	adc	r21, r21
    30c4:	62 9f       	mul	r22, r18
    30c6:	f0 01       	movw	r30, r0
    30c8:	72 9f       	mul	r23, r18
    30ca:	bb 27       	eor	r27, r27
    30cc:	f0 0d       	add	r31, r0
    30ce:	b1 1d       	adc	r27, r1
    30d0:	63 9f       	mul	r22, r19
    30d2:	aa 27       	eor	r26, r26
    30d4:	f0 0d       	add	r31, r0
    30d6:	b1 1d       	adc	r27, r1
    30d8:	aa 1f       	adc	r26, r26
    30da:	64 9f       	mul	r22, r20
    30dc:	66 27       	eor	r22, r22
    30de:	b0 0d       	add	r27, r0
    30e0:	a1 1d       	adc	r26, r1
    30e2:	66 1f       	adc	r22, r22
    30e4:	82 9f       	mul	r24, r18
    30e6:	22 27       	eor	r18, r18
    30e8:	b0 0d       	add	r27, r0
    30ea:	a1 1d       	adc	r26, r1
    30ec:	62 1f       	adc	r22, r18
    30ee:	73 9f       	mul	r23, r19
    30f0:	b0 0d       	add	r27, r0
    30f2:	a1 1d       	adc	r26, r1
    30f4:	62 1f       	adc	r22, r18
    30f6:	83 9f       	mul	r24, r19
    30f8:	a0 0d       	add	r26, r0
    30fa:	61 1d       	adc	r22, r1
    30fc:	22 1f       	adc	r18, r18
    30fe:	74 9f       	mul	r23, r20
    3100:	33 27       	eor	r19, r19
    3102:	a0 0d       	add	r26, r0
    3104:	61 1d       	adc	r22, r1
    3106:	23 1f       	adc	r18, r19
    3108:	84 9f       	mul	r24, r20
    310a:	60 0d       	add	r22, r0
    310c:	21 1d       	adc	r18, r1
    310e:	82 2f       	mov	r24, r18
    3110:	76 2f       	mov	r23, r22
    3112:	6a 2f       	mov	r22, r26
    3114:	11 24       	eor	r1, r1
    3116:	9f 57       	subi	r25, 0x7F	; 127
    3118:	50 40       	sbci	r21, 0x00	; 0
    311a:	9a f0       	brmi	.+38     	; 0x3142 <.L13^B1>
    311c:	f1 f0       	breq	.+60     	; 0x315a <.L15^B1>

0000311e <.L10^B1>:
    311e:	88 23       	and	r24, r24
    3120:	4a f0       	brmi	.+18     	; 0x3134 <.L11^B1>
    3122:	ee 0f       	add	r30, r30
    3124:	ff 1f       	adc	r31, r31
    3126:	bb 1f       	adc	r27, r27
    3128:	66 1f       	adc	r22, r22
    312a:	77 1f       	adc	r23, r23
    312c:	88 1f       	adc	r24, r24
    312e:	91 50       	subi	r25, 0x01	; 1
    3130:	50 40       	sbci	r21, 0x00	; 0
    3132:	a9 f7       	brne	.-22     	; 0x311e <.L10^B1>

00003134 <.L11^B1>:
    3134:	9e 3f       	cpi	r25, 0xFE	; 254
    3136:	51 05       	cpc	r21, r1
    3138:	80 f0       	brcs	.+32     	; 0x315a <.L15^B1>
    313a:	0c 94 b4 18 	jmp	0x3168	; 0x3168 <__fp_inf>

0000313e <.L12^B1>:
    313e:	0c 94 3c 18 	jmp	0x3078	; 0x3078 <__fp_szero>

00003142 <.L13^B1>:
    3142:	5f 3f       	cpi	r21, 0xFF	; 255
    3144:	e4 f3       	brlt	.-8      	; 0x313e <.L12^B1>
    3146:	98 3e       	cpi	r25, 0xE8	; 232
    3148:	d4 f3       	brlt	.-12     	; 0x313e <.L12^B1>

0000314a <.L14^B1>:
    314a:	86 95       	lsr	r24
    314c:	77 95       	ror	r23
    314e:	67 95       	ror	r22
    3150:	b7 95       	ror	r27
    3152:	f7 95       	ror	r31
    3154:	e7 95       	ror	r30
    3156:	9f 5f       	subi	r25, 0xFF	; 255
    3158:	c1 f7       	brne	.-16     	; 0x314a <.L14^B1>

0000315a <.L15^B1>:
    315a:	fe 2b       	or	r31, r30
    315c:	88 0f       	add	r24, r24
    315e:	91 1d       	adc	r25, r1
    3160:	96 95       	lsr	r25
    3162:	87 95       	ror	r24
    3164:	97 f9       	bld	r25, 7
    3166:	08 95       	ret

00003168 <__fp_inf>:
    3168:	97 f9       	bld	r25, 7
    316a:	9f 67       	ori	r25, 0x7F	; 127
    316c:	80 e8       	ldi	r24, 0x80	; 128
    316e:	70 e0       	ldi	r23, 0x00	; 0
    3170:	60 e0       	ldi	r22, 0x00	; 0
    3172:	08 95       	ret

00003174 <__fp_nan>:
    3174:	9f ef       	ldi	r25, 0xFF	; 255
    3176:	80 ec       	ldi	r24, 0xC0	; 192
    3178:	08 95       	ret

0000317a <__fp_pscA>:
    317a:	00 24       	eor	r0, r0
    317c:	0a 94       	dec	r0
    317e:	16 16       	cp	r1, r22
    3180:	17 06       	cpc	r1, r23
    3182:	18 06       	cpc	r1, r24
    3184:	09 06       	cpc	r0, r25
    3186:	08 95       	ret

00003188 <__fp_pscB>:
    3188:	00 24       	eor	r0, r0
    318a:	0a 94       	dec	r0
    318c:	12 16       	cp	r1, r18
    318e:	13 06       	cpc	r1, r19
    3190:	14 06       	cpc	r1, r20
    3192:	05 06       	cpc	r0, r21
    3194:	08 95       	ret

00003196 <__fp_round>:
    3196:	09 2e       	mov	r0, r25
    3198:	03 94       	inc	r0
    319a:	00 0c       	add	r0, r0
    319c:	11 f4       	brne	.+4      	; 0x31a2 <.L1^B1>
    319e:	88 23       	and	r24, r24
    31a0:	52 f0       	brmi	.+20     	; 0x31b6 <.L3^B1>

000031a2 <.L1^B1>:
    31a2:	bb 0f       	add	r27, r27
    31a4:	40 f4       	brcc	.+16     	; 0x31b6 <.L3^B1>
    31a6:	bf 2b       	or	r27, r31
    31a8:	11 f4       	brne	.+4      	; 0x31ae <.L2^B1>
    31aa:	60 ff       	sbrs	r22, 0
    31ac:	04 c0       	rjmp	.+8      	; 0x31b6 <.L3^B1>

000031ae <.L2^B1>:
    31ae:	6f 5f       	subi	r22, 0xFF	; 255
    31b0:	7f 4f       	sbci	r23, 0xFF	; 255
    31b2:	8f 4f       	sbci	r24, 0xFF	; 255
    31b4:	9f 4f       	sbci	r25, 0xFF	; 255

000031b6 <.L3^B1>:
    31b6:	08 95       	ret

000031b8 <_exit>:
    31b8:	f8 94       	cli

000031ba <__stop_program>:
    31ba:	ff cf       	rjmp	.-2      	; 0x31ba <__stop_program>
